
MasterNode_Rev0-1.elf:     file format elf32-littlearm

Sections:
Idx Name          Size      VMA       LMA       File off  Algn
  0 .text         00006070  00400000  00400000  00010000  2**6
                  CONTENTS, ALLOC, LOAD, READONLY, CODE
  1 .ARM.exidx    00000008  00406070  00406070  00016070  2**2
                  CONTENTS, ALLOC, LOAD, READONLY, DATA
  2 .relocate     000009d8  20400000  00406078  00020000  2**3
                  CONTENTS, ALLOC, LOAD, CODE
  3 .bss          00007954  204009d8  00406a50  000209d8  2**3
                  ALLOC
  4 .stack        00002004  2040832c  0040e3a4  000209d8  2**0
                  ALLOC
  5 .heap         00000200  2040a330  004103a8  000209d8  2**0
                  ALLOC
  6 .ARM.attributes 0000002e  00000000  00000000  000209d8  2**0
                  CONTENTS, READONLY
  7 .comment      00000059  00000000  00000000  00020a06  2**0
                  CONTENTS, READONLY
  8 .debug_info   0002594e  00000000  00000000  00020a5f  2**0
                  CONTENTS, READONLY, DEBUGGING
  9 .debug_abbrev 0000497c  00000000  00000000  000463ad  2**0
                  CONTENTS, READONLY, DEBUGGING
 10 .debug_loc    00009941  00000000  00000000  0004ad29  2**0
                  CONTENTS, READONLY, DEBUGGING
 11 .debug_aranges 00000dd8  00000000  00000000  0005466a  2**0
                  CONTENTS, READONLY, DEBUGGING
 12 .debug_ranges 00000ed8  00000000  00000000  00055442  2**0
                  CONTENTS, READONLY, DEBUGGING
 13 .debug_macro  0000eb8d  00000000  00000000  0005631a  2**0
                  CONTENTS, READONLY, DEBUGGING
 14 .debug_line   00012217  00000000  00000000  00064ea7  2**0
                  CONTENTS, READONLY, DEBUGGING
 15 .debug_str    000a4d09  00000000  00000000  000770be  2**0
                  CONTENTS, READONLY, DEBUGGING
 16 .debug_frame  00002d40  00000000  00000000  0011bdc8  2**2
                  CONTENTS, READONLY, DEBUGGING

Disassembly of section .text:

00400000 <exception_table>:
  400000:	30 a3 40 20 85 22 40 00 81 22 40 00 81 22 40 00     0.@ ."@.."@.."@.
  400010:	81 22 40 00 81 22 40 00 81 22 40 00 00 00 00 00     ."@.."@.."@.....
	...
  40002c:	81 22 40 00 81 22 40 00 00 00 00 00 81 22 40 00     ."@.."@......"@.
  40003c:	81 22 40 00 81 22 40 00 81 22 40 00 81 22 40 00     ."@.."@.."@.."@.
  40004c:	81 22 40 00 81 22 40 00 81 22 40 00 81 22 40 00     ."@.."@.."@.."@.
  40005c:	81 22 40 00 81 22 40 00 00 00 00 00 dd 20 40 00     ."@.."@...... @.
  40006c:	f1 20 40 00 05 21 40 00 81 22 40 00 81 22 40 00     . @..!@.."@.."@.
  40007c:	81 22 40 00 19 21 40 00 2d 21 40 00 81 22 40 00     ."@..!@.-!@.."@.
  40008c:	81 22 40 00 81 22 40 00 81 22 40 00 81 22 40 00     ."@.."@.."@.."@.
  40009c:	81 22 40 00 81 22 40 00 81 22 40 00 81 22 40 00     ."@.."@.."@.."@.
  4000ac:	81 22 40 00 81 22 40 00 81 22 40 00 81 22 40 00     ."@.."@.."@.."@.
  4000bc:	81 22 40 00 81 22 40 00 81 22 40 00 81 22 40 00     ."@.."@.."@.."@.
  4000cc:	81 22 40 00 81 22 40 00 81 22 40 00 81 22 40 00     ."@.."@.."@.."@.
  4000dc:	e1 0b 40 00 81 22 40 00 81 22 40 00 81 22 40 00     ..@.."@.."@.."@.
  4000ec:	81 22 40 00 81 22 40 00 81 22 40 00 81 22 40 00     ."@.."@.."@.."@.
  4000fc:	81 22 40 00 81 22 40 00 81 22 40 00 81 22 40 00     ."@.."@.."@.."@.
  40010c:	81 22 40 00 81 22 40 00 00 00 00 00 00 00 00 00     ."@.."@.........
  40011c:	00 00 00 00 81 22 40 00 81 22 40 00 81 22 40 00     ....."@.."@.."@.
  40012c:	81 22 40 00 81 22 40 00 81 22 40 00 81 22 40 00     ."@.."@.."@.."@.
  40013c:	81 22 40 00 81 22 40 00 81 22 40 00 81 22 40 00     ."@.."@.."@.."@.
  40014c:	81 22 40 00 81 22 40 00 81 22 40 00 81 22 40 00     ."@.."@.."@.."@.
  40015c:	81 22 40 00 81 22 40 00 81 22 40 00                 ."@.."@.."@.

00400168 <__do_global_dtors_aux>:
  400168:	b510      	push	{r4, lr}
  40016a:	4c05      	ldr	r4, [pc, #20]	; (400180 <__do_global_dtors_aux+0x18>)
  40016c:	7823      	ldrb	r3, [r4, #0]
  40016e:	b933      	cbnz	r3, 40017e <__do_global_dtors_aux+0x16>
  400170:	4b04      	ldr	r3, [pc, #16]	; (400184 <__do_global_dtors_aux+0x1c>)
  400172:	b113      	cbz	r3, 40017a <__do_global_dtors_aux+0x12>
  400174:	4804      	ldr	r0, [pc, #16]	; (400188 <__do_global_dtors_aux+0x20>)
  400176:	f3af 8000 	nop.w
  40017a:	2301      	movs	r3, #1
  40017c:	7023      	strb	r3, [r4, #0]
  40017e:	bd10      	pop	{r4, pc}
  400180:	204009d8 	.word	0x204009d8
  400184:	00000000 	.word	0x00000000
  400188:	00406078 	.word	0x00406078

0040018c <frame_dummy>:
  40018c:	4b0c      	ldr	r3, [pc, #48]	; (4001c0 <frame_dummy+0x34>)
  40018e:	b143      	cbz	r3, 4001a2 <frame_dummy+0x16>
  400190:	480c      	ldr	r0, [pc, #48]	; (4001c4 <frame_dummy+0x38>)
  400192:	490d      	ldr	r1, [pc, #52]	; (4001c8 <frame_dummy+0x3c>)
  400194:	b510      	push	{r4, lr}
  400196:	f3af 8000 	nop.w
  40019a:	480c      	ldr	r0, [pc, #48]	; (4001cc <frame_dummy+0x40>)
  40019c:	6803      	ldr	r3, [r0, #0]
  40019e:	b923      	cbnz	r3, 4001aa <frame_dummy+0x1e>
  4001a0:	bd10      	pop	{r4, pc}
  4001a2:	480a      	ldr	r0, [pc, #40]	; (4001cc <frame_dummy+0x40>)
  4001a4:	6803      	ldr	r3, [r0, #0]
  4001a6:	b933      	cbnz	r3, 4001b6 <frame_dummy+0x2a>
  4001a8:	4770      	bx	lr
  4001aa:	4b09      	ldr	r3, [pc, #36]	; (4001d0 <frame_dummy+0x44>)
  4001ac:	2b00      	cmp	r3, #0
  4001ae:	d0f7      	beq.n	4001a0 <frame_dummy+0x14>
  4001b0:	e8bd 4010 	ldmia.w	sp!, {r4, lr}
  4001b4:	4718      	bx	r3
  4001b6:	4b06      	ldr	r3, [pc, #24]	; (4001d0 <frame_dummy+0x44>)
  4001b8:	2b00      	cmp	r3, #0
  4001ba:	d0f5      	beq.n	4001a8 <frame_dummy+0x1c>
  4001bc:	4718      	bx	r3
  4001be:	bf00      	nop
  4001c0:	00000000 	.word	0x00000000
  4001c4:	00406078 	.word	0x00406078
  4001c8:	204009dc 	.word	0x204009dc
  4001cc:	00406078 	.word	0x00406078
  4001d0:	00000000 	.word	0x00000000

004001d4 <_read>:
  4001d4:	e92d 41f0 	stmdb	sp!, {r4, r5, r6, r7, r8, lr}
  4001d8:	b980      	cbnz	r0, 4001fc <_read+0x28>
  4001da:	460c      	mov	r4, r1
  4001dc:	4690      	mov	r8, r2
  4001de:	2a00      	cmp	r2, #0
  4001e0:	dd0f      	ble.n	400202 <_read+0x2e>
  4001e2:	188f      	adds	r7, r1, r2
  4001e4:	4e08      	ldr	r6, [pc, #32]	; (400208 <_read+0x34>)
  4001e6:	4d09      	ldr	r5, [pc, #36]	; (40020c <_read+0x38>)
  4001e8:	6830      	ldr	r0, [r6, #0]
  4001ea:	4621      	mov	r1, r4
  4001ec:	682b      	ldr	r3, [r5, #0]
  4001ee:	4798      	blx	r3
  4001f0:	3401      	adds	r4, #1
  4001f2:	42bc      	cmp	r4, r7
  4001f4:	d1f8      	bne.n	4001e8 <_read+0x14>
  4001f6:	4640      	mov	r0, r8
  4001f8:	e8bd 81f0 	ldmia.w	sp!, {r4, r5, r6, r7, r8, pc}
  4001fc:	f04f 38ff 	mov.w	r8, #4294967295
  400200:	e7f9      	b.n	4001f6 <_read+0x22>
  400202:	4680      	mov	r8, r0
  400204:	e7f7      	b.n	4001f6 <_read+0x22>
  400206:	bf00      	nop
  400208:	204082f0 	.word	0x204082f0
  40020c:	204072d8 	.word	0x204072d8

00400210 <circ_inc>:
#endif

/** Increment head or tail */
static void circ_inc(uint16_t *headortail, uint32_t size)
{
        (*headortail)++;
  400210:	8803      	ldrh	r3, [r0, #0]
  400212:	3301      	adds	r3, #1
  400214:	b29b      	uxth	r3, r3
        if((*headortail) >= size) {
            (*headortail) = 0;
  400216:	428b      	cmp	r3, r1
  400218:	bf28      	it	cs
  40021a:	2300      	movcs	r3, #0
  40021c:	8003      	strh	r3, [r0, #0]
  40021e:	4770      	bx	lr

00400220 <gmac_reset_tx_mem>:
 *
 * \param p_dev Pointer to GMAC driver instance.
 *
 */
static void gmac_reset_tx_mem(gmac_device_t* p_dev, gmac_quelist_t queue_idx)
{
  400220:	b5f0      	push	{r4, r5, r6, r7, lr}
	Gmac *p_hw = p_dev->p_hw;
  400222:	f8d0 e000 	ldr.w	lr, [r0]
	uint8_t *p_tx_buff = p_dev->gmac_queue_list[queue_idx].p_tx_buffer;
  400226:	eb01 0381 	add.w	r3, r1, r1, lsl #2
  40022a:	eb00 03c3 	add.w	r3, r0, r3, lsl #3
  40022e:	685a      	ldr	r2, [r3, #4]
	gmac_tx_descriptor_t *p_td = p_dev->gmac_queue_list[queue_idx].p_tx_dscr;
  400230:	691e      	ldr	r6, [r3, #16]
static inline void gmac_enable_transmit(Gmac* p_gmac, uint8_t uc_enable)
{
	if (uc_enable) {
		p_gmac->GMAC_NCR |= GMAC_NCR_TXEN;
	} else {
		p_gmac->GMAC_NCR &= ~GMAC_NCR_TXEN;
  400232:	f8de 4000 	ldr.w	r4, [lr]
  400236:	f024 0408 	bic.w	r4, r4, #8
  40023a:	f8ce 4000 	str.w	r4, [lr]

	/* Disable TX */
	gmac_enable_transmit(p_hw, 0);

	/* Set up the TX descriptors */
	CIRC_CLEAR(p_dev->gmac_queue_list[queue_idx].us_tx_head, p_dev->gmac_queue_list[queue_idx].us_tx_tail);
  40023e:	2400      	movs	r4, #0
  400240:	851c      	strh	r4, [r3, #40]	; 0x28
  400242:	84dc      	strh	r4, [r3, #38]	; 0x26
	for (ul_index = 0; ul_index < p_dev->gmac_queue_list[queue_idx].us_tx_list_size; ul_index++) {
  400244:	8c9b      	ldrh	r3, [r3, #36]	; 0x24
  400246:	b1fb      	cbz	r3, 400288 <gmac_reset_tx_mem+0x68>
  400248:	4634      	mov	r4, r6
  40024a:	2300      	movs	r3, #0
		ul_address = (uint32_t) (&(p_tx_buff[ul_index * GMAC_TX_UNITSIZE]));
		p_td[ul_index].addr = ul_address;
		p_td[ul_index].status.val = GMAC_TXD_USED;
  40024c:	f04f 4700 	mov.w	r7, #2147483648	; 0x80000000
	for (ul_index = 0; ul_index < p_dev->gmac_queue_list[queue_idx].us_tx_list_size; ul_index++) {
  400250:	eb01 0581 	add.w	r5, r1, r1, lsl #2
  400254:	eb00 00c5 	add.w	r0, r0, r5, lsl #3
		p_td[ul_index].addr = ul_address;
  400258:	f846 2033 	str.w	r2, [r6, r3, lsl #3]
		p_td[ul_index].status.val = GMAC_TXD_USED;
  40025c:	6067      	str	r7, [r4, #4]
	for (ul_index = 0; ul_index < p_dev->gmac_queue_list[queue_idx].us_tx_list_size; ul_index++) {
  40025e:	3301      	adds	r3, #1
  400260:	8c85      	ldrh	r5, [r0, #36]	; 0x24
  400262:	f202 52ee 	addw	r2, r2, #1518	; 0x5ee
  400266:	3408      	adds	r4, #8
  400268:	429d      	cmp	r5, r3
  40026a:	d8f5      	bhi.n	400258 <gmac_reset_tx_mem+0x38>
	}
	p_td[p_dev->gmac_queue_list[queue_idx].us_tx_list_size - 1].status.val =
  40026c:	eb06 05c5 	add.w	r5, r6, r5, lsl #3
  400270:	f04f 4340 	mov.w	r3, #3221225472	; 0xc0000000
  400274:	f845 3c04 	str.w	r3, [r5, #-4]
			GMAC_TXD_USED | GMAC_TXD_WRAP;

	/* Set transmit buffer queue */
	if(queue_idx == GMAC_QUE_0) {
  400278:	b141      	cbz	r1, 40028c <gmac_reset_tx_mem+0x6c>
 * \param p_gmac   Pointer to the GMAC instance.
 * \param queue_idx   Index of queue, start from 1
 */
static inline void gmac_set_tx_priority_queue(Gmac* p_gmac, uint32_t ul_addr, gmac_quelist_t queue_idx)
{
    p_gmac->GMAC_TBQBAPQ[queue_idx - 1] = GMAC_TBQB_ADDR_Msk & ul_addr;
  40027a:	f026 0603 	bic.w	r6, r6, #3
  40027e:	f201 110f 	addw	r1, r1, #271	; 0x10f
  400282:	f84e 6021 	str.w	r6, [lr, r1, lsl #2]
  400286:	bdf0      	pop	{r4, r5, r6, r7, pc}
	for (ul_index = 0; ul_index < p_dev->gmac_queue_list[queue_idx].us_tx_list_size; ul_index++) {
  400288:	2500      	movs	r5, #0
  40028a:	e7ef      	b.n	40026c <gmac_reset_tx_mem+0x4c>
	p_gmac->GMAC_TBQB = GMAC_TBQB_ADDR_Msk & ul_addr;
  40028c:	f026 0603 	bic.w	r6, r6, #3
  400290:	f8ce 601c 	str.w	r6, [lr, #28]
  400294:	bdf0      	pop	{r4, r5, r6, r7, pc}

00400296 <gmac_reset_rx_mem>:
 * \brief Disable receiver, reset registers and descriptor list.
 *
 * \param p_dev Pointer to GMAC Driver instance.
 */
static void gmac_reset_rx_mem(gmac_device_t* p_dev, gmac_quelist_t queue_idx)
{
  400296:	b5f0      	push	{r4, r5, r6, r7, lr}
	Gmac *p_hw = p_dev->p_hw;
  400298:	f8d0 e000 	ldr.w	lr, [r0]
	uint8_t *p_rx_buff = p_dev->gmac_queue_list[queue_idx].p_rx_buffer;
  40029c:	eb01 0381 	add.w	r3, r1, r1, lsl #2
  4002a0:	eb00 03c3 	add.w	r3, r0, r3, lsl #3
  4002a4:	689a      	ldr	r2, [r3, #8]
	gmac_rx_descriptor_t *pRd = p_dev->gmac_queue_list[queue_idx].p_rx_dscr;
  4002a6:	68de      	ldr	r6, [r3, #12]
		p_gmac->GMAC_NCR &= ~GMAC_NCR_RXEN;
  4002a8:	f8de 4000 	ldr.w	r4, [lr]
  4002ac:	f024 0404 	bic.w	r4, r4, #4
  4002b0:	f8ce 4000 	str.w	r4, [lr]

	/* Disable RX */
	gmac_enable_receive(p_hw, 0);

	/* Set up the RX descriptors */
	p_dev->gmac_queue_list[queue_idx].us_rx_idx = 0;
  4002b4:	2400      	movs	r4, #0
  4002b6:	845c      	strh	r4, [r3, #34]	; 0x22
	for (ul_index = 0; ul_index < p_dev->gmac_queue_list[queue_idx].us_rx_list_size; ul_index++) {
  4002b8:	8c1b      	ldrh	r3, [r3, #32]
  4002ba:	b313      	cbz	r3, 400302 <gmac_reset_rx_mem+0x6c>
  4002bc:	4634      	mov	r4, r6
  4002be:	2300      	movs	r3, #0
		ul_address = (uint32_t) (&(p_rx_buff[ul_index * GMAC_RX_UNITSIZE]));
		pRd[ul_index].addr.val = ul_address & GMAC_RXD_ADDR_MASK;
		pRd[ul_index].status.val = 0;
  4002c0:	461f      	mov	r7, r3
	for (ul_index = 0; ul_index < p_dev->gmac_queue_list[queue_idx].us_rx_list_size; ul_index++) {
  4002c2:	eb01 0581 	add.w	r5, r1, r1, lsl #2
  4002c6:	eb00 00c5 	add.w	r0, r0, r5, lsl #3
		pRd[ul_index].addr.val = ul_address & GMAC_RXD_ADDR_MASK;
  4002ca:	f022 0503 	bic.w	r5, r2, #3
  4002ce:	f846 5033 	str.w	r5, [r6, r3, lsl #3]
		pRd[ul_index].status.val = 0;
  4002d2:	6067      	str	r7, [r4, #4]
	for (ul_index = 0; ul_index < p_dev->gmac_queue_list[queue_idx].us_rx_list_size; ul_index++) {
  4002d4:	3301      	adds	r3, #1
  4002d6:	8c05      	ldrh	r5, [r0, #32]
  4002d8:	3280      	adds	r2, #128	; 0x80
  4002da:	3408      	adds	r4, #8
  4002dc:	429d      	cmp	r5, r3
  4002de:	d8f4      	bhi.n	4002ca <gmac_reset_rx_mem+0x34>
	}
	pRd[p_dev->gmac_queue_list[queue_idx].us_rx_list_size - 1].addr.val |= GMAC_RXD_WRAP;
  4002e0:	f06f 4360 	mvn.w	r3, #3758096384	; 0xe0000000
  4002e4:	442b      	add	r3, r5
  4002e6:	f856 2033 	ldr.w	r2, [r6, r3, lsl #3]
  4002ea:	f042 0202 	orr.w	r2, r2, #2
  4002ee:	f846 2033 	str.w	r2, [r6, r3, lsl #3]

	/* Set receive buffer queue */
	if(queue_idx == GMAC_QUE_0) {
  4002f2:	b141      	cbz	r1, 400306 <gmac_reset_rx_mem+0x70>
 * \param p_gmac   Pointer to the GMAC instance.
 * \param queue_idx   Index of queue, start from 1
 */
static inline void gmac_set_rx_priority_queue(Gmac* p_gmac, uint32_t ul_addr, gmac_quelist_t queue_idx)
{
    p_gmac->GMAC_RBQBAPQ[queue_idx - 1] = GMAC_RBQB_ADDR_Msk & ul_addr;
  4002f4:	f026 0603 	bic.w	r6, r6, #3
  4002f8:	f201 111f 	addw	r1, r1, #287	; 0x11f
  4002fc:	f84e 6021 	str.w	r6, [lr, r1, lsl #2]
  400300:	bdf0      	pop	{r4, r5, r6, r7, pc}
	for (ul_index = 0; ul_index < p_dev->gmac_queue_list[queue_idx].us_rx_list_size; ul_index++) {
  400302:	2500      	movs	r5, #0
  400304:	e7ec      	b.n	4002e0 <gmac_reset_rx_mem+0x4a>
	p_gmac->GMAC_RBQB = GMAC_RBQB_ADDR_Msk & ul_addr;
  400306:	f026 0603 	bic.w	r6, r6, #3
  40030a:	f8ce 6018 	str.w	r6, [lr, #24]
  40030e:	bdf0      	pop	{r4, r5, r6, r7, pc}

00400310 <gmac_dev_init>:
 * \param p_gmac_dev Pointer to the GMAC device instance.
 * \param p_opt GMAC configure options.
 */
void gmac_dev_init(Gmac* p_gmac, gmac_device_t* p_gmac_dev,
		gmac_options_t* p_opt)
{
  400310:	b5f8      	push	{r3, r4, r5, r6, r7, lr}
  400312:	4604      	mov	r4, r0
  400314:	460e      	mov	r6, r1
  400316:	4615      	mov	r5, r2
	p_gmac->GMAC_NCR = ul_ncr;
  400318:	2300      	movs	r3, #0
  40031a:	6003      	str	r3, [r0, #0]
	p_gmac->GMAC_IDR = ul_source;
  40031c:	f04f 33ff 	mov.w	r3, #4294967295
  400320:	62c3      	str	r3, [r0, #44]	; 0x2c
	p_gmac->GMAC_NCR |= GMAC_NCR_CLRSTAT;
  400322:	6803      	ldr	r3, [r0, #0]
  400324:	f043 0320 	orr.w	r3, r3, #32
  400328:	6003      	str	r3, [r0, #0]
	p_gmac->GMAC_RSR = ul_status;
  40032a:	230f      	movs	r3, #15
  40032c:	6203      	str	r3, [r0, #32]
	p_gmac->GMAC_TSR = ul_status;
  40032e:	f240 133f 	movw	r3, #319	; 0x13f
  400332:	6143      	str	r3, [r0, #20]
	return p_gmac->GMAC_NCFGR;
  400334:	6842      	ldr	r2, [r0, #4]
	gmac_clear_tx_status(p_gmac, GMAC_TSR_UBR | GMAC_TSR_COL | GMAC_TSR_RLE
            | GMAC_TSR_TXGO | GMAC_TSR_TFC | GMAC_TSR_TXCOMP | GMAC_TSR_HRESP );

	/* Enable the copy of data into the buffers
	   ignore broadcasts, and not copy FCS. */
	gmac_set_config(p_gmac, gmac_get_config(p_gmac) |
  400336:	4b45      	ldr	r3, [pc, #276]	; (40044c <gmac_dev_init+0x13c>)
  400338:	4313      	orrs	r3, r2
	p_gmac->GMAC_NCFGR = ul_cfg;
  40033a:	6043      	str	r3, [r0, #4]
	if (uc_enable) {
  40033c:	782b      	ldrb	r3, [r5, #0]
  40033e:	2b00      	cmp	r3, #0
  400340:	d079      	beq.n	400436 <gmac_dev_init+0x126>
		p_gmac->GMAC_NCFGR |= GMAC_NCFGR_CAF;
  400342:	6843      	ldr	r3, [r0, #4]
  400344:	f043 0310 	orr.w	r3, r3, #16
  400348:	6043      	str	r3, [r0, #4]
	if (uc_enable) {
  40034a:	786b      	ldrb	r3, [r5, #1]
  40034c:	2b00      	cmp	r3, #0
  40034e:	d177      	bne.n	400440 <gmac_dev_init+0x130>
		p_gmac->GMAC_NCFGR &= ~GMAC_NCFGR_NBC;
  400350:	6863      	ldr	r3, [r4, #4]
  400352:	f023 0320 	bic.w	r3, r3, #32
  400356:	6063      	str	r3, [r4, #4]
	return p_gmac->GMAC_ISRPQ[queue_idx - 1];
  400358:	f8d4 3400 	ldr.w	r3, [r4, #1024]	; 0x400
  40035c:	f8d4 3404 	ldr.w	r3, [r4, #1028]	; 0x404
  400360:	f8d4 3408 	ldr.w	r3, [r4, #1032]	; 0x408
  400364:	f8d4 340c 	ldr.w	r3, [r4, #1036]	; 0x40c
  400368:	f8d4 3410 	ldr.w	r3, [r4, #1040]	; 0x410
	gs_tx_desc_null.addr = (uint32_t)0xFFFFFFFF;
  40036c:	4b38      	ldr	r3, [pc, #224]	; (400450 <gmac_dev_init+0x140>)
  40036e:	f04f 32ff 	mov.w	r2, #4294967295
  400372:	601a      	str	r2, [r3, #0]
	gs_tx_desc_null.status.val = GMAC_TXD_WRAP | GMAC_TXD_USED;
  400374:	f04f 4240 	mov.w	r2, #3221225472	; 0xc0000000
  400378:	605a      	str	r2, [r3, #4]
    p_gmac->GMAC_TBQBAPQ[queue_idx - 1] = GMAC_TBQB_ADDR_Msk & ul_addr;
  40037a:	f023 0303 	bic.w	r3, r3, #3
  40037e:	f8c4 3440 	str.w	r3, [r4, #1088]	; 0x440
  400382:	f8c4 3444 	str.w	r3, [r4, #1092]	; 0x444
  400386:	f8c4 3448 	str.w	r3, [r4, #1096]	; 0x448
  40038a:	f8c4 344c 	str.w	r3, [r4, #1100]	; 0x44c
  40038e:	f8c4 3450 	str.w	r3, [r4, #1104]	; 0x450
	gs_rx_desc_null.addr.val |= GMAC_RXD_WRAP;
  400392:	4b30      	ldr	r3, [pc, #192]	; (400454 <gmac_dev_init+0x144>)
  400394:	f06f 0201 	mvn.w	r2, #1
  400398:	601a      	str	r2, [r3, #0]
	gs_rx_desc_null.status.val = 0;
  40039a:	2700      	movs	r7, #0
  40039c:	605f      	str	r7, [r3, #4]
    p_gmac->GMAC_RBQBAPQ[queue_idx - 1] = GMAC_RBQB_ADDR_Msk & ul_addr;
  40039e:	f023 0303 	bic.w	r3, r3, #3
  4003a2:	f8c4 3480 	str.w	r3, [r4, #1152]	; 0x480
  4003a6:	f8c4 3484 	str.w	r3, [r4, #1156]	; 0x484
  4003aa:	f8c4 3488 	str.w	r3, [r4, #1160]	; 0x488
  4003ae:	f8c4 348c 	str.w	r3, [r4, #1164]	; 0x48c
  4003b2:	f8c4 3490 	str.w	r3, [r4, #1168]	; 0x490
	return p_gmac->GMAC_ISR;
  4003b6:	6a63      	ldr	r3, [r4, #36]	; 0x24
	if (((uint32_t) p_dev_mm->p_rx_buffer & 0x7)
  4003b8:	4b27      	ldr	r3, [pc, #156]	; (400458 <gmac_dev_init+0x148>)
			(uint8_t *) ((uint32_t) p_dev_mm->p_rx_buffer & 0xFFFFFFF8);
  4003ba:	f023 0307 	bic.w	r3, r3, #7
	p_gmac_queue->p_rx_buffer =
  4003be:	60b3      	str	r3, [r6, #8]
			(gmac_rx_descriptor_t *) ((uint32_t) p_dev_mm->p_rx_dscr
  4003c0:	4b26      	ldr	r3, [pc, #152]	; (40045c <gmac_dev_init+0x14c>)
			& 0xFFFFFFF8);
  4003c2:	f023 0307 	bic.w	r3, r3, #7
	p_gmac_queue->p_rx_dscr =
  4003c6:	60f3      	str	r3, [r6, #12]
	p_gmac_queue->us_rx_list_size = p_dev_mm->us_rx_size;
  4003c8:	2210      	movs	r2, #16
  4003ca:	8432      	strh	r2, [r6, #32]
	if (((uint32_t) p_dev_mm->p_tx_buffer & 0x7)
  4003cc:	4b24      	ldr	r3, [pc, #144]	; (400460 <gmac_dev_init+0x150>)
			(uint8_t *) ((uint32_t) p_dev_mm->p_tx_buffer & 0xFFFFFFF8);
  4003ce:	f023 0307 	bic.w	r3, r3, #7
	p_gmac_queue->p_tx_buffer =
  4003d2:	6073      	str	r3, [r6, #4]
			(gmac_tx_descriptor_t *) ((uint32_t) p_dev_mm->p_tx_dscr
  4003d4:	4b23      	ldr	r3, [pc, #140]	; (400464 <gmac_dev_init+0x154>)
			& 0xFFFFFFF8);
  4003d6:	f023 0307 	bic.w	r3, r3, #7
	p_gmac_queue->p_tx_dscr =
  4003da:	6133      	str	r3, [r6, #16]
	p_gmac_queue->us_tx_list_size = p_dev_mm->us_tx_size;
  4003dc:	84b2      	strh	r2, [r6, #36]	; 0x24
	p_gmac_queue->func_tx_cb_list = p_tx_cb;
  4003de:	4b22      	ldr	r3, [pc, #136]	; (400468 <gmac_dev_init+0x158>)
  4003e0:	61f3      	str	r3, [r6, #28]
	gmac_reset_rx_mem(p_gmac_dev, queue_idx);
  4003e2:	4639      	mov	r1, r7
  4003e4:	4630      	mov	r0, r6
  4003e6:	4b21      	ldr	r3, [pc, #132]	; (40046c <gmac_dev_init+0x15c>)
  4003e8:	4798      	blx	r3
	gmac_reset_tx_mem(p_gmac_dev, queue_idx);
  4003ea:	4639      	mov	r1, r7
  4003ec:	4630      	mov	r0, r6
  4003ee:	4b20      	ldr	r3, [pc, #128]	; (400470 <gmac_dev_init+0x160>)
  4003f0:	4798      	blx	r3
		p_gmac->GMAC_NCR |= GMAC_NCR_TXEN;
  4003f2:	6823      	ldr	r3, [r4, #0]
  4003f4:	f043 0308 	orr.w	r3, r3, #8
  4003f8:	6023      	str	r3, [r4, #0]
		p_gmac->GMAC_NCR |= GMAC_NCR_RXEN;
  4003fa:	6823      	ldr	r3, [r4, #0]
  4003fc:	f043 0304 	orr.w	r3, r3, #4
  400400:	6023      	str	r3, [r4, #0]
		p_gmac->GMAC_NCR |= GMAC_NCR_WESTAT;
  400402:	6823      	ldr	r3, [r4, #0]
  400404:	f043 0380 	orr.w	r3, r3, #128	; 0x80
  400408:	6023      	str	r3, [r4, #0]
	p_gmac->GMAC_IER = ul_source;
  40040a:	f643 43f6 	movw	r3, #15606	; 0x3cf6
  40040e:	62a3      	str	r3, [r4, #40]	; 0x28
	p_gmac->GMAC_SA[uc_index].GMAC_SAB = (p_mac_addr[3] << 24)
  400410:	796a      	ldrb	r2, [r5, #5]
			| (p_mac_addr[2] << 16)
  400412:	792b      	ldrb	r3, [r5, #4]
  400414:	041b      	lsls	r3, r3, #16
  400416:	ea43 6302 	orr.w	r3, r3, r2, lsl #24
			| (p_mac_addr[0]);
  40041a:	78aa      	ldrb	r2, [r5, #2]
  40041c:	4313      	orrs	r3, r2
			| (p_mac_addr[1] << 8)
  40041e:	78ea      	ldrb	r2, [r5, #3]
			| (p_mac_addr[0]);
  400420:	ea43 2302 	orr.w	r3, r3, r2, lsl #8
	p_gmac->GMAC_SA[uc_index].GMAC_SAB = (p_mac_addr[3] << 24)
  400424:	f8c4 3088 	str.w	r3, [r4, #136]	; 0x88
	p_gmac->GMAC_SA[uc_index].GMAC_SAT = (p_mac_addr[5] << 8)
  400428:	79ea      	ldrb	r2, [r5, #7]
			| (p_mac_addr[4]);
  40042a:	79ab      	ldrb	r3, [r5, #6]
  40042c:	ea43 2302 	orr.w	r3, r3, r2, lsl #8
	p_gmac->GMAC_SA[uc_index].GMAC_SAT = (p_mac_addr[5] << 8)
  400430:	f8c4 308c 	str.w	r3, [r4, #140]	; 0x8c
  400434:	bdf8      	pop	{r3, r4, r5, r6, r7, pc}
		p_gmac->GMAC_NCFGR &= ~GMAC_NCFGR_CAF;
  400436:	6843      	ldr	r3, [r0, #4]
  400438:	f023 0310 	bic.w	r3, r3, #16
  40043c:	6043      	str	r3, [r0, #4]
  40043e:	e784      	b.n	40034a <gmac_dev_init+0x3a>
		p_gmac->GMAC_NCFGR |= GMAC_NCFGR_NBC;
  400440:	6863      	ldr	r3, [r4, #4]
  400442:	f043 0320 	orr.w	r3, r3, #32
  400446:	6063      	str	r3, [r4, #4]
  400448:	e786      	b.n	400358 <gmac_dev_init+0x48>
  40044a:	bf00      	nop
  40044c:	00022102 	.word	0x00022102
  400450:	20400b40 	.word	0x20400b40
  400454:	20400a78 	.word	0x20400a78
  400458:	20400b48 	.word	0x20400b48
  40045c:	204009f8 	.word	0x204009f8
  400460:	20401348 	.word	0x20401348
  400464:	20400ac0 	.word	0x20400ac0
  400468:	20400a80 	.word	0x20400a80
  40046c:	00400297 	.word	0x00400297
  400470:	00400221 	.word	0x00400221

00400474 <gmac_dev_read>:
 *
 * \return GMAC_OK if receiving frame successfully, otherwise failed.
 */
uint32_t gmac_dev_read(gmac_device_t* p_gmac_dev, gmac_quelist_t queue_idx, uint8_t* p_frame,
		uint32_t ul_frame_size, uint32_t* p_rcv_size)
{
  400474:	e92d 4ff0 	stmdb	sp!, {r4, r5, r6, r7, r8, r9, sl, fp, lr}
  400478:	b087      	sub	sp, #28
	uint16_t us_buffer_length;
	uint32_t tmp_ul_frame_size = 0;
	uint8_t *p_tmp_frame = 0;

	gmac_queue_t* p_gmac_queue = &p_gmac_dev->gmac_queue_list[queue_idx];
  40047a:	9102      	str	r1, [sp, #8]
	uint16_t us_tmp_idx = p_gmac_queue->us_rx_idx;
  40047c:	eb01 0481 	add.w	r4, r1, r1, lsl #2
  400480:	eb00 04c4 	add.w	r4, r0, r4, lsl #3
  400484:	8c66      	ldrh	r6, [r4, #34]	; 0x22
  400486:	f8ad 6016 	strh.w	r6, [sp, #22]
	gmac_rx_descriptor_t *p_rx_td =
			&p_gmac_queue->p_rx_dscr[p_gmac_queue->us_rx_idx];
	int8_t c_is_frame = 0;

	if (p_frame == NULL)
  40048a:	2a00      	cmp	r2, #0
  40048c:	f000 80cb 	beq.w	400626 <gmac_dev_read+0x1b2>
  400490:	468e      	mov	lr, r1
  400492:	4615      	mov	r5, r2
	gmac_rx_descriptor_t *p_rx_td =
  400494:	68e2      	ldr	r2, [r4, #12]
  400496:	eb02 04c6 	add.w	r4, r2, r6, lsl #3
		return GMAC_PARAM;

	/* Set the default return value */
	*p_rcv_size = 0;
  40049a:	f04f 0c00 	mov.w	ip, #0
  40049e:	9f10      	ldr	r7, [sp, #64]	; 0x40
  4004a0:	f8c7 c000 	str.w	ip, [r7]

	/* Process received RX descriptor */
	while ((p_rx_td->addr.val & GMAC_RXD_OWNERSHIP) == GMAC_RXD_OWNERSHIP) {
  4004a4:	f852 2036 	ldr.w	r2, [r2, r6, lsl #3]
  4004a8:	f012 0f01 	tst.w	r2, #1
  4004ac:	f000 80bd 	beq.w	40062a <gmac_dev_read+0x1b6>
  4004b0:	9501      	str	r5, [sp, #4]
  4004b2:	469b      	mov	fp, r3
  4004b4:	9103      	str	r1, [sp, #12]
  4004b6:	4605      	mov	r5, r0
			/* Skip previous fragment */
			while (us_tmp_idx != p_gmac_queue->us_rx_idx) {
				p_rx_td = &p_gmac_queue->p_rx_dscr[p_gmac_queue->us_rx_idx];
				p_rx_td->addr.val &= ~(GMAC_RXD_OWNERSHIP);

				circ_inc(&p_gmac_queue->us_rx_idx, p_gmac_queue->us_rx_list_size);
  4004b8:	eb01 0381 	add.w	r3, r1, r1, lsl #2
  4004bc:	eb00 03c3 	add.w	r3, r0, r3, lsl #3
  4004c0:	3322      	adds	r3, #34	; 0x22
  4004c2:	9300      	str	r3, [sp, #0]
  4004c4:	46e0      	mov	r8, ip
  4004c6:	46e1      	mov	r9, ip
  4004c8:	4667      	mov	r7, ip
		circ_inc(&us_tmp_idx, p_gmac_queue->us_rx_list_size);

		/* Copy data in the frame buffer */
		if (c_is_frame) {
			/* A complete turn has been made but no EOF found */
			if (us_tmp_idx == p_gmac_queue->us_rx_idx) {
  4004ca:	eb01 0681 	add.w	r6, r1, r1, lsl #2
  4004ce:	00f6      	lsls	r6, r6, #3
  4004d0:	e01c      	b.n	40050c <gmac_dev_read+0x98>
		circ_inc(&us_tmp_idx, p_gmac_queue->us_rx_list_size);
  4004d2:	19ab      	adds	r3, r5, r6
  4004d4:	8c19      	ldrh	r1, [r3, #32]
  4004d6:	f10d 0016 	add.w	r0, sp, #22
  4004da:	4b55      	ldr	r3, [pc, #340]	; (400630 <gmac_dev_read+0x1bc>)
  4004dc:	4798      	blx	r3
		if (c_is_frame) {
  4004de:	f1b8 0f00 	cmp.w	r8, #0
  4004e2:	d13a      	bne.n	40055a <gmac_dev_read+0xe6>
				return GMAC_OK;
			}
		}
		/* SOF has not been detected, skip the fragment */
		else {
			p_rx_td->addr.val &= ~(GMAC_RXD_OWNERSHIP);
  4004e4:	6823      	ldr	r3, [r4, #0]
  4004e6:	f023 0301 	bic.w	r3, r3, #1
  4004ea:	6023      	str	r3, [r4, #0]
			p_gmac_queue->us_rx_idx = us_tmp_idx;
  4004ec:	19ab      	adds	r3, r5, r6
  4004ee:	f8bd 2016 	ldrh.w	r2, [sp, #22]
  4004f2:	845a      	strh	r2, [r3, #34]	; 0x22
		}

		/* Process the next buffer */
		p_rx_td = &p_gmac_queue->p_rx_dscr[us_tmp_idx];
  4004f4:	19ab      	adds	r3, r5, r6
  4004f6:	f8bd 2016 	ldrh.w	r2, [sp, #22]
  4004fa:	68db      	ldr	r3, [r3, #12]
  4004fc:	eb03 04c2 	add.w	r4, r3, r2, lsl #3
	while ((p_rx_td->addr.val & GMAC_RXD_OWNERSHIP) == GMAC_RXD_OWNERSHIP) {
  400500:	f853 3032 	ldr.w	r3, [r3, r2, lsl #3]
  400504:	f013 0f01 	tst.w	r3, #1
  400508:	f000 8089 	beq.w	40061e <gmac_dev_read+0x1aa>
		if ((p_rx_td->status.val & GMAC_RXD_SOF) == GMAC_RXD_SOF) {
  40050c:	6863      	ldr	r3, [r4, #4]
  40050e:	f413 4f80 	tst.w	r3, #16384	; 0x4000
  400512:	d0de      	beq.n	4004d2 <gmac_dev_read+0x5e>
			while (us_tmp_idx != p_gmac_queue->us_rx_idx) {
  400514:	19ab      	adds	r3, r5, r6
  400516:	8c5b      	ldrh	r3, [r3, #34]	; 0x22
  400518:	f8bd 2016 	ldrh.w	r2, [sp, #22]
  40051c:	429a      	cmp	r2, r3
  40051e:	d013      	beq.n	400548 <gmac_dev_read+0xd4>
				p_rx_td = &p_gmac_queue->p_rx_dscr[p_gmac_queue->us_rx_idx];
  400520:	19af      	adds	r7, r5, r6
				circ_inc(&p_gmac_queue->us_rx_idx, p_gmac_queue->us_rx_list_size);
  400522:	f8df 810c 	ldr.w	r8, [pc, #268]	; 400630 <gmac_dev_read+0x1bc>
				p_rx_td = &p_gmac_queue->p_rx_dscr[p_gmac_queue->us_rx_idx];
  400526:	68fa      	ldr	r2, [r7, #12]
  400528:	eb02 04c3 	add.w	r4, r2, r3, lsl #3
				p_rx_td->addr.val &= ~(GMAC_RXD_OWNERSHIP);
  40052c:	f852 1033 	ldr.w	r1, [r2, r3, lsl #3]
  400530:	f021 0101 	bic.w	r1, r1, #1
  400534:	f842 1033 	str.w	r1, [r2, r3, lsl #3]
				circ_inc(&p_gmac_queue->us_rx_idx, p_gmac_queue->us_rx_list_size);
  400538:	8c39      	ldrh	r1, [r7, #32]
  40053a:	9800      	ldr	r0, [sp, #0]
  40053c:	47c0      	blx	r8
			while (us_tmp_idx != p_gmac_queue->us_rx_idx) {
  40053e:	8c7b      	ldrh	r3, [r7, #34]	; 0x22
  400540:	f8bd 2016 	ldrh.w	r2, [sp, #22]
  400544:	429a      	cmp	r2, r3
  400546:	d1ee      	bne.n	400526 <gmac_dev_read+0xb2>
		circ_inc(&us_tmp_idx, p_gmac_queue->us_rx_list_size);
  400548:	19ab      	adds	r3, r5, r6
  40054a:	8c19      	ldrh	r1, [r3, #32]
  40054c:	f10d 0016 	add.w	r0, sp, #22
  400550:	4b37      	ldr	r3, [pc, #220]	; (400630 <gmac_dev_read+0x1bc>)
  400552:	4798      	blx	r3
  400554:	f8dd 9004 	ldr.w	r9, [sp, #4]
  400558:	2700      	movs	r7, #0
			if (us_tmp_idx == p_gmac_queue->us_rx_idx) {
  40055a:	f8bd a016 	ldrh.w	sl, [sp, #22]
  40055e:	19ab      	adds	r3, r5, r6
  400560:	8c5b      	ldrh	r3, [r3, #34]	; 0x22
  400562:	4553      	cmp	r3, sl
  400564:	d008      	beq.n	400578 <gmac_dev_read+0x104>
			if ((tmp_ul_frame_size + us_buffer_length) > ul_frame_size) {
  400566:	f107 0380 	add.w	r3, r7, #128	; 0x80
  40056a:	455b      	cmp	r3, fp
  40056c:	d91d      	bls.n	4005aa <gmac_dev_read+0x136>
				us_buffer_length = ul_frame_size - tmp_ul_frame_size;
  40056e:	ebab 0807 	sub.w	r8, fp, r7
  400572:	fa1f f888 	uxth.w	r8, r8
  400576:	e01a      	b.n	4005ae <gmac_dev_read+0x13a>
					p_rx_td = &p_gmac_queue->p_rx_dscr[p_gmac_queue->us_rx_idx];
  400578:	9b02      	ldr	r3, [sp, #8]
  40057a:	eb03 0383 	add.w	r3, r3, r3, lsl #2
  40057e:	eb05 05c3 	add.w	r5, r5, r3, lsl #3
					circ_inc(&p_gmac_queue->us_rx_idx, p_gmac_queue->us_rx_list_size);
  400582:	4c2b      	ldr	r4, [pc, #172]	; (400630 <gmac_dev_read+0x1bc>)
  400584:	9e00      	ldr	r6, [sp, #0]
					p_rx_td = &p_gmac_queue->p_rx_dscr[p_gmac_queue->us_rx_idx];
  400586:	8c69      	ldrh	r1, [r5, #34]	; 0x22
  400588:	68ea      	ldr	r2, [r5, #12]
					p_rx_td->addr.val &= ~(GMAC_RXD_OWNERSHIP);
  40058a:	f852 3031 	ldr.w	r3, [r2, r1, lsl #3]
  40058e:	f023 0301 	bic.w	r3, r3, #1
  400592:	f842 3031 	str.w	r3, [r2, r1, lsl #3]
					circ_inc(&p_gmac_queue->us_rx_idx, p_gmac_queue->us_rx_list_size);
  400596:	8c29      	ldrh	r1, [r5, #32]
  400598:	4630      	mov	r0, r6
  40059a:	47a0      	blx	r4
				} while (us_tmp_idx != p_gmac_queue->us_rx_idx);
  40059c:	8c6a      	ldrh	r2, [r5, #34]	; 0x22
  40059e:	f8bd 3016 	ldrh.w	r3, [sp, #22]
  4005a2:	429a      	cmp	r2, r3
  4005a4:	d1ef      	bne.n	400586 <gmac_dev_read+0x112>
				return GMAC_RX_ERROR;
  4005a6:	2003      	movs	r0, #3
  4005a8:	e03a      	b.n	400620 <gmac_dev_read+0x1ac>
			us_buffer_length = GMAC_RX_UNITSIZE;
  4005aa:	f04f 0880 	mov.w	r8, #128	; 0x80
					(void *)(p_rx_td->addr.val & GMAC_RXD_ADDR_MASK),
  4005ae:	6821      	ldr	r1, [r4, #0]
			memcpy(p_tmp_frame,
  4005b0:	4642      	mov	r2, r8
  4005b2:	f021 0103 	bic.w	r1, r1, #3
  4005b6:	4648      	mov	r0, r9
  4005b8:	4b1e      	ldr	r3, [pc, #120]	; (400634 <gmac_dev_read+0x1c0>)
  4005ba:	4798      	blx	r3
			p_tmp_frame += us_buffer_length;
  4005bc:	44c1      	add	r9, r8
			tmp_ul_frame_size += us_buffer_length;
  4005be:	4447      	add	r7, r8
			if ((p_rx_td->status.val & GMAC_RXD_EOF) == GMAC_RXD_EOF) {
  4005c0:	6863      	ldr	r3, [r4, #4]
  4005c2:	f413 4f00 	tst.w	r3, #32768	; 0x8000
  4005c6:	d102      	bne.n	4005ce <gmac_dev_read+0x15a>
  4005c8:	f04f 0801 	mov.w	r8, #1
  4005cc:	e792      	b.n	4004f4 <gmac_dev_read+0x80>
				*p_rcv_size = (p_rx_td->status.val & GMAC_RXD_LEN_MASK);
  4005ce:	f3c3 030b 	ubfx	r3, r3, #0, #12
  4005d2:	9a10      	ldr	r2, [sp, #64]	; 0x40
  4005d4:	6013      	str	r3, [r2, #0]
				while (p_gmac_queue->us_rx_idx != us_tmp_idx) {
  4005d6:	9b03      	ldr	r3, [sp, #12]
  4005d8:	eb03 0383 	add.w	r3, r3, r3, lsl #2
  4005dc:	eb05 03c3 	add.w	r3, r5, r3, lsl #3
  4005e0:	8c5b      	ldrh	r3, [r3, #34]	; 0x22
  4005e2:	459a      	cmp	sl, r3
  4005e4:	d014      	beq.n	400610 <gmac_dev_read+0x19c>
					p_rx_td = &p_gmac_queue->p_rx_dscr[p_gmac_queue->us_rx_idx];
  4005e6:	9a02      	ldr	r2, [sp, #8]
  4005e8:	eb02 0282 	add.w	r2, r2, r2, lsl #2
  4005ec:	eb05 05c2 	add.w	r5, r5, r2, lsl #3
					circ_inc(&p_gmac_queue->us_rx_idx, p_gmac_queue->us_rx_list_size);
  4005f0:	4c0f      	ldr	r4, [pc, #60]	; (400630 <gmac_dev_read+0x1bc>)
					p_rx_td = &p_gmac_queue->p_rx_dscr[p_gmac_queue->us_rx_idx];
  4005f2:	68e9      	ldr	r1, [r5, #12]
					p_rx_td->addr.val &= ~(GMAC_RXD_OWNERSHIP);
  4005f4:	f851 2033 	ldr.w	r2, [r1, r3, lsl #3]
  4005f8:	f022 0201 	bic.w	r2, r2, #1
  4005fc:	f841 2033 	str.w	r2, [r1, r3, lsl #3]
					circ_inc(&p_gmac_queue->us_rx_idx, p_gmac_queue->us_rx_list_size);
  400600:	8c29      	ldrh	r1, [r5, #32]
  400602:	9800      	ldr	r0, [sp, #0]
  400604:	47a0      	blx	r4
				while (p_gmac_queue->us_rx_idx != us_tmp_idx) {
  400606:	8c6b      	ldrh	r3, [r5, #34]	; 0x22
  400608:	f8bd 2016 	ldrh.w	r2, [sp, #22]
  40060c:	429a      	cmp	r2, r3
  40060e:	d1f0      	bne.n	4005f2 <gmac_dev_read+0x17e>
				if (tmp_ul_frame_size < *p_rcv_size) {
  400610:	9b10      	ldr	r3, [sp, #64]	; 0x40
  400612:	6818      	ldr	r0, [r3, #0]
				return GMAC_OK;
  400614:	4287      	cmp	r7, r0
  400616:	bf34      	ite	cc
  400618:	2005      	movcc	r0, #5
  40061a:	2000      	movcs	r0, #0
  40061c:	e000      	b.n	400620 <gmac_dev_read+0x1ac>
	}

	return GMAC_RX_NO_DATA;
  40061e:	2004      	movs	r0, #4
}
  400620:	b007      	add	sp, #28
  400622:	e8bd 8ff0 	ldmia.w	sp!, {r4, r5, r6, r7, r8, r9, sl, fp, pc}
		return GMAC_PARAM;
  400626:	2006      	movs	r0, #6
  400628:	e7fa      	b.n	400620 <gmac_dev_read+0x1ac>
	return GMAC_RX_NO_DATA;
  40062a:	2004      	movs	r0, #4
  40062c:	e7f8      	b.n	400620 <gmac_dev_read+0x1ac>
  40062e:	bf00      	nop
  400630:	00400211 	.word	0x00400211
  400634:	00402dfd 	.word	0x00402dfd

00400638 <gmac_handler>:
 * \brief GMAC Interrupt handler.
 *
 * \param p_gmac_dev   Pointer to GMAC device instance.
 */
void gmac_handler(gmac_device_t* p_gmac_dev, gmac_quelist_t queue_idx)
{
  400638:	e92d 43f0 	stmdb	sp!, {r4, r5, r6, r7, r8, r9, lr}
  40063c:	b085      	sub	sp, #20
  40063e:	4607      	mov	r7, r0
  400640:	460d      	mov	r5, r1
	Gmac *p_hw = p_gmac_dev->p_hw;
  400642:	6806      	ldr	r6, [r0, #0]
	uint32_t ul_tx_status_flag;
#ifdef FREERTOS_USED
	portBASE_TYPE xHigherPriorityTaskWoken = pdFALSE;
#endif

	gmac_queue_t* p_gmac_queue = &p_gmac_dev->gmac_queue_list[queue_idx];
  400644:	460c      	mov	r4, r1

	if(queue_idx == GMAC_QUE_0) {
  400646:	2900      	cmp	r1, #0
  400648:	d153      	bne.n	4006f2 <gmac_handler+0xba>
	return p_gmac->GMAC_ISR;
  40064a:	6a73      	ldr	r3, [r6, #36]	; 0x24
		ul_isr = gmac_get_interrupt_status(p_hw);
  40064c:	9303      	str	r3, [sp, #12]
	return p_gmac->GMAC_RSR;
  40064e:	6a33      	ldr	r3, [r6, #32]
	} else {
		ul_isr = gmac_get_priority_interrupt_status(p_hw, queue_idx);
	}
	ul_rsr = gmac_get_rx_status(p_hw);
  400650:	9302      	str	r3, [sp, #8]
	return p_gmac->GMAC_TSR;
  400652:	6973      	ldr	r3, [r6, #20]
	ul_tsr = gmac_get_tx_status(p_hw);
  400654:	9301      	str	r3, [sp, #4]
	return p_gmac->GMAC_IMR;
  400656:	6b31      	ldr	r1, [r6, #48]	; 0x30

	ul_isr &= ~(gmac_get_interrupt_mask(p_hw) | 0xF8030300);
  400658:	9b03      	ldr	r3, [sp, #12]
  40065a:	4a49      	ldr	r2, [pc, #292]	; (400780 <gmac_handler+0x148>)
  40065c:	430a      	orrs	r2, r1
  40065e:	ea23 0302 	bic.w	r3, r3, r2
  400662:	9303      	str	r3, [sp, #12]

	/* RX packet */
	if ((ul_isr & GMAC_ISR_RCOMP) || (ul_rsr & GMAC_RSR_REC)) {
  400664:	9b03      	ldr	r3, [sp, #12]
  400666:	f013 0f02 	tst.w	r3, #2
  40066a:	d103      	bne.n	400674 <gmac_handler+0x3c>
  40066c:	9b02      	ldr	r3, [sp, #8]
  40066e:	f013 0f02 	tst.w	r3, #2
  400672:	d014      	beq.n	40069e <gmac_handler+0x66>
		ul_rx_status_flag = GMAC_RSR_REC;

		/* Check OVR */
		if (ul_rsr & GMAC_RSR_RXOVR) {
  400674:	9b02      	ldr	r3, [sp, #8]
  400676:	f003 0304 	and.w	r3, r3, #4
			ul_rx_status_flag |= GMAC_RSR_RXOVR;
  40067a:	2b00      	cmp	r3, #0
  40067c:	bf0c      	ite	eq
  40067e:	2002      	moveq	r0, #2
  400680:	2006      	movne	r0, #6
		}
		/* Check BNA */
		if (ul_rsr & GMAC_RSR_BNA) {
  400682:	9b02      	ldr	r3, [sp, #8]
  400684:	f013 0f01 	tst.w	r3, #1
			ul_rx_status_flag |= GMAC_RSR_BNA;
  400688:	bf18      	it	ne
  40068a:	f040 0001 	orrne.w	r0, r0, #1
	p_gmac->GMAC_RSR = ul_status;
  40068e:	6230      	str	r0, [r6, #32]
		}
		/* Clear status */
		gmac_clear_rx_status(p_hw, ul_rx_status_flag);

		/* Invoke callbacks */
		if (p_gmac_queue->func_rx_cb) {
  400690:	eb05 0385 	add.w	r3, r5, r5, lsl #2
  400694:	eb07 03c3 	add.w	r3, r7, r3, lsl #3
  400698:	695b      	ldr	r3, [r3, #20]
  40069a:	b103      	cbz	r3, 40069e <gmac_handler+0x66>
			p_gmac_queue->func_rx_cb(ul_rx_status_flag);
  40069c:	4798      	blx	r3
		}
	}

	/* TX packet */
	if ((ul_isr & GMAC_ISR_TCOMP) || (ul_tsr & GMAC_TSR_TXCOMP)) {
  40069e:	9b03      	ldr	r3, [sp, #12]
  4006a0:	f013 0f80 	tst.w	r3, #128	; 0x80
  4006a4:	d103      	bne.n	4006ae <gmac_handler+0x76>
  4006a6:	9b01      	ldr	r3, [sp, #4]
  4006a8:	f013 0f20 	tst.w	r3, #32
  4006ac:	d065      	beq.n	40077a <gmac_handler+0x142>
		ul_tx_status_flag = GMAC_TSR_TXCOMP;

		/* Check RLE */
		if (ul_tsr & GMAC_TSR_RLE) {
  4006ae:	9b01      	ldr	r3, [sp, #4]
  4006b0:	f013 0f04 	tst.w	r3, #4
  4006b4:	d123      	bne.n	4006fe <gmac_handler+0xc6>
		ul_tx_status_flag = GMAC_TSR_TXCOMP;
  4006b6:	f04f 0920 	mov.w	r9, #32
			p_tx_cb = &p_gmac_queue->func_tx_cb_list[p_gmac_queue->us_tx_tail];
			gmac_reset_tx_mem(p_gmac_dev, queue_idx);
			gmac_enable_transmit(p_hw, 1);
		}
		/* Check COL */
		if (ul_tsr & GMAC_TSR_COL) {
  4006ba:	9b01      	ldr	r3, [sp, #4]
  4006bc:	f013 0f02 	tst.w	r3, #2
			ul_tx_status_flag |= GMAC_TSR_COL;
  4006c0:	bf18      	it	ne
  4006c2:	f049 0902 	orrne.w	r9, r9, #2
	p_gmac->GMAC_TSR = ul_status;
  4006c6:	f8c6 9014 	str.w	r9, [r6, #20]
		}

		/* Clear status */
		gmac_clear_tx_status(p_hw, ul_tx_status_flag);

		if (!CIRC_EMPTY(p_gmac_queue->us_tx_head, p_gmac_queue->us_tx_tail)) {
  4006ca:	eb05 0385 	add.w	r3, r5, r5, lsl #2
  4006ce:	eb07 03c3 	add.w	r3, r7, r3, lsl #3
  4006d2:	8cda      	ldrh	r2, [r3, #38]	; 0x26
  4006d4:	8d1b      	ldrh	r3, [r3, #40]	; 0x28
  4006d6:	429a      	cmp	r2, r3
  4006d8:	d037      	beq.n	40074a <gmac_handler+0x112>
				/* Notify upper layer that a packet has been sent */
				if (*p_tx_cb) {
					(*p_tx_cb) (ul_tx_status_flag);
				}

				circ_inc(&p_gmac_queue->us_tx_tail, p_gmac_queue->us_tx_list_size);
  4006da:	1c6e      	adds	r6, r5, #1
  4006dc:	eb06 0686 	add.w	r6, r6, r6, lsl #2
  4006e0:	eb07 06c6 	add.w	r6, r7, r6, lsl #3
				p_tx_td = &p_gmac_queue->p_tx_dscr[p_gmac_queue->us_tx_tail];
  4006e4:	eb04 0484 	add.w	r4, r4, r4, lsl #2
  4006e8:	eb07 04c4 	add.w	r4, r7, r4, lsl #3
				circ_inc(&p_gmac_queue->us_tx_tail, p_gmac_queue->us_tx_list_size);
  4006ec:	f8df 8098 	ldr.w	r8, [pc, #152]	; 400788 <gmac_handler+0x150>
  4006f0:	e01c      	b.n	40072c <gmac_handler+0xf4>
	return p_gmac->GMAC_ISRPQ[queue_idx - 1];
  4006f2:	f101 03ff 	add.w	r3, r1, #255	; 0xff
  4006f6:	f856 3023 	ldr.w	r3, [r6, r3, lsl #2]
		ul_isr = gmac_get_priority_interrupt_status(p_hw, queue_idx);
  4006fa:	9303      	str	r3, [sp, #12]
  4006fc:	e7a7      	b.n	40064e <gmac_handler+0x16>
			gmac_reset_tx_mem(p_gmac_dev, queue_idx);
  4006fe:	4629      	mov	r1, r5
  400700:	4638      	mov	r0, r7
  400702:	4b20      	ldr	r3, [pc, #128]	; (400784 <gmac_handler+0x14c>)
  400704:	4798      	blx	r3
		p_gmac->GMAC_NCR |= GMAC_NCR_TXEN;
  400706:	6833      	ldr	r3, [r6, #0]
  400708:	f043 0308 	orr.w	r3, r3, #8
  40070c:	6033      	str	r3, [r6, #0]
			ul_tx_status_flag = GMAC_TSR_RLE;
  40070e:	f04f 0904 	mov.w	r9, #4
  400712:	e7d2      	b.n	4006ba <gmac_handler+0x82>
				circ_inc(&p_gmac_queue->us_tx_tail, p_gmac_queue->us_tx_list_size);
  400714:	8ca1      	ldrh	r1, [r4, #36]	; 0x24
  400716:	4630      	mov	r0, r6
  400718:	47c0      	blx	r8
			} while (CIRC_CNT(p_gmac_queue->us_tx_head, p_gmac_queue->us_tx_tail,
  40071a:	8ce3      	ldrh	r3, [r4, #38]	; 0x26
  40071c:	8d22      	ldrh	r2, [r4, #40]	; 0x28
  40071e:	1a9b      	subs	r3, r3, r2
  400720:	8ca1      	ldrh	r1, [r4, #36]	; 0x24
  400722:	fb93 f2f1 	sdiv	r2, r3, r1
  400726:	fb01 3312 	mls	r3, r1, r2, r3
  40072a:	b173      	cbz	r3, 40074a <gmac_handler+0x112>
				p_tx_td = &p_gmac_queue->p_tx_dscr[p_gmac_queue->us_tx_tail];
  40072c:	8d22      	ldrh	r2, [r4, #40]	; 0x28
				p_tx_cb = &p_gmac_queue->func_tx_cb_list[p_gmac_queue->us_tx_tail];
  40072e:	69e1      	ldr	r1, [r4, #28]
				if ((p_tx_td->status.val & GMAC_TXD_USED) == 0) {
  400730:	6923      	ldr	r3, [r4, #16]
  400732:	eb03 03c2 	add.w	r3, r3, r2, lsl #3
  400736:	685b      	ldr	r3, [r3, #4]
  400738:	2b00      	cmp	r3, #0
  40073a:	da06      	bge.n	40074a <gmac_handler+0x112>
				if (*p_tx_cb) {
  40073c:	f851 3022 	ldr.w	r3, [r1, r2, lsl #2]
  400740:	2b00      	cmp	r3, #0
  400742:	d0e7      	beq.n	400714 <gmac_handler+0xdc>
					(*p_tx_cb) (ul_tx_status_flag);
  400744:	4648      	mov	r0, r9
  400746:	4798      	blx	r3
  400748:	e7e4      	b.n	400714 <gmac_handler+0xdc>
							p_gmac_queue->us_tx_list_size));
		}

		/* If a wakeup has been scheduled, notify upper layer that it can
		   send other packets, and the sending will be successful. */
		if ((CIRC_SPACE(p_gmac_queue->us_tx_head, p_gmac_queue->us_tx_tail,
  40074a:	eb05 0385 	add.w	r3, r5, r5, lsl #2
  40074e:	eb07 03c3 	add.w	r3, r7, r3, lsl #3
  400752:	8d1a      	ldrh	r2, [r3, #40]	; 0x28
  400754:	8cd9      	ldrh	r1, [r3, #38]	; 0x26
  400756:	3101      	adds	r1, #1
  400758:	1a52      	subs	r2, r2, r1
  40075a:	8c98      	ldrh	r0, [r3, #36]	; 0x24
  40075c:	fb92 f1f0 	sdiv	r1, r2, r0
  400760:	fb00 2211 	mls	r2, r0, r1, r2
				p_gmac_queue->us_tx_list_size) >= p_gmac_queue->uc_wakeup_threshold)
  400764:	f893 302a 	ldrb.w	r3, [r3, #42]	; 0x2a
		if ((CIRC_SPACE(p_gmac_queue->us_tx_head, p_gmac_queue->us_tx_tail,
  400768:	429a      	cmp	r2, r3
  40076a:	db06      	blt.n	40077a <gmac_handler+0x142>
				&& p_gmac_queue->func_wakeup_cb) {
  40076c:	eb05 0585 	add.w	r5, r5, r5, lsl #2
  400770:	eb07 05c5 	add.w	r5, r7, r5, lsl #3
  400774:	69ab      	ldr	r3, [r5, #24]
  400776:	b103      	cbz	r3, 40077a <gmac_handler+0x142>
			p_gmac_queue->func_wakeup_cb();
  400778:	4798      	blx	r3
		/* the complete IP stack. */
		xSemaphoreGiveFromISR(netif_notification_semaphore,
				&xHigherPriorityTaskWoken);
		portEND_SWITCHING_ISR(xHigherPriorityTaskWoken);
#endif
}
  40077a:	b005      	add	sp, #20
  40077c:	e8bd 83f0 	ldmia.w	sp!, {r4, r5, r6, r7, r8, r9, pc}
  400780:	f8030300 	.word	0xf8030300
  400784:	00400221 	.word	0x00400221
  400788:	00400211 	.word	0x00400211

0040078c <spi_enable_clock>:
  40078c:	b508      	push	{r3, lr}
  40078e:	4b07      	ldr	r3, [pc, #28]	; (4007ac <spi_enable_clock+0x20>)
  400790:	4298      	cmp	r0, r3
  400792:	d003      	beq.n	40079c <spi_enable_clock+0x10>
  400794:	4b06      	ldr	r3, [pc, #24]	; (4007b0 <spi_enable_clock+0x24>)
  400796:	4298      	cmp	r0, r3
  400798:	d004      	beq.n	4007a4 <spi_enable_clock+0x18>
  40079a:	bd08      	pop	{r3, pc}
  40079c:	2015      	movs	r0, #21
  40079e:	4b05      	ldr	r3, [pc, #20]	; (4007b4 <spi_enable_clock+0x28>)
  4007a0:	4798      	blx	r3
  4007a2:	bd08      	pop	{r3, pc}
  4007a4:	202a      	movs	r0, #42	; 0x2a
  4007a6:	4b03      	ldr	r3, [pc, #12]	; (4007b4 <spi_enable_clock+0x28>)
  4007a8:	4798      	blx	r3
  4007aa:	e7f6      	b.n	40079a <spi_enable_clock+0xe>
  4007ac:	40008000 	.word	0x40008000
  4007b0:	40058000 	.word	0x40058000
  4007b4:	00402261 	.word	0x00402261

004007b8 <spi_set_peripheral_chip_select_value>:
  4007b8:	6843      	ldr	r3, [r0, #4]
  4007ba:	f423 2370 	bic.w	r3, r3, #983040	; 0xf0000
  4007be:	6043      	str	r3, [r0, #4]
  4007c0:	6843      	ldr	r3, [r0, #4]
  4007c2:	0409      	lsls	r1, r1, #16
  4007c4:	f401 2170 	and.w	r1, r1, #983040	; 0xf0000
  4007c8:	4319      	orrs	r1, r3
  4007ca:	6041      	str	r1, [r0, #4]
  4007cc:	4770      	bx	lr

004007ce <spi_set_delay_between_chip_select>:
  4007ce:	6843      	ldr	r3, [r0, #4]
  4007d0:	f023 437f 	bic.w	r3, r3, #4278190080	; 0xff000000
  4007d4:	6043      	str	r3, [r0, #4]
  4007d6:	6843      	ldr	r3, [r0, #4]
  4007d8:	ea43 6101 	orr.w	r1, r3, r1, lsl #24
  4007dc:	6041      	str	r1, [r0, #4]
  4007de:	4770      	bx	lr

004007e0 <spi_read>:
  4007e0:	b410      	push	{r4}
  4007e2:	f643 2399 	movw	r3, #15001	; 0x3a99
  4007e6:	6904      	ldr	r4, [r0, #16]
  4007e8:	f014 0f01 	tst.w	r4, #1
  4007ec:	d103      	bne.n	4007f6 <spi_read+0x16>
  4007ee:	3b01      	subs	r3, #1
  4007f0:	d1f9      	bne.n	4007e6 <spi_read+0x6>
  4007f2:	2001      	movs	r0, #1
  4007f4:	e009      	b.n	40080a <spi_read+0x2a>
  4007f6:	6883      	ldr	r3, [r0, #8]
  4007f8:	6840      	ldr	r0, [r0, #4]
  4007fa:	f010 0f02 	tst.w	r0, #2
  4007fe:	d002      	beq.n	400806 <spi_read+0x26>
  400800:	f3c3 4003 	ubfx	r0, r3, #16, #4
  400804:	7010      	strb	r0, [r2, #0]
  400806:	800b      	strh	r3, [r1, #0]
  400808:	2000      	movs	r0, #0
  40080a:	f85d 4b04 	ldr.w	r4, [sp], #4
  40080e:	4770      	bx	lr

00400810 <spi_write>:
  400810:	b430      	push	{r4, r5}
  400812:	f643 2499 	movw	r4, #15001	; 0x3a99
  400816:	6905      	ldr	r5, [r0, #16]
  400818:	f015 0f02 	tst.w	r5, #2
  40081c:	d103      	bne.n	400826 <spi_write+0x16>
  40081e:	3c01      	subs	r4, #1
  400820:	d1f9      	bne.n	400816 <spi_write+0x6>
  400822:	2001      	movs	r0, #1
  400824:	e00c      	b.n	400840 <spi_write+0x30>
  400826:	6844      	ldr	r4, [r0, #4]
  400828:	f014 0f02 	tst.w	r4, #2
  40082c:	d006      	beq.n	40083c <spi_write+0x2c>
  40082e:	0412      	lsls	r2, r2, #16
  400830:	f402 2270 	and.w	r2, r2, #983040	; 0xf0000
  400834:	4311      	orrs	r1, r2
  400836:	b10b      	cbz	r3, 40083c <spi_write+0x2c>
  400838:	f041 7180 	orr.w	r1, r1, #16777216	; 0x1000000
  40083c:	60c1      	str	r1, [r0, #12]
  40083e:	2000      	movs	r0, #0
  400840:	bc30      	pop	{r4, r5}
  400842:	4770      	bx	lr

00400844 <spi_set_clock_polarity>:
  400844:	b932      	cbnz	r2, 400854 <spi_set_clock_polarity+0x10>
  400846:	eb00 0081 	add.w	r0, r0, r1, lsl #2
  40084a:	6b03      	ldr	r3, [r0, #48]	; 0x30
  40084c:	f023 0301 	bic.w	r3, r3, #1
  400850:	6303      	str	r3, [r0, #48]	; 0x30
  400852:	4770      	bx	lr
  400854:	eb00 0081 	add.w	r0, r0, r1, lsl #2
  400858:	6b03      	ldr	r3, [r0, #48]	; 0x30
  40085a:	f043 0301 	orr.w	r3, r3, #1
  40085e:	6303      	str	r3, [r0, #48]	; 0x30
  400860:	4770      	bx	lr

00400862 <spi_set_clock_phase>:
  400862:	b932      	cbnz	r2, 400872 <spi_set_clock_phase+0x10>
  400864:	eb00 0081 	add.w	r0, r0, r1, lsl #2
  400868:	6b03      	ldr	r3, [r0, #48]	; 0x30
  40086a:	f023 0302 	bic.w	r3, r3, #2
  40086e:	6303      	str	r3, [r0, #48]	; 0x30
  400870:	4770      	bx	lr
  400872:	eb00 0081 	add.w	r0, r0, r1, lsl #2
  400876:	6b03      	ldr	r3, [r0, #48]	; 0x30
  400878:	f043 0302 	orr.w	r3, r3, #2
  40087c:	6303      	str	r3, [r0, #48]	; 0x30
  40087e:	4770      	bx	lr

00400880 <spi_configure_cs_behavior>:
  400880:	2a04      	cmp	r2, #4
  400882:	d003      	beq.n	40088c <spi_configure_cs_behavior+0xc>
  400884:	b16a      	cbz	r2, 4008a2 <spi_configure_cs_behavior+0x22>
  400886:	2a08      	cmp	r2, #8
  400888:	d016      	beq.n	4008b8 <spi_configure_cs_behavior+0x38>
  40088a:	4770      	bx	lr
  40088c:	eb00 0081 	add.w	r0, r0, r1, lsl #2
  400890:	6b03      	ldr	r3, [r0, #48]	; 0x30
  400892:	f023 0308 	bic.w	r3, r3, #8
  400896:	6303      	str	r3, [r0, #48]	; 0x30
  400898:	6b03      	ldr	r3, [r0, #48]	; 0x30
  40089a:	f043 0304 	orr.w	r3, r3, #4
  40089e:	6303      	str	r3, [r0, #48]	; 0x30
  4008a0:	4770      	bx	lr
  4008a2:	eb00 0081 	add.w	r0, r0, r1, lsl #2
  4008a6:	6b03      	ldr	r3, [r0, #48]	; 0x30
  4008a8:	f023 0308 	bic.w	r3, r3, #8
  4008ac:	6303      	str	r3, [r0, #48]	; 0x30
  4008ae:	6b03      	ldr	r3, [r0, #48]	; 0x30
  4008b0:	f023 0304 	bic.w	r3, r3, #4
  4008b4:	6303      	str	r3, [r0, #48]	; 0x30
  4008b6:	4770      	bx	lr
  4008b8:	eb00 0081 	add.w	r0, r0, r1, lsl #2
  4008bc:	6b03      	ldr	r3, [r0, #48]	; 0x30
  4008be:	f043 0308 	orr.w	r3, r3, #8
  4008c2:	6303      	str	r3, [r0, #48]	; 0x30
  4008c4:	e7e1      	b.n	40088a <spi_configure_cs_behavior+0xa>

004008c6 <spi_set_bits_per_transfer>:
  4008c6:	eb00 0181 	add.w	r1, r0, r1, lsl #2
  4008ca:	6b0b      	ldr	r3, [r1, #48]	; 0x30
  4008cc:	f023 03f0 	bic.w	r3, r3, #240	; 0xf0
  4008d0:	630b      	str	r3, [r1, #48]	; 0x30
  4008d2:	6b0b      	ldr	r3, [r1, #48]	; 0x30
  4008d4:	431a      	orrs	r2, r3
  4008d6:	630a      	str	r2, [r1, #48]	; 0x30
  4008d8:	4770      	bx	lr

004008da <spi_set_baudrate_div>:
  4008da:	b17a      	cbz	r2, 4008fc <spi_set_baudrate_div+0x22>
  4008dc:	b410      	push	{r4}
  4008de:	4614      	mov	r4, r2
  4008e0:	eb00 0181 	add.w	r1, r0, r1, lsl #2
  4008e4:	6b0b      	ldr	r3, [r1, #48]	; 0x30
  4008e6:	f423 437f 	bic.w	r3, r3, #65280	; 0xff00
  4008ea:	630b      	str	r3, [r1, #48]	; 0x30
  4008ec:	6b0a      	ldr	r2, [r1, #48]	; 0x30
  4008ee:	ea42 2204 	orr.w	r2, r2, r4, lsl #8
  4008f2:	630a      	str	r2, [r1, #48]	; 0x30
  4008f4:	2000      	movs	r0, #0
  4008f6:	f85d 4b04 	ldr.w	r4, [sp], #4
  4008fa:	4770      	bx	lr
  4008fc:	f04f 30ff 	mov.w	r0, #4294967295
  400900:	4770      	bx	lr

00400902 <spi_set_transfer_delay>:
  400902:	b410      	push	{r4}
  400904:	eb00 0181 	add.w	r1, r0, r1, lsl #2
  400908:	6b08      	ldr	r0, [r1, #48]	; 0x30
  40090a:	b280      	uxth	r0, r0
  40090c:	6308      	str	r0, [r1, #48]	; 0x30
  40090e:	6b0c      	ldr	r4, [r1, #48]	; 0x30
  400910:	ea44 6303 	orr.w	r3, r4, r3, lsl #24
  400914:	ea43 4302 	orr.w	r3, r3, r2, lsl #16
  400918:	630b      	str	r3, [r1, #48]	; 0x30
  40091a:	f85d 4b04 	ldr.w	r4, [sp], #4
  40091e:	4770      	bx	lr

00400920 <usart_set_async_baudrate>:
  400920:	b410      	push	{r4}
  400922:	010b      	lsls	r3, r1, #4
  400924:	4293      	cmp	r3, r2
  400926:	d914      	bls.n	400952 <usart_set_async_baudrate+0x32>
  400928:	00c9      	lsls	r1, r1, #3
  40092a:	084b      	lsrs	r3, r1, #1
  40092c:	eb03 02c2 	add.w	r2, r3, r2, lsl #3
  400930:	fbb2 f2f1 	udiv	r2, r2, r1
  400934:	08d3      	lsrs	r3, r2, #3
  400936:	1e5c      	subs	r4, r3, #1
  400938:	f64f 71fe 	movw	r1, #65534	; 0xfffe
  40093c:	428c      	cmp	r4, r1
  40093e:	d901      	bls.n	400944 <usart_set_async_baudrate+0x24>
  400940:	2001      	movs	r0, #1
  400942:	e017      	b.n	400974 <usart_set_async_baudrate+0x54>
  400944:	6841      	ldr	r1, [r0, #4]
  400946:	f441 2100 	orr.w	r1, r1, #524288	; 0x80000
  40094a:	6041      	str	r1, [r0, #4]
  40094c:	e00c      	b.n	400968 <usart_set_async_baudrate+0x48>
  40094e:	2001      	movs	r0, #1
  400950:	e010      	b.n	400974 <usart_set_async_baudrate+0x54>
  400952:	0859      	lsrs	r1, r3, #1
  400954:	eb01 02c2 	add.w	r2, r1, r2, lsl #3
  400958:	fbb2 f2f3 	udiv	r2, r2, r3
  40095c:	08d3      	lsrs	r3, r2, #3
  40095e:	1e5c      	subs	r4, r3, #1
  400960:	f64f 71fe 	movw	r1, #65534	; 0xfffe
  400964:	428c      	cmp	r4, r1
  400966:	d8f2      	bhi.n	40094e <usart_set_async_baudrate+0x2e>
  400968:	0412      	lsls	r2, r2, #16
  40096a:	f402 22e0 	and.w	r2, r2, #458752	; 0x70000
  40096e:	431a      	orrs	r2, r3
  400970:	6202      	str	r2, [r0, #32]
  400972:	2000      	movs	r0, #0
  400974:	f85d 4b04 	ldr.w	r4, [sp], #4
  400978:	4770      	bx	lr
	...

0040097c <usart_reset>:
  40097c:	4b08      	ldr	r3, [pc, #32]	; (4009a0 <usart_reset+0x24>)
  40097e:	f8c0 30e4 	str.w	r3, [r0, #228]	; 0xe4
  400982:	2300      	movs	r3, #0
  400984:	6043      	str	r3, [r0, #4]
  400986:	6243      	str	r3, [r0, #36]	; 0x24
  400988:	6283      	str	r3, [r0, #40]	; 0x28
  40098a:	2388      	movs	r3, #136	; 0x88
  40098c:	6003      	str	r3, [r0, #0]
  40098e:	2324      	movs	r3, #36	; 0x24
  400990:	6003      	str	r3, [r0, #0]
  400992:	f44f 7380 	mov.w	r3, #256	; 0x100
  400996:	6003      	str	r3, [r0, #0]
  400998:	f44f 2300 	mov.w	r3, #524288	; 0x80000
  40099c:	6003      	str	r3, [r0, #0]
  40099e:	4770      	bx	lr
  4009a0:	55534100 	.word	0x55534100

004009a4 <usart_init_rs232>:
  4009a4:	b570      	push	{r4, r5, r6, lr}
  4009a6:	4605      	mov	r5, r0
  4009a8:	460c      	mov	r4, r1
  4009aa:	4616      	mov	r6, r2
  4009ac:	4b0f      	ldr	r3, [pc, #60]	; (4009ec <usart_init_rs232+0x48>)
  4009ae:	4798      	blx	r3
  4009b0:	2200      	movs	r2, #0
  4009b2:	4b0f      	ldr	r3, [pc, #60]	; (4009f0 <usart_init_rs232+0x4c>)
  4009b4:	601a      	str	r2, [r3, #0]
  4009b6:	b1a4      	cbz	r4, 4009e2 <usart_init_rs232+0x3e>
  4009b8:	4632      	mov	r2, r6
  4009ba:	6821      	ldr	r1, [r4, #0]
  4009bc:	4628      	mov	r0, r5
  4009be:	4b0d      	ldr	r3, [pc, #52]	; (4009f4 <usart_init_rs232+0x50>)
  4009c0:	4798      	blx	r3
  4009c2:	4602      	mov	r2, r0
  4009c4:	b978      	cbnz	r0, 4009e6 <usart_init_rs232+0x42>
  4009c6:	6863      	ldr	r3, [r4, #4]
  4009c8:	68a1      	ldr	r1, [r4, #8]
  4009ca:	430b      	orrs	r3, r1
  4009cc:	6921      	ldr	r1, [r4, #16]
  4009ce:	430b      	orrs	r3, r1
  4009d0:	68e1      	ldr	r1, [r4, #12]
  4009d2:	430b      	orrs	r3, r1
  4009d4:	4906      	ldr	r1, [pc, #24]	; (4009f0 <usart_init_rs232+0x4c>)
  4009d6:	600b      	str	r3, [r1, #0]
  4009d8:	6869      	ldr	r1, [r5, #4]
  4009da:	430b      	orrs	r3, r1
  4009dc:	606b      	str	r3, [r5, #4]
  4009de:	4610      	mov	r0, r2
  4009e0:	bd70      	pop	{r4, r5, r6, pc}
  4009e2:	2201      	movs	r2, #1
  4009e4:	e7fb      	b.n	4009de <usart_init_rs232+0x3a>
  4009e6:	2201      	movs	r2, #1
  4009e8:	e7f9      	b.n	4009de <usart_init_rs232+0x3a>
  4009ea:	bf00      	nop
  4009ec:	0040097d 	.word	0x0040097d
  4009f0:	20407228 	.word	0x20407228
  4009f4:	00400921 	.word	0x00400921

004009f8 <usart_enable_tx>:
  4009f8:	2340      	movs	r3, #64	; 0x40
  4009fa:	6003      	str	r3, [r0, #0]
  4009fc:	4770      	bx	lr

004009fe <usart_enable_rx>:
  4009fe:	2310      	movs	r3, #16
  400a00:	6003      	str	r3, [r0, #0]
  400a02:	4770      	bx	lr

00400a04 <usart_write>:
  400a04:	6943      	ldr	r3, [r0, #20]
  400a06:	f013 0f02 	tst.w	r3, #2
  400a0a:	d004      	beq.n	400a16 <usart_write+0x12>
  400a0c:	f3c1 0108 	ubfx	r1, r1, #0, #9
  400a10:	61c1      	str	r1, [r0, #28]
  400a12:	2000      	movs	r0, #0
  400a14:	4770      	bx	lr
  400a16:	2001      	movs	r0, #1
  400a18:	4770      	bx	lr

00400a1a <usart_read>:
  400a1a:	6943      	ldr	r3, [r0, #20]
  400a1c:	f013 0f01 	tst.w	r3, #1
  400a20:	d005      	beq.n	400a2e <usart_read+0x14>
  400a22:	6983      	ldr	r3, [r0, #24]
  400a24:	f3c3 0308 	ubfx	r3, r3, #0, #9
  400a28:	600b      	str	r3, [r1, #0]
  400a2a:	2000      	movs	r0, #0
  400a2c:	4770      	bx	lr
  400a2e:	2001      	movs	r0, #1
  400a30:	4770      	bx	lr
	...

00400a34 <read_dev_gmac>:

#include "GMAC_Artnet.h"
#include "softLib/Art-Net/Art-Net.h"

uint32_t read_dev_gmac(void)
{
  400a34:	b510      	push	{r4, lr}
  400a36:	b082      	sub	sp, #8
	return gmac_dev_read(&gs_gmac_dev, GMAC_QUE_0, (uint8_t *) gs_uc_eth_buffer_rx, sizeof(gs_uc_eth_buffer_rx), &ul_frm_size_rx);
  400a38:	4b05      	ldr	r3, [pc, #20]	; (400a50 <read_dev_gmac+0x1c>)
  400a3a:	9300      	str	r3, [sp, #0]
  400a3c:	f44f 63c0 	mov.w	r3, #1536	; 0x600
  400a40:	4a04      	ldr	r2, [pc, #16]	; (400a54 <read_dev_gmac+0x20>)
  400a42:	2100      	movs	r1, #0
  400a44:	4804      	ldr	r0, [pc, #16]	; (400a58 <read_dev_gmac+0x24>)
  400a46:	4c05      	ldr	r4, [pc, #20]	; (400a5c <read_dev_gmac+0x28>)
  400a48:	47a0      	blx	r4
}
  400a4a:	b002      	add	sp, #8
  400a4c:	bd10      	pop	{r4, pc}
  400a4e:	bf00      	nop
  400a50:	204082d0 	.word	0x204082d0
  400a54:	204075d4 	.word	0x204075d4
  400a58:	204074dc 	.word	0x204074dc
  400a5c:	00400475 	.word	0x00400475

00400a60 <at24mac_get_mac_address>:
	}
}

#ifdef ETH_SUPPORT_AT24MAC
void at24mac_get_mac_address(void)
{
  400a60:	b510      	push	{r4, lr}
  400a62:	b08c      	sub	sp, #48	; 0x30
	twihs_options_t opt;
	twihs_packet_t packet_mac_addr;
	uint8_t orginal_mac_addr[BOARD_AT24MAC_PAGE_SIZE];

	/* Enable TWI peripheral */
	pmc_enable_periph_clk(ID_TWIHS0);
  400a64:	2013      	movs	r0, #19
  400a66:	4b1a      	ldr	r3, [pc, #104]	; (400ad0 <at24mac_get_mac_address+0x70>)
  400a68:	4798      	blx	r3

	/* Init TWI peripheral */
	opt.master_clk = sysclk_get_cpu_hz();
  400a6a:	4b1a      	ldr	r3, [pc, #104]	; (400ad4 <at24mac_get_mac_address+0x74>)
  400a6c:	9309      	str	r3, [sp, #36]	; 0x24
	opt.speed = BOARD_AT24MAC_TWIHS_CLK;
  400a6e:	4b1a      	ldr	r3, [pc, #104]	; (400ad8 <at24mac_get_mac_address+0x78>)
  400a70:	930a      	str	r3, [sp, #40]	; 0x28
	twihs_master_init(BOARD_AT24MAC_TWIHS, &opt);
  400a72:	4c1a      	ldr	r4, [pc, #104]	; (400adc <at24mac_get_mac_address+0x7c>)
  400a74:	a909      	add	r1, sp, #36	; 0x24
  400a76:	4620      	mov	r0, r4
  400a78:	4b19      	ldr	r3, [pc, #100]	; (400ae0 <at24mac_get_mac_address+0x80>)
  400a7a:	4798      	blx	r3

	/* MAC address */
	packet_mac_addr.chip = BOARD_AT24MAC_ADDRESS;
  400a7c:	2357      	movs	r3, #87	; 0x57
  400a7e:	f88d 3020 	strb.w	r3, [sp, #32]
	packet_mac_addr.addr[0] = 0x9A;
  400a82:	239a      	movs	r3, #154	; 0x9a
  400a84:	f88d 3010 	strb.w	r3, [sp, #16]
	packet_mac_addr.addr_length = 1;
  400a88:	2301      	movs	r3, #1
  400a8a:	9305      	str	r3, [sp, #20]
	packet_mac_addr.buffer = orginal_mac_addr;
  400a8c:	f8cd d018 	str.w	sp, [sp, #24]
	packet_mac_addr.length = BOARD_AT24MAC_PAGE_SIZE;
  400a90:	2310      	movs	r3, #16
  400a92:	9307      	str	r3, [sp, #28]

	twihs_master_read(BOARD_AT24MAC_TWIHS, &packet_mac_addr);
  400a94:	eb0d 0103 	add.w	r1, sp, r3
  400a98:	4620      	mov	r0, r4
  400a9a:	4b12      	ldr	r3, [pc, #72]	; (400ae4 <at24mac_get_mac_address+0x84>)
  400a9c:	4798      	blx	r3

	if ((orginal_mac_addr[0] == 0xFC) && (orginal_mac_addr[1] == 0xC2)
  400a9e:	f89d 3000 	ldrb.w	r3, [sp]
  400aa2:	2bfc      	cmp	r3, #252	; 0xfc
  400aa4:	d001      	beq.n	400aaa <at24mac_get_mac_address+0x4a>
	&& (orginal_mac_addr[2] == 0x3D)) {
		for (uint8_t i = 0; i < 6; i++)
		gs_uc_mac_address[i] = orginal_mac_addr[i];
	}
}
  400aa6:	b00c      	add	sp, #48	; 0x30
  400aa8:	bd10      	pop	{r4, pc}
	if ((orginal_mac_addr[0] == 0xFC) && (orginal_mac_addr[1] == 0xC2)
  400aaa:	f89d 3001 	ldrb.w	r3, [sp, #1]
  400aae:	2bc2      	cmp	r3, #194	; 0xc2
  400ab0:	d1f9      	bne.n	400aa6 <at24mac_get_mac_address+0x46>
	&& (orginal_mac_addr[2] == 0x3D)) {
  400ab2:	f89d 3002 	ldrb.w	r3, [sp, #2]
  400ab6:	2b3d      	cmp	r3, #61	; 0x3d
  400ab8:	d1f5      	bne.n	400aa6 <at24mac_get_mac_address+0x46>
  400aba:	466b      	mov	r3, sp
  400abc:	4a0a      	ldr	r2, [pc, #40]	; (400ae8 <at24mac_get_mac_address+0x88>)
  400abe:	f10d 0006 	add.w	r0, sp, #6
		gs_uc_mac_address[i] = orginal_mac_addr[i];
  400ac2:	f813 1b01 	ldrb.w	r1, [r3], #1
  400ac6:	f802 1b01 	strb.w	r1, [r2], #1
		for (uint8_t i = 0; i < 6; i++)
  400aca:	4283      	cmp	r3, r0
  400acc:	d1f9      	bne.n	400ac2 <at24mac_get_mac_address+0x62>
  400ace:	e7ea      	b.n	400aa6 <at24mac_get_mac_address+0x46>
  400ad0:	00402261 	.word	0x00402261
  400ad4:	11e1a300 	.word	0x11e1a300
  400ad8:	00061a80 	.word	0x00061a80
  400adc:	40018000 	.word	0x40018000
  400ae0:	00401b91 	.word	0x00401b91
  400ae4:	00401bc5 	.word	0x00401bc5
  400ae8:	20400018 	.word	0x20400018

00400aec <init_gmac_ethernet>:
{
  400aec:	b538      	push	{r3, r4, r5, lr}
	at24mac_get_mac_address();
  400aee:	4b28      	ldr	r3, [pc, #160]	; (400b90 <init_gmac_ethernet+0xa4>)
  400af0:	4798      	blx	r3
	ul_delay = sysclk_get_cpu_hz() / 1000 / 3 * 400;
  400af2:	4a28      	ldr	r2, [pc, #160]	; (400b94 <init_gmac_ethernet+0xa8>)
  400af4:	4b28      	ldr	r3, [pc, #160]	; (400b98 <init_gmac_ethernet+0xac>)
  400af6:	601a      	str	r2, [r3, #0]
	while (ul_delay--);
  400af8:	461a      	mov	r2, r3
  400afa:	6813      	ldr	r3, [r2, #0]
  400afc:	1e59      	subs	r1, r3, #1
  400afe:	6011      	str	r1, [r2, #0]
  400b00:	2b00      	cmp	r3, #0
  400b02:	d1fa      	bne.n	400afa <init_gmac_ethernet+0xe>
	pmc_enable_periph_clk(ID_GMAC);
  400b04:	2027      	movs	r0, #39	; 0x27
  400b06:	4b25      	ldr	r3, [pc, #148]	; (400b9c <init_gmac_ethernet+0xb0>)
  400b08:	4798      	blx	r3
	gmac_option.uc_copy_all_frame = 0;
  400b0a:	4a25      	ldr	r2, [pc, #148]	; (400ba0 <init_gmac_ethernet+0xb4>)
  400b0c:	2500      	movs	r5, #0
  400b0e:	7015      	strb	r5, [r2, #0]
	gmac_option.uc_no_boardcast = 0;
  400b10:	7055      	strb	r5, [r2, #1]
	memcpy(gmac_option.uc_mac_addr, gs_uc_mac_address, sizeof(gs_uc_mac_address));
  400b12:	4b24      	ldr	r3, [pc, #144]	; (400ba4 <init_gmac_ethernet+0xb8>)
  400b14:	6818      	ldr	r0, [r3, #0]
  400b16:	f8c2 0002 	str.w	r0, [r2, #2]
  400b1a:	889b      	ldrh	r3, [r3, #4]
  400b1c:	80d3      	strh	r3, [r2, #6]
	gs_gmac_dev.p_hw = GMAC;
  400b1e:	4922      	ldr	r1, [pc, #136]	; (400ba8 <init_gmac_ethernet+0xbc>)
  400b20:	4c22      	ldr	r4, [pc, #136]	; (400bac <init_gmac_ethernet+0xc0>)
  400b22:	600c      	str	r4, [r1, #0]
	gmac_dev_init(GMAC, &gs_gmac_dev, &gmac_option);
  400b24:	4620      	mov	r0, r4
  400b26:	4b22      	ldr	r3, [pc, #136]	; (400bb0 <init_gmac_ethernet+0xc4>)
  400b28:	4798      	blx	r3
 */
__STATIC_INLINE void __NVIC_EnableIRQ(IRQn_Type IRQn)
{
  if ((int32_t)(IRQn) >= 0)
  {
    NVIC->ISER[(((uint32_t)IRQn) >> 5UL)] = (uint32_t)(1UL << (((uint32_t)IRQn) & 0x1FUL));
  400b2a:	2280      	movs	r2, #128	; 0x80
  400b2c:	4b21      	ldr	r3, [pc, #132]	; (400bb4 <init_gmac_ethernet+0xc8>)
  400b2e:	605a      	str	r2, [r3, #4]
	if (ethernet_phy_init(GMAC, BOARD_GMAC_PHY_ADDR, sysclk_get_cpu_hz())
  400b30:	4a21      	ldr	r2, [pc, #132]	; (400bb8 <init_gmac_ethernet+0xcc>)
  400b32:	4629      	mov	r1, r5
  400b34:	4620      	mov	r0, r4
  400b36:	4b21      	ldr	r3, [pc, #132]	; (400bbc <init_gmac_ethernet+0xd0>)
  400b38:	4798      	blx	r3
  400b3a:	b9c8      	cbnz	r0, 400b70 <init_gmac_ethernet+0x84>
	if (ethernet_phy_auto_negotiate(GMAC, BOARD_GMAC_PHY_ADDR) != GMAC_OK) {
  400b3c:	2100      	movs	r1, #0
  400b3e:	481b      	ldr	r0, [pc, #108]	; (400bac <init_gmac_ethernet+0xc0>)
  400b40:	4b1f      	ldr	r3, [pc, #124]	; (400bc0 <init_gmac_ethernet+0xd4>)
  400b42:	4798      	blx	r3
  400b44:	b9c8      	cbnz	r0, 400b7a <init_gmac_ethernet+0x8e>
	while (ethernet_phy_set_link(GMAC, BOARD_GMAC_PHY_ADDR, 1) != GMAC_OK) {
  400b46:	2201      	movs	r2, #1
  400b48:	2100      	movs	r1, #0
  400b4a:	4818      	ldr	r0, [pc, #96]	; (400bac <init_gmac_ethernet+0xc0>)
  400b4c:	4b1d      	ldr	r3, [pc, #116]	; (400bc4 <init_gmac_ethernet+0xd8>)
  400b4e:	4798      	blx	r3
  400b50:	b9c0      	cbnz	r0, 400b84 <init_gmac_ethernet+0x98>
		p_artAddr.IP[i] = gs_uc_ip_address[i];
  400b52:	4b1d      	ldr	r3, [pc, #116]	; (400bc8 <init_gmac_ethernet+0xdc>)
  400b54:	4a1d      	ldr	r2, [pc, #116]	; (400bcc <init_gmac_ethernet+0xe0>)
  400b56:	7811      	ldrb	r1, [r2, #0]
  400b58:	7019      	strb	r1, [r3, #0]
  400b5a:	7851      	ldrb	r1, [r2, #1]
  400b5c:	7059      	strb	r1, [r3, #1]
  400b5e:	7891      	ldrb	r1, [r2, #2]
  400b60:	7099      	strb	r1, [r3, #2]
  400b62:	78d2      	ldrb	r2, [r2, #3]
  400b64:	70da      	strb	r2, [r3, #3]
	p_artAddr.Port = 0x6391;
  400b66:	f246 3291 	movw	r2, #25489	; 0x6391
  400b6a:	809a      	strh	r2, [r3, #4]
	return 1;
  400b6c:	2001      	movs	r0, #1
}
  400b6e:	bd38      	pop	{r3, r4, r5, pc}
		puts("PHY Initialize ERROR!\r");
  400b70:	4817      	ldr	r0, [pc, #92]	; (400bd0 <init_gmac_ethernet+0xe4>)
  400b72:	4b18      	ldr	r3, [pc, #96]	; (400bd4 <init_gmac_ethernet+0xe8>)
  400b74:	4798      	blx	r3
		return 0;
  400b76:	4628      	mov	r0, r5
  400b78:	bd38      	pop	{r3, r4, r5, pc}
		puts("Auto Negotiate ERROR!\r");
  400b7a:	4817      	ldr	r0, [pc, #92]	; (400bd8 <init_gmac_ethernet+0xec>)
  400b7c:	4b15      	ldr	r3, [pc, #84]	; (400bd4 <init_gmac_ethernet+0xe8>)
  400b7e:	4798      	blx	r3
		return 0;
  400b80:	2000      	movs	r0, #0
  400b82:	bd38      	pop	{r3, r4, r5, pc}
		puts("Set link ERROR!\r");
  400b84:	4815      	ldr	r0, [pc, #84]	; (400bdc <init_gmac_ethernet+0xf0>)
  400b86:	4b13      	ldr	r3, [pc, #76]	; (400bd4 <init_gmac_ethernet+0xe8>)
  400b88:	4798      	blx	r3
		return 0;
  400b8a:	2000      	movs	r0, #0
  400b8c:	bd38      	pop	{r3, r4, r5, pc}
  400b8e:	bf00      	nop
  400b90:	00400a61 	.word	0x00400a61
  400b94:	02625a00 	.word	0x02625a00
  400b98:	204075d0 	.word	0x204075d0
  400b9c:	00402261 	.word	0x00402261
  400ba0:	20407bd4 	.word	0x20407bd4
  400ba4:	20400018 	.word	0x20400018
  400ba8:	204074dc 	.word	0x204074dc
  400bac:	40050000 	.word	0x40050000
  400bb0:	00400311 	.word	0x00400311
  400bb4:	e000e100 	.word	0xe000e100
  400bb8:	11e1a300 	.word	0x11e1a300
  400bbc:	0040197d 	.word	0x0040197d
  400bc0:	00401781 	.word	0x00401781
  400bc4:	0040168d 	.word	0x0040168d
  400bc8:	204082d4 	.word	0x204082d4
  400bcc:	20400014 	.word	0x20400014
  400bd0:	00405b3c 	.word	0x00405b3c
  400bd4:	00403069 	.word	0x00403069
  400bd8:	00405b54 	.word	0x00405b54
  400bdc:	00405b6c 	.word	0x00405b6c

00400be0 <GMAC_Handler>:

/**
 * \brief GMAC interrupt handler.
 */
void GMAC_Handler(void)
{
  400be0:	b508      	push	{r3, lr}
	gmac_handler(&gs_gmac_dev, GMAC_QUE_0);
  400be2:	2100      	movs	r1, #0
  400be4:	4801      	ldr	r0, [pc, #4]	; (400bec <GMAC_Handler+0xc>)
  400be6:	4b02      	ldr	r3, [pc, #8]	; (400bf0 <GMAC_Handler+0x10>)
  400be8:	4798      	blx	r3
  400bea:	bd08      	pop	{r3, pc}
  400bec:	204074dc 	.word	0x204074dc
  400bf0:	00400639 	.word	0x00400639

00400bf4 <compareArray>:
}

char compareArray(uint8_t a[],uint8_t b[],uint8_t size)	
{
	int i;
	for(i=0;i<size;i++){
  400bf4:	b1a2      	cbz	r2, 400c20 <compareArray+0x2c>
{
  400bf6:	b430      	push	{r4, r5}
  400bf8:	4614      	mov	r4, r2
		if(a[i]!=b[i])
  400bfa:	7802      	ldrb	r2, [r0, #0]
  400bfc:	780b      	ldrb	r3, [r1, #0]
  400bfe:	429a      	cmp	r2, r3
  400c00:	d110      	bne.n	400c24 <compareArray+0x30>
  400c02:	1c43      	adds	r3, r0, #1
  400c04:	4420      	add	r0, r4
	for(i=0;i<size;i++){
  400c06:	4283      	cmp	r3, r0
  400c08:	d007      	beq.n	400c1a <compareArray+0x26>
		if(a[i]!=b[i])
  400c0a:	f813 4b01 	ldrb.w	r4, [r3], #1
  400c0e:	f811 5f01 	ldrb.w	r5, [r1, #1]!
  400c12:	42a5      	cmp	r5, r4
  400c14:	d0f7      	beq.n	400c06 <compareArray+0x12>
		return 1;
  400c16:	2001      	movs	r0, #1
  400c18:	e000      	b.n	400c1c <compareArray+0x28>
	}
	return 0;
  400c1a:	2000      	movs	r0, #0
  400c1c:	bc30      	pop	{r4, r5}
  400c1e:	4770      	bx	lr
	return 0;
  400c20:	2000      	movs	r0, #0
  400c22:	4770      	bx	lr
		return 1;
  400c24:	2001      	movs	r0, #1
  400c26:	e7f9      	b.n	400c1c <compareArray+0x28>

00400c28 <gmac_process_eth_packet>:
{
  400c28:	b5f0      	push	{r4, r5, r6, r7, lr}
  400c2a:	b083      	sub	sp, #12
	us_pkt_format = SWAP16(p_eth->et_protlen);
  400c2c:	8982      	ldrh	r2, [r0, #12]
  400c2e:	0a13      	lsrs	r3, r2, #8
  400c30:	ea43 2302 	orr.w	r3, r3, r2, lsl #8
  400c34:	b29b      	uxth	r3, r3
	if (us_pkt_format == ETH_PROT_IP)
  400c36:	f5b3 6f00 	cmp.w	r3, #2048	; 0x800
  400c3a:	d005      	beq.n	400c48 <gmac_process_eth_packet+0x20>
		printf("=== Default w_pkt_format= 0x%X===\n\r", us_pkt_format);
  400c3c:	4619      	mov	r1, r3
  400c3e:	4845      	ldr	r0, [pc, #276]	; (400d54 <gmac_process_eth_packet+0x12c>)
  400c40:	4b45      	ldr	r3, [pc, #276]	; (400d58 <gmac_process_eth_packet+0x130>)
  400c42:	4798      	blx	r3
}
  400c44:	b003      	add	sp, #12
  400c46:	bdf0      	pop	{r4, r5, r6, r7, pc}
  400c48:	4604      	mov	r4, r0
	if (p_ip_header ->ip_p == IP_PROT_UDP)
  400c4a:	7dc3      	ldrb	r3, [r0, #23]
		if (ul_size > hdr_len)
  400c4c:	2b11      	cmp	r3, #17
  400c4e:	d1f9      	bne.n	400c44 <gmac_process_eth_packet+0x1c>
  400c50:	292a      	cmp	r1, #42	; 0x2a
  400c52:	d9f7      	bls.n	400c44 <gmac_process_eth_packet+0x1c>
  400c54:	f100 0329 	add.w	r3, r0, #41	; 0x29
  400c58:	f10d 32ff 	add.w	r2, sp, #4294967295
  400c5c:	3031      	adds	r0, #49	; 0x31
				controle[i] = p_uc_data[hdr_len+i];
  400c5e:	f813 1f01 	ldrb.w	r1, [r3, #1]!
  400c62:	f802 1f01 	strb.w	r1, [r2, #1]!
			for (i = 0; i < 8; i++)
  400c66:	4283      	cmp	r3, r0
  400c68:	d1f9      	bne.n	400c5e <gmac_process_eth_packet+0x36>
			if (!compareArray(controle, artnet_id, 8))
  400c6a:	2208      	movs	r2, #8
  400c6c:	493b      	ldr	r1, [pc, #236]	; (400d5c <gmac_process_eth_packet+0x134>)
  400c6e:	4668      	mov	r0, sp
  400c70:	4b3b      	ldr	r3, [pc, #236]	; (400d60 <gmac_process_eth_packet+0x138>)
  400c72:	4798      	blx	r3
  400c74:	2800      	cmp	r0, #0
  400c76:	d1e5      	bne.n	400c44 <gmac_process_eth_packet+0x1c>
	switch (p_art_packet->art_OpCode)
  400c78:	8e63      	ldrh	r3, [r4, #50]	; 0x32
  400c7a:	f5b3 5f00 	cmp.w	r3, #8192	; 0x2000
  400c7e:	d006      	beq.n	400c8e <gmac_process_eth_packet+0x66>
  400c80:	f5b3 4fa0 	cmp.w	r3, #20480	; 0x5000
  400c84:	d058      	beq.n	400d38 <gmac_process_eth_packet+0x110>
		puts("Unimplemented OpCode");
  400c86:	4837      	ldr	r0, [pc, #220]	; (400d64 <gmac_process_eth_packet+0x13c>)
  400c88:	4b37      	ldr	r3, [pc, #220]	; (400d68 <gmac_process_eth_packet+0x140>)
  400c8a:	4798      	blx	r3
  400c8c:	e7da      	b.n	400c44 <gmac_process_eth_packet+0x1c>
  400c8e:	f104 032a 	add.w	r3, r4, #42	; 0x2a
  400c92:	4a36      	ldr	r2, [pc, #216]	; (400d6c <gmac_process_eth_packet+0x144>)
  400c94:	3432      	adds	r4, #50	; 0x32
			p_artPollReply_packet.ID[i] = p_artPoll_packet->ID[i];
  400c96:	f813 1b01 	ldrb.w	r1, [r3], #1
  400c9a:	f802 1f01 	strb.w	r1, [r2, #1]!
		for (uint8_t i = 0; i<8; i++)
  400c9e:	42a3      	cmp	r3, r4
  400ca0:	d1f9      	bne.n	400c96 <gmac_process_eth_packet+0x6e>
		p_artPollReply_packet.OpCode = OpPollReply;
  400ca2:	4c33      	ldr	r4, [pc, #204]	; (400d70 <gmac_process_eth_packet+0x148>)
  400ca4:	f44f 5204 	mov.w	r2, #8448	; 0x2100
  400ca8:	8122      	strh	r2, [r4, #8]
		p_artPollReply_packet.BoxAddr = p_artAddr;
  400caa:	4a32      	ldr	r2, [pc, #200]	; (400d74 <gmac_process_eth_packet+0x14c>)
  400cac:	6811      	ldr	r1, [r2, #0]
  400cae:	f8c4 100a 	str.w	r1, [r4, #10]
  400cb2:	8892      	ldrh	r2, [r2, #4]
  400cb4:	81e2      	strh	r2, [r4, #14]
		p_artPollReply_packet.VersionInfoLo = 0x01; //Version 1 of the firmware
  400cb6:	2201      	movs	r2, #1
  400cb8:	7462      	strb	r2, [r4, #17]
		p_artPollReply_packet.OemLo = 0xFF;
  400cba:	22ff      	movs	r2, #255	; 0xff
  400cbc:	7562      	strb	r2, [r4, #21]
		p_artPollReply_packet.Status = 0b00000010;
  400cbe:	2202      	movs	r2, #2
  400cc0:	75e2      	strb	r2, [r4, #23]
		p_artPollReply_packet.EstaManLo = "S";
  400cc2:	4a2d      	ldr	r2, [pc, #180]	; (400d78 <gmac_process_eth_packet+0x150>)
  400cc4:	7622      	strb	r2, [r4, #24]
		p_artPollReply_packet.EstaManHi = "R";
  400cc6:	4a2d      	ldr	r2, [pc, #180]	; (400d7c <gmac_process_eth_packet+0x154>)
  400cc8:	7662      	strb	r2, [r4, #25]
		strcpy (p_artPollReply_packet.ShortName, "MstrTX");
  400cca:	4a2d      	ldr	r2, [pc, #180]	; (400d80 <gmac_process_eth_packet+0x158>)
  400ccc:	6810      	ldr	r0, [r2, #0]
  400cce:	f8c4 001a 	str.w	r0, [r4, #26]
  400cd2:	8890      	ldrh	r0, [r2, #4]
  400cd4:	7992      	ldrb	r2, [r2, #6]
  400cd6:	83e0      	strh	r0, [r4, #30]
  400cd8:	f884 2020 	strb.w	r2, [r4, #32]
		strcpy (p_artPollReply_packet.LongName, "Masternode for interactive theater system");
  400cdc:	4d29      	ldr	r5, [pc, #164]	; (400d84 <gmac_process_eth_packet+0x15c>)
  400cde:	342c      	adds	r4, #44	; 0x2c
  400ce0:	f105 0720 	add.w	r7, r5, #32
  400ce4:	462e      	mov	r6, r5
  400ce6:	ce0f      	ldmia	r6!, {r0, r1, r2, r3}
  400ce8:	6020      	str	r0, [r4, #0]
  400cea:	6061      	str	r1, [r4, #4]
  400cec:	60a2      	str	r2, [r4, #8]
  400cee:	60e3      	str	r3, [r4, #12]
  400cf0:	4635      	mov	r5, r6
  400cf2:	3410      	adds	r4, #16
  400cf4:	42be      	cmp	r6, r7
  400cf6:	d1f5      	bne.n	400ce4 <gmac_process_eth_packet+0xbc>
  400cf8:	cd03      	ldmia	r5!, {r0, r1}
  400cfa:	6020      	str	r0, [r4, #0]
  400cfc:	6061      	str	r1, [r4, #4]
  400cfe:	882b      	ldrh	r3, [r5, #0]
  400d00:	8123      	strh	r3, [r4, #8]
		p_artPollReply_packet.NumPortsLo = 0;
  400d02:	4a1b      	ldr	r2, [pc, #108]	; (400d70 <gmac_process_eth_packet+0x148>)
  400d04:	2300      	movs	r3, #0
  400d06:	f882 30ad 	strb.w	r3, [r2, #173]	; 0xad
		p_artPollReply_packet.GoodOutputA[0] = 0x80;
  400d0a:	2380      	movs	r3, #128	; 0x80
  400d0c:	f882 30b6 	strb.w	r3, [r2, #182]	; 0xb6
  400d10:	4b1d      	ldr	r3, [pc, #116]	; (400d88 <gmac_process_eth_packet+0x160>)
  400d12:	32c8      	adds	r2, #200	; 0xc8
  400d14:	1d98      	adds	r0, r3, #6
			p_artPollReply_packet.Mac[i] = gs_uc_mac_address[i];	
  400d16:	f813 1b01 	ldrb.w	r1, [r3], #1
  400d1a:	f802 1f01 	strb.w	r1, [r2, #1]!
		for (uint8_t i = 0; i < 6; i++)
  400d1e:	4283      	cmp	r3, r0
  400d20:	d1f9      	bne.n	400d16 <gmac_process_eth_packet+0xee>
		p_artPollReply_packet.GoodOutputB[0] = 0b11000000;
  400d22:	4b13      	ldr	r3, [pc, #76]	; (400d70 <gmac_process_eth_packet+0x148>)
  400d24:	22c0      	movs	r2, #192	; 0xc0
  400d26:	f883 20d5 	strb.w	r2, [r3, #213]	; 0xd5
		p_artPollReply_packet.Status3 = 0b010000000;
  400d2a:	2280      	movs	r2, #128	; 0x80
  400d2c:	f883 20d9 	strb.w	r2, [r3, #217]	; 0xd9
		puts("ArtPoll replied\r");
  400d30:	4816      	ldr	r0, [pc, #88]	; (400d8c <gmac_process_eth_packet+0x164>)
  400d32:	4b0d      	ldr	r3, [pc, #52]	; (400d68 <gmac_process_eth_packet+0x140>)
  400d34:	4798      	blx	r3
  400d36:	e785      	b.n	400c44 <gmac_process_eth_packet+0x1c>
		if (p_artDmx_packet->SubUni == 0 && p_artDmx_packet->Net == 0)
  400d38:	8f23      	ldrh	r3, [r4, #56]	; 0x38
  400d3a:	2b00      	cmp	r3, #0
  400d3c:	d182      	bne.n	400c44 <gmac_process_eth_packet+0x1c>
			memcpy(artnet_data_buffer, p_artDmx_packet->Data, SWAP16(p_artDmx_packet->Length)); //mempcy(dst, src, arraylength);
  400d3e:	8f62      	ldrh	r2, [r4, #58]	; 0x3a
  400d40:	0213      	lsls	r3, r2, #8
  400d42:	b29b      	uxth	r3, r3
  400d44:	ea43 2212 	orr.w	r2, r3, r2, lsr #8
  400d48:	f104 013c 	add.w	r1, r4, #60	; 0x3c
  400d4c:	4810      	ldr	r0, [pc, #64]	; (400d90 <gmac_process_eth_packet+0x168>)
  400d4e:	4b11      	ldr	r3, [pc, #68]	; (400d94 <gmac_process_eth_packet+0x16c>)
  400d50:	4798      	blx	r3
  400d52:	e777      	b.n	400c44 <gmac_process_eth_packet+0x1c>
  400d54:	00405b18 	.word	0x00405b18
  400d58:	00402dd5 	.word	0x00402dd5
  400d5c:	2040000c 	.word	0x2040000c
  400d60:	00400bf5 	.word	0x00400bf5
  400d64:	00405b00 	.word	0x00405b00
  400d68:	00403069 	.word	0x00403069
  400d6c:	20407bdb 	.word	0x20407bdb
  400d70:	20407bdc 	.word	0x20407bdc
  400d74:	204082d4 	.word	0x204082d4
  400d78:	00405ab4 	.word	0x00405ab4
  400d7c:	00405c38 	.word	0x00405c38
  400d80:	00405ab8 	.word	0x00405ab8
  400d84:	00405ac0 	.word	0x00405ac0
  400d88:	20400018 	.word	0x20400018
  400d8c:	00405aec 	.word	0x00405aec
  400d90:	204072dc 	.word	0x204072dc
  400d94:	00402dfd 	.word	0x00402dfd

00400d98 <print_address_register>:
  400d98:	e92d 4ff0 	stmdb	sp!, {r4, r5, r6, r7, r8, r9, sl, fp, lr}
  400d9c:	b083      	sub	sp, #12
  400d9e:	af00      	add	r7, sp, #0
  400da0:	460e      	mov	r6, r1
  400da2:	4614      	mov	r4, r2
  400da4:	4601      	mov	r1, r0
  400da6:	4829      	ldr	r0, [pc, #164]	; (400e4c <print_address_register+0xb4>)
  400da8:	4b29      	ldr	r3, [pc, #164]	; (400e50 <print_address_register+0xb8>)
  400daa:	4798      	blx	r3
  400dac:	2c00      	cmp	r4, #0
  400dae:	d045      	beq.n	400e3c <print_address_register+0xa4>
  400db0:	4434      	add	r4, r6
  400db2:	fa5f fa84 	uxtb.w	sl, r4
  400db6:	f8df b0a8 	ldr.w	fp, [pc, #168]	; 400e60 <print_address_register+0xc8>
  400dba:	f8c7 d004 	str.w	sp, [r7, #4]
  400dbe:	f89b 4000 	ldrb.w	r4, [fp]
  400dc2:	1de3      	adds	r3, r4, #7
  400dc4:	f023 0307 	bic.w	r3, r3, #7
  400dc8:	ebad 0d03 	sub.w	sp, sp, r3
  400dcc:	466d      	mov	r5, sp
  400dce:	f106 0901 	add.w	r9, r6, #1
  400dd2:	fa5f f989 	uxtb.w	r9, r9
  400dd6:	f8c7 d000 	str.w	sp, [r7]
  400dda:	f104 0308 	add.w	r3, r4, #8
  400dde:	f023 0307 	bic.w	r3, r3, #7
  400de2:	ebad 0d03 	sub.w	sp, sp, r3
  400de6:	f006 061f 	and.w	r6, r6, #31
  400dea:	f88d 6000 	strb.w	r6, [sp]
  400dee:	1c61      	adds	r1, r4, #1
  400df0:	4668      	mov	r0, sp
  400df2:	4b18      	ldr	r3, [pc, #96]	; (400e54 <print_address_register+0xbc>)
  400df4:	4798      	blx	r3
  400df6:	b15c      	cbz	r4, 400e10 <print_address_register+0x78>
  400df8:	f10d 0801 	add.w	r8, sp, #1
  400dfc:	1e6b      	subs	r3, r5, #1
  400dfe:	1e61      	subs	r1, r4, #1
  400e00:	fa55 f181 	uxtab	r1, r5, r1
  400e04:	f818 2b01 	ldrb.w	r2, [r8], #1
  400e08:	f803 2f01 	strb.w	r2, [r3, #1]!
  400e0c:	428b      	cmp	r3, r1
  400e0e:	d1f9      	bne.n	400e04 <print_address_register+0x6c>
  400e10:	f8d7 d000 	ldr.w	sp, [r7]
  400e14:	4810      	ldr	r0, [pc, #64]	; (400e58 <print_address_register+0xc0>)
  400e16:	4b0e      	ldr	r3, [pc, #56]	; (400e50 <print_address_register+0xb8>)
  400e18:	4798      	blx	r3
  400e1a:	3c01      	subs	r4, #1
  400e1c:	192c      	adds	r4, r5, r4
  400e1e:	d208      	bcs.n	400e32 <print_address_register+0x9a>
  400e20:	f8df 8040 	ldr.w	r8, [pc, #64]	; 400e64 <print_address_register+0xcc>
  400e24:	4e0a      	ldr	r6, [pc, #40]	; (400e50 <print_address_register+0xb8>)
  400e26:	f814 1901 	ldrb.w	r1, [r4], #-1
  400e2a:	4640      	mov	r0, r8
  400e2c:	47b0      	blx	r6
  400e2e:	42a5      	cmp	r5, r4
  400e30:	d9f9      	bls.n	400e26 <print_address_register+0x8e>
  400e32:	f8d7 d004 	ldr.w	sp, [r7, #4]
  400e36:	464e      	mov	r6, r9
  400e38:	45d1      	cmp	r9, sl
  400e3a:	d1be      	bne.n	400dba <print_address_register+0x22>
  400e3c:	4807      	ldr	r0, [pc, #28]	; (400e5c <print_address_register+0xc4>)
  400e3e:	4b04      	ldr	r3, [pc, #16]	; (400e50 <print_address_register+0xb8>)
  400e40:	4798      	blx	r3
  400e42:	370c      	adds	r7, #12
  400e44:	46bd      	mov	sp, r7
  400e46:	e8bd 8ff0 	ldmia.w	sp!, {r4, r5, r6, r7, r8, r9, sl, fp, pc}
  400e4a:	bf00      	nop
  400e4c:	00405cb4 	.word	0x00405cb4
  400e50:	00402dd5 	.word	0x00402dd5
  400e54:	004015dd 	.word	0x004015dd
  400e58:	00405cb8 	.word	0x00405cb8
  400e5c:	00405e84 	.word	0x00405e84
  400e60:	204082dc 	.word	0x204082dc
  400e64:	00405cbc 	.word	0x00405cbc

00400e68 <writeRegister>:
  400e68:	b5f8      	push	{r3, r4, r5, r6, r7, lr}
  400e6a:	af00      	add	r7, sp, #0
  400e6c:	1c56      	adds	r6, r2, #1
  400e6e:	f102 0308 	add.w	r3, r2, #8
  400e72:	f023 0307 	bic.w	r3, r3, #7
  400e76:	ebad 0d03 	sub.w	sp, sp, r3
  400e7a:	466d      	mov	r5, sp
  400e7c:	f000 001f 	and.w	r0, r0, #31
  400e80:	f040 0020 	orr.w	r0, r0, #32
  400e84:	f88d 0000 	strb.w	r0, [sp]
  400e88:	b152      	cbz	r2, 400ea0 <writeRegister+0x38>
  400e8a:	1e4b      	subs	r3, r1, #1
  400e8c:	1c68      	adds	r0, r5, #1
  400e8e:	3a01      	subs	r2, #1
  400e90:	fa51 f482 	uxtab	r4, r1, r2
  400e94:	f813 2f01 	ldrb.w	r2, [r3, #1]!
  400e98:	f800 2b01 	strb.w	r2, [r0], #1
  400e9c:	42a3      	cmp	r3, r4
  400e9e:	d1f9      	bne.n	400e94 <writeRegister+0x2c>
  400ea0:	4631      	mov	r1, r6
  400ea2:	4628      	mov	r0, r5
  400ea4:	4b02      	ldr	r3, [pc, #8]	; (400eb0 <writeRegister+0x48>)
  400ea6:	4798      	blx	r3
  400ea8:	7828      	ldrb	r0, [r5, #0]
  400eaa:	46bd      	mov	sp, r7
  400eac:	bdf8      	pop	{r3, r4, r5, r6, r7, pc}
  400eae:	bf00      	nop
  400eb0:	004015dd 	.word	0x004015dd

00400eb4 <nRF24_readRegister>:
  400eb4:	b500      	push	{lr}
  400eb6:	b083      	sub	sp, #12
  400eb8:	f000 001f 	and.w	r0, r0, #31
  400ebc:	f88d 0004 	strb.w	r0, [sp, #4]
  400ec0:	23ff      	movs	r3, #255	; 0xff
  400ec2:	f88d 3005 	strb.w	r3, [sp, #5]
  400ec6:	2102      	movs	r1, #2
  400ec8:	a801      	add	r0, sp, #4
  400eca:	4b03      	ldr	r3, [pc, #12]	; (400ed8 <nRF24_readRegister+0x24>)
  400ecc:	4798      	blx	r3
  400ece:	f89d 0005 	ldrb.w	r0, [sp, #5]
  400ed2:	b003      	add	sp, #12
  400ed4:	f85d fb04 	ldr.w	pc, [sp], #4
  400ed8:	004015dd 	.word	0x004015dd

00400edc <print_byte_register>:
  400edc:	e92d 43f8 	stmdb	sp!, {r3, r4, r5, r6, r7, r8, r9, lr}
  400ee0:	460d      	mov	r5, r1
  400ee2:	4616      	mov	r6, r2
  400ee4:	4601      	mov	r1, r0
  400ee6:	480d      	ldr	r0, [pc, #52]	; (400f1c <print_byte_register+0x40>)
  400ee8:	4b0d      	ldr	r3, [pc, #52]	; (400f20 <print_byte_register+0x44>)
  400eea:	4798      	blx	r3
  400eec:	b186      	cbz	r6, 400f10 <print_byte_register+0x34>
  400eee:	442e      	add	r6, r5
  400ef0:	b2f6      	uxtb	r6, r6
  400ef2:	f8df 9034 	ldr.w	r9, [pc, #52]	; 400f28 <print_byte_register+0x4c>
  400ef6:	f8df 8034 	ldr.w	r8, [pc, #52]	; 400f2c <print_byte_register+0x50>
  400efa:	4f09      	ldr	r7, [pc, #36]	; (400f20 <print_byte_register+0x44>)
  400efc:	1c6c      	adds	r4, r5, #1
  400efe:	b2e4      	uxtb	r4, r4
  400f00:	4628      	mov	r0, r5
  400f02:	47c8      	blx	r9
  400f04:	4601      	mov	r1, r0
  400f06:	4640      	mov	r0, r8
  400f08:	47b8      	blx	r7
  400f0a:	4625      	mov	r5, r4
  400f0c:	42a6      	cmp	r6, r4
  400f0e:	d1f5      	bne.n	400efc <print_byte_register+0x20>
  400f10:	4804      	ldr	r0, [pc, #16]	; (400f24 <print_byte_register+0x48>)
  400f12:	4b03      	ldr	r3, [pc, #12]	; (400f20 <print_byte_register+0x44>)
  400f14:	4798      	blx	r3
  400f16:	e8bd 83f8 	ldmia.w	sp!, {r3, r4, r5, r6, r7, r8, r9, pc}
  400f1a:	bf00      	nop
  400f1c:	00405cb4 	.word	0x00405cb4
  400f20:	00402dd5 	.word	0x00402dd5
  400f24:	00405e84 	.word	0x00405e84
  400f28:	00400eb5 	.word	0x00400eb5
  400f2c:	00405cc4 	.word	0x00405cc4

00400f30 <nRF24_writeRegister>:
  400f30:	b500      	push	{lr}
  400f32:	b083      	sub	sp, #12
  400f34:	f000 001f 	and.w	r0, r0, #31
  400f38:	f040 0020 	orr.w	r0, r0, #32
  400f3c:	f88d 0004 	strb.w	r0, [sp, #4]
  400f40:	f88d 1005 	strb.w	r1, [sp, #5]
  400f44:	2102      	movs	r1, #2
  400f46:	a801      	add	r0, sp, #4
  400f48:	4b03      	ldr	r3, [pc, #12]	; (400f58 <nRF24_writeRegister+0x28>)
  400f4a:	4798      	blx	r3
  400f4c:	f89d 0004 	ldrb.w	r0, [sp, #4]
  400f50:	b003      	add	sp, #12
  400f52:	f85d fb04 	ldr.w	pc, [sp], #4
  400f56:	bf00      	nop
  400f58:	004015dd 	.word	0x004015dd

00400f5c <nRF24_FlushRx>:
  400f5c:	b500      	push	{lr}
  400f5e:	b083      	sub	sp, #12
  400f60:	a802      	add	r0, sp, #8
  400f62:	23e2      	movs	r3, #226	; 0xe2
  400f64:	f800 3d01 	strb.w	r3, [r0, #-1]!
  400f68:	2101      	movs	r1, #1
  400f6a:	4b03      	ldr	r3, [pc, #12]	; (400f78 <nRF24_FlushRx+0x1c>)
  400f6c:	4798      	blx	r3
  400f6e:	f89d 0007 	ldrb.w	r0, [sp, #7]
  400f72:	b003      	add	sp, #12
  400f74:	f85d fb04 	ldr.w	pc, [sp], #4
  400f78:	004015dd 	.word	0x004015dd

00400f7c <nRF24_FlushTx>:
  400f7c:	b500      	push	{lr}
  400f7e:	b083      	sub	sp, #12
  400f80:	a802      	add	r0, sp, #8
  400f82:	23e1      	movs	r3, #225	; 0xe1
  400f84:	f800 3d01 	strb.w	r3, [r0, #-1]!
  400f88:	2101      	movs	r1, #1
  400f8a:	4b03      	ldr	r3, [pc, #12]	; (400f98 <nRF24_FlushTx+0x1c>)
  400f8c:	4798      	blx	r3
  400f8e:	f89d 0007 	ldrb.w	r0, [sp, #7]
  400f92:	b003      	add	sp, #12
  400f94:	f85d fb04 	ldr.w	pc, [sp], #4
  400f98:	004015dd 	.word	0x004015dd

00400f9c <nRF24_getStatus>:
  400f9c:	b500      	push	{lr}
  400f9e:	b083      	sub	sp, #12
  400fa0:	a802      	add	r0, sp, #8
  400fa2:	23ff      	movs	r3, #255	; 0xff
  400fa4:	f800 3d01 	strb.w	r3, [r0, #-1]!
  400fa8:	2101      	movs	r1, #1
  400faa:	4b03      	ldr	r3, [pc, #12]	; (400fb8 <nRF24_getStatus+0x1c>)
  400fac:	4798      	blx	r3
  400fae:	f89d 0007 	ldrb.w	r0, [sp, #7]
  400fb2:	b003      	add	sp, #12
  400fb4:	f85d fb04 	ldr.w	pc, [sp], #4
  400fb8:	004015dd 	.word	0x004015dd

00400fbc <nRF24_setDataRate>:
  400fbc:	b538      	push	{r3, r4, r5, lr}
  400fbe:	4605      	mov	r5, r0
  400fc0:	2006      	movs	r0, #6
  400fc2:	4b0c      	ldr	r3, [pc, #48]	; (400ff4 <nRF24_setDataRate+0x38>)
  400fc4:	4798      	blx	r3
  400fc6:	f000 04f7 	and.w	r4, r0, #247	; 0xf7
  400fca:	2d01      	cmp	r5, #1
  400fcc:	d00b      	beq.n	400fe6 <nRF24_setDataRate+0x2a>
  400fce:	4621      	mov	r1, r4
  400fd0:	2006      	movs	r0, #6
  400fd2:	4b09      	ldr	r3, [pc, #36]	; (400ff8 <nRF24_setDataRate+0x3c>)
  400fd4:	4798      	blx	r3
  400fd6:	2006      	movs	r0, #6
  400fd8:	4b06      	ldr	r3, [pc, #24]	; (400ff4 <nRF24_setDataRate+0x38>)
  400fda:	4798      	blx	r3
  400fdc:	4284      	cmp	r4, r0
  400fde:	bf14      	ite	ne
  400fe0:	2000      	movne	r0, #0
  400fe2:	2001      	moveq	r0, #1
  400fe4:	bd38      	pop	{r3, r4, r5, pc}
  400fe6:	f044 0408 	orr.w	r4, r4, #8
  400fea:	2241      	movs	r2, #65	; 0x41
  400fec:	4b03      	ldr	r3, [pc, #12]	; (400ffc <nRF24_setDataRate+0x40>)
  400fee:	601a      	str	r2, [r3, #0]
  400ff0:	e7ed      	b.n	400fce <nRF24_setDataRate+0x12>
  400ff2:	bf00      	nop
  400ff4:	00400eb5 	.word	0x00400eb5
  400ff8:	00400f31 	.word	0x00400f31
  400ffc:	204082e8 	.word	0x204082e8

00401000 <getDataRate>:
  401000:	b508      	push	{r3, lr}
  401002:	2006      	movs	r0, #6
  401004:	4b04      	ldr	r3, [pc, #16]	; (401018 <getDataRate+0x18>)
  401006:	4798      	blx	r3
  401008:	f000 0028 	and.w	r0, r0, #40	; 0x28
  40100c:	2808      	cmp	r0, #8
  40100e:	bf14      	ite	ne
  401010:	2000      	movne	r0, #0
  401012:	2001      	moveq	r0, #1
  401014:	bd08      	pop	{r3, pc}
  401016:	bf00      	nop
  401018:	00400eb5 	.word	0x00400eb5

0040101c <nRF24_setCRCLength>:
  40101c:	b510      	push	{r4, lr}
  40101e:	4604      	mov	r4, r0
  401020:	2000      	movs	r0, #0
  401022:	4b07      	ldr	r3, [pc, #28]	; (401040 <nRF24_setCRCLength+0x24>)
  401024:	4798      	blx	r3
  401026:	f000 01f3 	and.w	r1, r0, #243	; 0xf3
  40102a:	b12c      	cbz	r4, 401038 <nRF24_setCRCLength+0x1c>
  40102c:	2c01      	cmp	r4, #1
  40102e:	bf0c      	ite	eq
  401030:	f041 0108 	orreq.w	r1, r1, #8
  401034:	f041 010c 	orrne.w	r1, r1, #12
  401038:	2000      	movs	r0, #0
  40103a:	4b02      	ldr	r3, [pc, #8]	; (401044 <nRF24_setCRCLength+0x28>)
  40103c:	4798      	blx	r3
  40103e:	bd10      	pop	{r4, pc}
  401040:	00400eb5 	.word	0x00400eb5
  401044:	00400f31 	.word	0x00400f31

00401048 <getCRCLength>:
  401048:	b538      	push	{r3, r4, r5, lr}
  40104a:	2000      	movs	r0, #0
  40104c:	4d08      	ldr	r5, [pc, #32]	; (401070 <getCRCLength+0x28>)
  40104e:	47a8      	blx	r5
  401050:	4604      	mov	r4, r0
  401052:	2001      	movs	r0, #1
  401054:	47a8      	blx	r5
  401056:	f014 0f08 	tst.w	r4, #8
  40105a:	d102      	bne.n	401062 <getCRCLength+0x1a>
  40105c:	b908      	cbnz	r0, 401062 <getCRCLength+0x1a>
  40105e:	2000      	movs	r0, #0
  401060:	bd38      	pop	{r3, r4, r5, pc}
  401062:	f004 0404 	and.w	r4, r4, #4
  401066:	2c00      	cmp	r4, #0
  401068:	bf14      	ite	ne
  40106a:	2002      	movne	r0, #2
  40106c:	2001      	moveq	r0, #1
  40106e:	bd38      	pop	{r3, r4, r5, pc}
  401070:	00400eb5 	.word	0x00400eb5

00401074 <nRF24_setPALevel>:
  401074:	b510      	push	{r4, lr}
  401076:	4604      	mov	r4, r0
  401078:	2006      	movs	r0, #6
  40107a:	4b08      	ldr	r3, [pc, #32]	; (40109c <nRF24_setPALevel+0x28>)
  40107c:	4798      	blx	r3
  40107e:	f000 01f8 	and.w	r1, r0, #248	; 0xf8
  401082:	2c03      	cmp	r4, #3
  401084:	d808      	bhi.n	401098 <nRF24_setPALevel+0x24>
  401086:	0064      	lsls	r4, r4, #1
  401088:	3401      	adds	r4, #1
  40108a:	f004 04ff 	and.w	r4, r4, #255	; 0xff
  40108e:	4321      	orrs	r1, r4
  401090:	2006      	movs	r0, #6
  401092:	4b03      	ldr	r3, [pc, #12]	; (4010a0 <nRF24_setPALevel+0x2c>)
  401094:	4798      	blx	r3
  401096:	bd10      	pop	{r4, pc}
  401098:	2407      	movs	r4, #7
  40109a:	e7f8      	b.n	40108e <nRF24_setPALevel+0x1a>
  40109c:	00400eb5 	.word	0x00400eb5
  4010a0:	00400f31 	.word	0x00400f31

004010a4 <nRF24_getPALevel>:
  4010a4:	b508      	push	{r3, lr}
  4010a6:	2006      	movs	r0, #6
  4010a8:	4b02      	ldr	r3, [pc, #8]	; (4010b4 <nRF24_getPALevel+0x10>)
  4010aa:	4798      	blx	r3
  4010ac:	f3c0 0041 	ubfx	r0, r0, #1, #2
  4010b0:	bd08      	pop	{r3, pc}
  4010b2:	bf00      	nop
  4010b4:	00400eb5 	.word	0x00400eb5

004010b8 <printDetails>:
  4010b8:	b570      	push	{r4, r5, r6, lr}
  4010ba:	b084      	sub	sp, #16
  4010bc:	4b31      	ldr	r3, [pc, #196]	; (401184 <printDetails+0xcc>)
  4010be:	6819      	ldr	r1, [r3, #0]
  4010c0:	4b31      	ldr	r3, [pc, #196]	; (401188 <printDetails+0xd0>)
  4010c2:	fba3 3101 	umull	r3, r1, r3, r1
  4010c6:	0c89      	lsrs	r1, r1, #18
  4010c8:	4830      	ldr	r0, [pc, #192]	; (40118c <printDetails+0xd4>)
  4010ca:	4d31      	ldr	r5, [pc, #196]	; (401190 <printDetails+0xd8>)
  4010cc:	47a8      	blx	r5
  4010ce:	4b31      	ldr	r3, [pc, #196]	; (401194 <printDetails+0xdc>)
  4010d0:	4798      	blx	r3
  4010d2:	4601      	mov	r1, r0
  4010d4:	f000 0301 	and.w	r3, r0, #1
  4010d8:	9302      	str	r3, [sp, #8]
  4010da:	f3c0 0340 	ubfx	r3, r0, #1, #1
  4010de:	9301      	str	r3, [sp, #4]
  4010e0:	f3c0 1300 	ubfx	r3, r0, #4, #1
  4010e4:	9300      	str	r3, [sp, #0]
  4010e6:	f3c0 1340 	ubfx	r3, r0, #5, #1
  4010ea:	f3c0 1280 	ubfx	r2, r0, #6, #1
  4010ee:	482a      	ldr	r0, [pc, #168]	; (401198 <printDetails+0xe0>)
  4010f0:	47a8      	blx	r5
  4010f2:	2202      	movs	r2, #2
  4010f4:	210a      	movs	r1, #10
  4010f6:	4829      	ldr	r0, [pc, #164]	; (40119c <printDetails+0xe4>)
  4010f8:	4e29      	ldr	r6, [pc, #164]	; (4011a0 <printDetails+0xe8>)
  4010fa:	47b0      	blx	r6
  4010fc:	2204      	movs	r2, #4
  4010fe:	210c      	movs	r1, #12
  401100:	4828      	ldr	r0, [pc, #160]	; (4011a4 <printDetails+0xec>)
  401102:	4c29      	ldr	r4, [pc, #164]	; (4011a8 <printDetails+0xf0>)
  401104:	47a0      	blx	r4
  401106:	2201      	movs	r2, #1
  401108:	2110      	movs	r1, #16
  40110a:	4828      	ldr	r0, [pc, #160]	; (4011ac <printDetails+0xf4>)
  40110c:	47b0      	blx	r6
  40110e:	2206      	movs	r2, #6
  401110:	2111      	movs	r1, #17
  401112:	4827      	ldr	r0, [pc, #156]	; (4011b0 <printDetails+0xf8>)
  401114:	47a0      	blx	r4
  401116:	2201      	movs	r2, #1
  401118:	2103      	movs	r1, #3
  40111a:	4826      	ldr	r0, [pc, #152]	; (4011b4 <printDetails+0xfc>)
  40111c:	47a0      	blx	r4
  40111e:	2201      	movs	r2, #1
  401120:	4611      	mov	r1, r2
  401122:	4825      	ldr	r0, [pc, #148]	; (4011b8 <printDetails+0x100>)
  401124:	47a0      	blx	r4
  401126:	2201      	movs	r2, #1
  401128:	2102      	movs	r1, #2
  40112a:	4824      	ldr	r0, [pc, #144]	; (4011bc <printDetails+0x104>)
  40112c:	47a0      	blx	r4
  40112e:	2201      	movs	r2, #1
  401130:	2105      	movs	r1, #5
  401132:	4823      	ldr	r0, [pc, #140]	; (4011c0 <printDetails+0x108>)
  401134:	47a0      	blx	r4
  401136:	2201      	movs	r2, #1
  401138:	2106      	movs	r1, #6
  40113a:	4822      	ldr	r0, [pc, #136]	; (4011c4 <printDetails+0x10c>)
  40113c:	47a0      	blx	r4
  40113e:	2201      	movs	r2, #1
  401140:	2100      	movs	r1, #0
  401142:	4821      	ldr	r0, [pc, #132]	; (4011c8 <printDetails+0x110>)
  401144:	47a0      	blx	r4
  401146:	2202      	movs	r2, #2
  401148:	211c      	movs	r1, #28
  40114a:	4820      	ldr	r0, [pc, #128]	; (4011cc <printDetails+0x114>)
  40114c:	47a0      	blx	r4
  40114e:	4b20      	ldr	r3, [pc, #128]	; (4011d0 <printDetails+0x118>)
  401150:	4798      	blx	r3
  401152:	4b20      	ldr	r3, [pc, #128]	; (4011d4 <printDetails+0x11c>)
  401154:	f853 1020 	ldr.w	r1, [r3, r0, lsl #2]
  401158:	481f      	ldr	r0, [pc, #124]	; (4011d8 <printDetails+0x120>)
  40115a:	47a8      	blx	r5
  40115c:	491f      	ldr	r1, [pc, #124]	; (4011dc <printDetails+0x124>)
  40115e:	4820      	ldr	r0, [pc, #128]	; (4011e0 <printDetails+0x128>)
  401160:	47a8      	blx	r5
  401162:	4b20      	ldr	r3, [pc, #128]	; (4011e4 <printDetails+0x12c>)
  401164:	4798      	blx	r3
  401166:	4b20      	ldr	r3, [pc, #128]	; (4011e8 <printDetails+0x130>)
  401168:	f853 1020 	ldr.w	r1, [r3, r0, lsl #2]
  40116c:	481f      	ldr	r0, [pc, #124]	; (4011ec <printDetails+0x134>)
  40116e:	47a8      	blx	r5
  401170:	4b1f      	ldr	r3, [pc, #124]	; (4011f0 <printDetails+0x138>)
  401172:	4798      	blx	r3
  401174:	4b1f      	ldr	r3, [pc, #124]	; (4011f4 <printDetails+0x13c>)
  401176:	f853 1020 	ldr.w	r1, [r3, r0, lsl #2]
  40117a:	481f      	ldr	r0, [pc, #124]	; (4011f8 <printDetails+0x140>)
  40117c:	47a8      	blx	r5
  40117e:	b004      	add	sp, #16
  401180:	bd70      	pop	{r4, r5, r6, pc}
  401182:	bf00      	nop
  401184:	20400020 	.word	0x20400020
  401188:	431bde83 	.word	0x431bde83
  40118c:	00405b84 	.word	0x00405b84
  401190:	00402dd5 	.word	0x00402dd5
  401194:	00400f9d 	.word	0x00400f9d
  401198:	00405b9c 	.word	0x00405b9c
  40119c:	00405be4 	.word	0x00405be4
  4011a0:	00400d99 	.word	0x00400d99
  4011a4:	00405bf4 	.word	0x00405bf4
  4011a8:	00400edd 	.word	0x00400edd
  4011ac:	00405c04 	.word	0x00405c04
  4011b0:	00405c10 	.word	0x00405c10
  4011b4:	00405c1c 	.word	0x00405c1c
  4011b8:	00405c28 	.word	0x00405c28
  4011bc:	00405c30 	.word	0x00405c30
  4011c0:	00405c3c 	.word	0x00405c3c
  4011c4:	00405c44 	.word	0x00405c44
  4011c8:	00405c50 	.word	0x00405c50
  4011cc:	00405c58 	.word	0x00405c58
  4011d0:	00401001 	.word	0x00401001
  4011d4:	00405d0c 	.word	0x00405d0c
  4011d8:	00405c68 	.word	0x00405c68
  4011dc:	00405d18 	.word	0x00405d18
  4011e0:	00405c7c 	.word	0x00405c7c
  4011e4:	00401049 	.word	0x00401049
  4011e8:	00405ce8 	.word	0x00405ce8
  4011ec:	00405c8c 	.word	0x00405c8c
  4011f0:	004010a5 	.word	0x004010a5
  4011f4:	00405d44 	.word	0x00405d44
  4011f8:	00405ca0 	.word	0x00405ca0

004011fc <nRF24_setAddressWidth>:
  4011fc:	b510      	push	{r4, lr}
  4011fe:	3802      	subs	r0, #2
  401200:	f010 00ff 	ands.w	r0, r0, #255	; 0xff
  401204:	d107      	bne.n	401216 <nRF24_setAddressWidth+0x1a>
  401206:	2100      	movs	r1, #0
  401208:	2003      	movs	r0, #3
  40120a:	4b08      	ldr	r3, [pc, #32]	; (40122c <nRF24_setAddressWidth+0x30>)
  40120c:	4798      	blx	r3
  40120e:	2202      	movs	r2, #2
  401210:	4b07      	ldr	r3, [pc, #28]	; (401230 <nRF24_setAddressWidth+0x34>)
  401212:	701a      	strb	r2, [r3, #0]
  401214:	bd10      	pop	{r4, pc}
  401216:	f000 0403 	and.w	r4, r0, #3
  40121a:	4621      	mov	r1, r4
  40121c:	2003      	movs	r0, #3
  40121e:	4b03      	ldr	r3, [pc, #12]	; (40122c <nRF24_setAddressWidth+0x30>)
  401220:	4798      	blx	r3
  401222:	1ca0      	adds	r0, r4, #2
  401224:	4b02      	ldr	r3, [pc, #8]	; (401230 <nRF24_setAddressWidth+0x34>)
  401226:	7018      	strb	r0, [r3, #0]
  401228:	bd10      	pop	{r4, pc}
  40122a:	bf00      	nop
  40122c:	00400f31 	.word	0x00400f31
  401230:	204082dc 	.word	0x204082dc

00401234 <toggle_features>:
  401234:	b500      	push	{lr}
  401236:	b083      	sub	sp, #12
  401238:	4b05      	ldr	r3, [pc, #20]	; (401250 <toggle_features+0x1c>)
  40123a:	881b      	ldrh	r3, [r3, #0]
  40123c:	a802      	add	r0, sp, #8
  40123e:	f820 3d04 	strh.w	r3, [r0, #-4]!
  401242:	2102      	movs	r1, #2
  401244:	4b03      	ldr	r3, [pc, #12]	; (401254 <toggle_features+0x20>)
  401246:	4798      	blx	r3
  401248:	b003      	add	sp, #12
  40124a:	f85d fb04 	ldr.w	pc, [sp], #4
  40124e:	bf00      	nop
  401250:	00405b80 	.word	0x00405b80
  401254:	004015dd 	.word	0x004015dd

00401258 <nRF24_setChannel>:
  401258:	b508      	push	{r3, lr}
  40125a:	287d      	cmp	r0, #125	; 0x7d
  40125c:	bf8c      	ite	hi
  40125e:	217d      	movhi	r1, #125	; 0x7d
  401260:	4601      	movls	r1, r0
  401262:	2005      	movs	r0, #5
  401264:	4b01      	ldr	r3, [pc, #4]	; (40126c <nRF24_setChannel+0x14>)
  401266:	4798      	blx	r3
  401268:	bd08      	pop	{r3, pc}
  40126a:	bf00      	nop
  40126c:	00400f31 	.word	0x00400f31

00401270 <nRF24_powerUp>:
  401270:	b508      	push	{r3, lr}
  401272:	2000      	movs	r0, #0
  401274:	4b07      	ldr	r3, [pc, #28]	; (401294 <nRF24_powerUp+0x24>)
  401276:	4798      	blx	r3
  401278:	f010 0f02 	tst.w	r0, #2
  40127c:	d000      	beq.n	401280 <nRF24_powerUp+0x10>
  40127e:	bd08      	pop	{r3, pc}
  401280:	f040 0102 	orr.w	r1, r0, #2
  401284:	b2c9      	uxtb	r1, r1
  401286:	2000      	movs	r0, #0
  401288:	4b03      	ldr	r3, [pc, #12]	; (401298 <nRF24_powerUp+0x28>)
  40128a:	4798      	blx	r3
  40128c:	4803      	ldr	r0, [pc, #12]	; (40129c <nRF24_powerUp+0x2c>)
  40128e:	4b04      	ldr	r3, [pc, #16]	; (4012a0 <nRF24_powerUp+0x30>)
  401290:	4798      	blx	r3
  401292:	e7f4      	b.n	40127e <nRF24_powerUp+0xe>
  401294:	00400eb5 	.word	0x00400eb5
  401298:	00400f31 	.word	0x00400f31
  40129c:	0003dbc2 	.word	0x0003dbc2
  4012a0:	20400001 	.word	0x20400001

004012a4 <nRF24_stopListening>:
  4012a4:	b538      	push	{r3, r4, r5, lr}
  4012a6:	f44f 7200 	mov.w	r2, #512	; 0x200
  4012aa:	4b21      	ldr	r3, [pc, #132]	; (401330 <nRF24_stopListening+0x8c>)
  4012ac:	635a      	str	r2, [r3, #52]	; 0x34
  4012ae:	4b21      	ldr	r3, [pc, #132]	; (401334 <nRF24_stopListening+0x90>)
  4012b0:	6819      	ldr	r1, [r3, #0]
  4012b2:	2900      	cmp	r1, #0
  4012b4:	d034      	beq.n	401320 <nRF24_stopListening+0x7c>
  4012b6:	4a20      	ldr	r2, [pc, #128]	; (401338 <nRF24_stopListening+0x94>)
  4012b8:	2300      	movs	r3, #0
  4012ba:	4c20      	ldr	r4, [pc, #128]	; (40133c <nRF24_stopListening+0x98>)
  4012bc:	2500      	movs	r5, #0
  4012be:	4820      	ldr	r0, [pc, #128]	; (401340 <nRF24_stopListening+0x9c>)
  4012c0:	fbe0 4501 	umlal	r4, r5, r0, r1
  4012c4:	4620      	mov	r0, r4
  4012c6:	4629      	mov	r1, r5
  4012c8:	4c1e      	ldr	r4, [pc, #120]	; (401344 <nRF24_stopListening+0xa0>)
  4012ca:	47a0      	blx	r4
  4012cc:	4b1e      	ldr	r3, [pc, #120]	; (401348 <nRF24_stopListening+0xa4>)
  4012ce:	4798      	blx	r3
  4012d0:	201d      	movs	r0, #29
  4012d2:	4b1e      	ldr	r3, [pc, #120]	; (40134c <nRF24_stopListening+0xa8>)
  4012d4:	4798      	blx	r3
  4012d6:	f010 0f02 	tst.w	r0, #2
  4012da:	d011      	beq.n	401300 <nRF24_stopListening+0x5c>
  4012dc:	4b15      	ldr	r3, [pc, #84]	; (401334 <nRF24_stopListening+0x90>)
  4012de:	6819      	ldr	r1, [r3, #0]
  4012e0:	b311      	cbz	r1, 401328 <nRF24_stopListening+0x84>
  4012e2:	4a15      	ldr	r2, [pc, #84]	; (401338 <nRF24_stopListening+0x94>)
  4012e4:	2300      	movs	r3, #0
  4012e6:	4c15      	ldr	r4, [pc, #84]	; (40133c <nRF24_stopListening+0x98>)
  4012e8:	2500      	movs	r5, #0
  4012ea:	4815      	ldr	r0, [pc, #84]	; (401340 <nRF24_stopListening+0x9c>)
  4012ec:	fbe0 4501 	umlal	r4, r5, r0, r1
  4012f0:	4620      	mov	r0, r4
  4012f2:	4629      	mov	r1, r5
  4012f4:	4c13      	ldr	r4, [pc, #76]	; (401344 <nRF24_stopListening+0xa0>)
  4012f6:	47a0      	blx	r4
  4012f8:	4b13      	ldr	r3, [pc, #76]	; (401348 <nRF24_stopListening+0xa4>)
  4012fa:	4798      	blx	r3
  4012fc:	4b14      	ldr	r3, [pc, #80]	; (401350 <nRF24_stopListening+0xac>)
  4012fe:	4798      	blx	r3
  401300:	2000      	movs	r0, #0
  401302:	4d12      	ldr	r5, [pc, #72]	; (40134c <nRF24_stopListening+0xa8>)
  401304:	47a8      	blx	r5
  401306:	f000 01fe 	and.w	r1, r0, #254	; 0xfe
  40130a:	2000      	movs	r0, #0
  40130c:	4c11      	ldr	r4, [pc, #68]	; (401354 <nRF24_stopListening+0xb0>)
  40130e:	47a0      	blx	r4
  401310:	2002      	movs	r0, #2
  401312:	47a8      	blx	r5
  401314:	f040 0101 	orr.w	r1, r0, #1
  401318:	b2c9      	uxtb	r1, r1
  40131a:	2002      	movs	r0, #2
  40131c:	47a0      	blx	r4
  40131e:	bd38      	pop	{r3, r4, r5, pc}
  401320:	2033      	movs	r0, #51	; 0x33
  401322:	4b09      	ldr	r3, [pc, #36]	; (401348 <nRF24_stopListening+0xa4>)
  401324:	4798      	blx	r3
  401326:	e7d3      	b.n	4012d0 <nRF24_stopListening+0x2c>
  401328:	2033      	movs	r0, #51	; 0x33
  40132a:	4b07      	ldr	r3, [pc, #28]	; (401348 <nRF24_stopListening+0xa4>)
  40132c:	4798      	blx	r3
  40132e:	e7e5      	b.n	4012fc <nRF24_stopListening+0x58>
  401330:	400e1200 	.word	0x400e1200
  401334:	204082e8 	.word	0x204082e8
  401338:	005a83e0 	.word	0x005a83e0
  40133c:	005a83df 	.word	0x005a83df
  401340:	11e1a300 	.word	0x11e1a300
  401344:	00402a75 	.word	0x00402a75
  401348:	20400001 	.word	0x20400001
  40134c:	00400eb5 	.word	0x00400eb5
  401350:	00400f7d 	.word	0x00400f7d
  401354:	00400f31 	.word	0x00400f31

00401358 <nRF24_begin>:
  401358:	b538      	push	{r3, r4, r5, lr}
  40135a:	4b1a      	ldr	r3, [pc, #104]	; (4013c4 <nRF24_begin+0x6c>)
  40135c:	f44f 7200 	mov.w	r2, #512	; 0x200
  401360:	611a      	str	r2, [r3, #16]
  401362:	f8c3 20a0 	str.w	r2, [r3, #160]	; 0xa0
  401366:	635a      	str	r2, [r3, #52]	; 0x34
  401368:	210c      	movs	r1, #12
  40136a:	2000      	movs	r0, #0
  40136c:	4c16      	ldr	r4, [pc, #88]	; (4013c8 <nRF24_begin+0x70>)
  40136e:	47a0      	blx	r4
  401370:	215f      	movs	r1, #95	; 0x5f
  401372:	2004      	movs	r0, #4
  401374:	47a0      	blx	r4
  401376:	2000      	movs	r0, #0
  401378:	4b14      	ldr	r3, [pc, #80]	; (4013cc <nRF24_begin+0x74>)
  40137a:	4798      	blx	r3
  40137c:	2002      	movs	r0, #2
  40137e:	4b14      	ldr	r3, [pc, #80]	; (4013d0 <nRF24_begin+0x78>)
  401380:	4798      	blx	r3
  401382:	4b14      	ldr	r3, [pc, #80]	; (4013d4 <nRF24_begin+0x7c>)
  401384:	4798      	blx	r3
  401386:	2170      	movs	r1, #112	; 0x70
  401388:	2007      	movs	r0, #7
  40138a:	47a0      	blx	r4
  40138c:	204c      	movs	r0, #76	; 0x4c
  40138e:	4b12      	ldr	r3, [pc, #72]	; (4013d8 <nRF24_begin+0x80>)
  401390:	4798      	blx	r3
  401392:	2004      	movs	r0, #4
  401394:	4b11      	ldr	r3, [pc, #68]	; (4013dc <nRF24_begin+0x84>)
  401396:	4798      	blx	r3
  401398:	4b11      	ldr	r3, [pc, #68]	; (4013e0 <nRF24_begin+0x88>)
  40139a:	4798      	blx	r3
  40139c:	4b11      	ldr	r3, [pc, #68]	; (4013e4 <nRF24_begin+0x8c>)
  40139e:	4798      	blx	r3
  4013a0:	4b11      	ldr	r3, [pc, #68]	; (4013e8 <nRF24_begin+0x90>)
  4013a2:	4798      	blx	r3
  4013a4:	2000      	movs	r0, #0
  4013a6:	4d11      	ldr	r5, [pc, #68]	; (4013ec <nRF24_begin+0x94>)
  4013a8:	47a8      	blx	r5
  4013aa:	f000 01fe 	and.w	r1, r0, #254	; 0xfe
  4013ae:	2000      	movs	r0, #0
  4013b0:	47a0      	blx	r4
  4013b2:	2006      	movs	r0, #6
  4013b4:	47a8      	blx	r5
  4013b6:	3801      	subs	r0, #1
  4013b8:	b2c0      	uxtb	r0, r0
  4013ba:	28fd      	cmp	r0, #253	; 0xfd
  4013bc:	bf8c      	ite	hi
  4013be:	2000      	movhi	r0, #0
  4013c0:	2001      	movls	r0, #1
  4013c2:	bd38      	pop	{r3, r4, r5, pc}
  4013c4:	400e1200 	.word	0x400e1200
  4013c8:	00400f31 	.word	0x00400f31
  4013cc:	00400fbd 	.word	0x00400fbd
  4013d0:	0040101d 	.word	0x0040101d
  4013d4:	00401235 	.word	0x00401235
  4013d8:	00401259 	.word	0x00401259
  4013dc:	004011fd 	.word	0x004011fd
  4013e0:	00400f5d 	.word	0x00400f5d
  4013e4:	00400f7d 	.word	0x00400f7d
  4013e8:	00401271 	.word	0x00401271
  4013ec:	00400eb5 	.word	0x00400eb5

004013f0 <nRF24_openWritingPipe>:
  4013f0:	b570      	push	{r4, r5, r6, lr}
  4013f2:	b082      	sub	sp, #8
  4013f4:	ac02      	add	r4, sp, #8
  4013f6:	e964 0102 	strd	r0, r1, [r4, #-8]!
  4013fa:	4e08      	ldr	r6, [pc, #32]	; (40141c <nRF24_openWritingPipe+0x2c>)
  4013fc:	7832      	ldrb	r2, [r6, #0]
  4013fe:	4621      	mov	r1, r4
  401400:	200a      	movs	r0, #10
  401402:	4d07      	ldr	r5, [pc, #28]	; (401420 <nRF24_openWritingPipe+0x30>)
  401404:	47a8      	blx	r5
  401406:	7832      	ldrb	r2, [r6, #0]
  401408:	4621      	mov	r1, r4
  40140a:	2010      	movs	r0, #16
  40140c:	47a8      	blx	r5
  40140e:	4b05      	ldr	r3, [pc, #20]	; (401424 <nRF24_openWritingPipe+0x34>)
  401410:	7819      	ldrb	r1, [r3, #0]
  401412:	2011      	movs	r0, #17
  401414:	4b04      	ldr	r3, [pc, #16]	; (401428 <nRF24_openWritingPipe+0x38>)
  401416:	4798      	blx	r3
  401418:	b002      	add	sp, #8
  40141a:	bd70      	pop	{r4, r5, r6, pc}
  40141c:	204082dc 	.word	0x204082dc
  401420:	00400e69 	.word	0x00400e69
  401424:	2040001e 	.word	0x2040001e
  401428:	00400f31 	.word	0x00400f31

0040142c <nRF24_write>:
  40142c:	b5f8      	push	{r3, r4, r5, r6, r7, lr}
  40142e:	af00      	add	r7, sp, #0
  401430:	466e      	mov	r6, sp
  401432:	4b24      	ldr	r3, [pc, #144]	; (4014c4 <nRF24_write+0x98>)
  401434:	781b      	ldrb	r3, [r3, #0]
  401436:	bb53      	cbnz	r3, 40148e <nRF24_write+0x62>
  401438:	4b23      	ldr	r3, [pc, #140]	; (4014c8 <nRF24_write+0x9c>)
  40143a:	781b      	ldrb	r3, [r3, #0]
  40143c:	1a5b      	subs	r3, r3, r1
  40143e:	b2db      	uxtb	r3, r3
  401440:	3101      	adds	r1, #1
  401442:	4419      	add	r1, r3
  401444:	b2c9      	uxtb	r1, r1
  401446:	1dcb      	adds	r3, r1, #7
  401448:	f023 0307 	bic.w	r3, r3, #7
  40144c:	ebad 0d03 	sub.w	sp, sp, r3
  401450:	46ee      	mov	lr, sp
  401452:	23a0      	movs	r3, #160	; 0xa0
  401454:	f88d 3000 	strb.w	r3, [sp]
  401458:	2901      	cmp	r1, #1
  40145a:	d90b      	bls.n	401474 <nRF24_write+0x48>
  40145c:	1e43      	subs	r3, r0, #1
  40145e:	f10d 0201 	add.w	r2, sp, #1
  401462:	1e8d      	subs	r5, r1, #2
  401464:	fa50 f585 	uxtab	r5, r0, r5
  401468:	f813 4f01 	ldrb.w	r4, [r3, #1]!
  40146c:	f802 4b01 	strb.w	r4, [r2], #1
  401470:	42ab      	cmp	r3, r5
  401472:	d1f9      	bne.n	401468 <nRF24_write+0x3c>
  401474:	4670      	mov	r0, lr
  401476:	4b15      	ldr	r3, [pc, #84]	; (4014cc <nRF24_write+0xa0>)
  401478:	4798      	blx	r3
  40147a:	46b5      	mov	sp, r6
  40147c:	f44f 7200 	mov.w	r2, #512	; 0x200
  401480:	4b13      	ldr	r3, [pc, #76]	; (4014d0 <nRF24_write+0xa4>)
  401482:	631a      	str	r2, [r3, #48]	; 0x30
  401484:	4c13      	ldr	r4, [pc, #76]	; (4014d4 <nRF24_write+0xa8>)
  401486:	f241 36c2 	movw	r6, #5058	; 0x13c2
  40148a:	4d13      	ldr	r5, [pc, #76]	; (4014d8 <nRF24_write+0xac>)
  40148c:	e003      	b.n	401496 <nRF24_write+0x6a>
  40148e:	2300      	movs	r3, #0
  401490:	e7d6      	b.n	401440 <nRF24_write+0x14>
  401492:	4630      	mov	r0, r6
  401494:	47a8      	blx	r5
  401496:	47a0      	blx	r4
  401498:	f010 0f30 	tst.w	r0, #48	; 0x30
  40149c:	d0f9      	beq.n	401492 <nRF24_write+0x66>
  40149e:	f44f 7200 	mov.w	r2, #512	; 0x200
  4014a2:	4b0b      	ldr	r3, [pc, #44]	; (4014d0 <nRF24_write+0xa4>)
  4014a4:	635a      	str	r2, [r3, #52]	; 0x34
  4014a6:	2170      	movs	r1, #112	; 0x70
  4014a8:	2007      	movs	r0, #7
  4014aa:	4b0c      	ldr	r3, [pc, #48]	; (4014dc <nRF24_write+0xb0>)
  4014ac:	4798      	blx	r3
  4014ae:	f010 0f10 	tst.w	r0, #16
  4014b2:	d102      	bne.n	4014ba <nRF24_write+0x8e>
  4014b4:	2001      	movs	r0, #1
  4014b6:	46bd      	mov	sp, r7
  4014b8:	bdf8      	pop	{r3, r4, r5, r6, r7, pc}
  4014ba:	4b09      	ldr	r3, [pc, #36]	; (4014e0 <nRF24_write+0xb4>)
  4014bc:	4798      	blx	r3
  4014be:	2000      	movs	r0, #0
  4014c0:	e7f9      	b.n	4014b6 <nRF24_write+0x8a>
  4014c2:	bf00      	nop
  4014c4:	2040722c 	.word	0x2040722c
  4014c8:	2040001e 	.word	0x2040001e
  4014cc:	004015dd 	.word	0x004015dd
  4014d0:	400e1200 	.word	0x400e1200
  4014d4:	00400f9d 	.word	0x00400f9d
  4014d8:	20400001 	.word	0x20400001
  4014dc:	00400f31 	.word	0x00400f31
  4014e0:	00400f7d 	.word	0x00400f7d

004014e4 <spi_master_initialize>:
  4014e4:	b570      	push	{r4, r5, r6, lr}
  4014e6:	4b2c      	ldr	r3, [pc, #176]	; (401598 <spi_master_initialize+0xb4>)
  4014e8:	f44f 1200 	mov.w	r2, #2097152	; 0x200000
  4014ec:	f8c3 2180 	str.w	r2, [r3, #384]	; 0x180
  4014f0:	f8c3 2080 	str.w	r2, [r3, #128]	; 0x80
  4014f4:	f3bf 8f4f 	dsb	sy
  4014f8:	f3bf 8f6f 	isb	sy
  4014fc:	2500      	movs	r5, #0
  4014fe:	f883 5315 	strb.w	r5, [r3, #789]	; 0x315
  401502:	601a      	str	r2, [r3, #0]
  401504:	4e25      	ldr	r6, [pc, #148]	; (40159c <spi_master_initialize+0xb8>)
  401506:	6831      	ldr	r1, [r6, #0]
  401508:	4825      	ldr	r0, [pc, #148]	; (4015a0 <spi_master_initialize+0xbc>)
  40150a:	4b26      	ldr	r3, [pc, #152]	; (4015a4 <spi_master_initialize+0xc0>)
  40150c:	4798      	blx	r3
  40150e:	4826      	ldr	r0, [pc, #152]	; (4015a8 <spi_master_initialize+0xc4>)
  401510:	4b26      	ldr	r3, [pc, #152]	; (4015ac <spi_master_initialize+0xc8>)
  401512:	4798      	blx	r3
  401514:	4c26      	ldr	r4, [pc, #152]	; (4015b0 <spi_master_initialize+0xcc>)
  401516:	4620      	mov	r0, r4
  401518:	4b26      	ldr	r3, [pc, #152]	; (4015b4 <spi_master_initialize+0xd0>)
  40151a:	4798      	blx	r3
  40151c:	2302      	movs	r3, #2
  40151e:	6023      	str	r3, [r4, #0]
  401520:	2380      	movs	r3, #128	; 0x80
  401522:	6023      	str	r3, [r4, #0]
  401524:	f04f 7380 	mov.w	r3, #16777216	; 0x1000000
  401528:	6023      	str	r3, [r4, #0]
  40152a:	6863      	ldr	r3, [r4, #4]
  40152c:	f043 0301 	orr.w	r3, r3, #1
  401530:	6063      	str	r3, [r4, #4]
  401532:	6863      	ldr	r3, [r4, #4]
  401534:	f043 0310 	orr.w	r3, r3, #16
  401538:	6063      	str	r3, [r4, #4]
  40153a:	210d      	movs	r1, #13
  40153c:	4620      	mov	r0, r4
  40153e:	4b1e      	ldr	r3, [pc, #120]	; (4015b8 <spi_master_initialize+0xd4>)
  401540:	4798      	blx	r3
  401542:	462a      	mov	r2, r5
  401544:	2101      	movs	r1, #1
  401546:	4620      	mov	r0, r4
  401548:	4b1c      	ldr	r3, [pc, #112]	; (4015bc <spi_master_initialize+0xd8>)
  40154a:	4798      	blx	r3
  40154c:	2105      	movs	r1, #5
  40154e:	4620      	mov	r0, r4
  401550:	4b1b      	ldr	r3, [pc, #108]	; (4015c0 <spi_master_initialize+0xdc>)
  401552:	4798      	blx	r3
  401554:	462a      	mov	r2, r5
  401556:	2101      	movs	r1, #1
  401558:	4620      	mov	r0, r4
  40155a:	4b1a      	ldr	r3, [pc, #104]	; (4015c4 <spi_master_initialize+0xe0>)
  40155c:	4798      	blx	r3
  40155e:	2201      	movs	r2, #1
  401560:	4611      	mov	r1, r2
  401562:	4620      	mov	r0, r4
  401564:	4b18      	ldr	r3, [pc, #96]	; (4015c8 <spi_master_initialize+0xe4>)
  401566:	4798      	blx	r3
  401568:	462a      	mov	r2, r5
  40156a:	2101      	movs	r1, #1
  40156c:	4620      	mov	r0, r4
  40156e:	4b17      	ldr	r3, [pc, #92]	; (4015cc <spi_master_initialize+0xe8>)
  401570:	4798      	blx	r3
  401572:	6833      	ldr	r3, [r6, #0]
  401574:	4a16      	ldr	r2, [pc, #88]	; (4015d0 <spi_master_initialize+0xec>)
  401576:	fbb2 f2f3 	udiv	r2, r2, r3
  40157a:	b2d2      	uxtb	r2, r2
  40157c:	2101      	movs	r1, #1
  40157e:	4620      	mov	r0, r4
  401580:	4b14      	ldr	r3, [pc, #80]	; (4015d4 <spi_master_initialize+0xf0>)
  401582:	4798      	blx	r3
  401584:	2308      	movs	r3, #8
  401586:	2220      	movs	r2, #32
  401588:	2101      	movs	r1, #1
  40158a:	4620      	mov	r0, r4
  40158c:	4d12      	ldr	r5, [pc, #72]	; (4015d8 <spi_master_initialize+0xf4>)
  40158e:	47a8      	blx	r5
  401590:	2301      	movs	r3, #1
  401592:	6023      	str	r3, [r4, #0]
  401594:	bd70      	pop	{r4, r5, r6, pc}
  401596:	bf00      	nop
  401598:	e000e100 	.word	0xe000e100
  40159c:	20400020 	.word	0x20400020
  4015a0:	00405d54 	.word	0x00405d54
  4015a4:	00402dd5 	.word	0x00402dd5
  4015a8:	00405d74 	.word	0x00405d74
  4015ac:	00403069 	.word	0x00403069
  4015b0:	40008000 	.word	0x40008000
  4015b4:	0040078d 	.word	0x0040078d
  4015b8:	004007b9 	.word	0x004007b9
  4015bc:	00400881 	.word	0x00400881
  4015c0:	004007cf 	.word	0x004007cf
  4015c4:	00400845 	.word	0x00400845
  4015c8:	00400863 	.word	0x00400863
  4015cc:	004008c7 	.word	0x004008c7
  4015d0:	08f0d180 	.word	0x08f0d180
  4015d4:	004008db 	.word	0x004008db
  4015d8:	00400903 	.word	0x00400903

004015dc <spi_master_transfer>:
  4015dc:	e92d 43f0 	stmdb	sp!, {r4, r5, r6, r7, r8, r9, lr}
  4015e0:	b083      	sub	sp, #12
  4015e2:	b1d9      	cbz	r1, 40161c <spi_master_transfer+0x40>
  4015e4:	4688      	mov	r8, r1
  4015e6:	4605      	mov	r5, r0
  4015e8:	4480      	add	r8, r0
  4015ea:	4c0f      	ldr	r4, [pc, #60]	; (401628 <spi_master_transfer+0x4c>)
  4015ec:	f8df 9048 	ldr.w	r9, [pc, #72]	; 401638 <spi_master_transfer+0x5c>
  4015f0:	4e0e      	ldr	r6, [pc, #56]	; (40162c <spi_master_transfer+0x50>)
  4015f2:	462f      	mov	r7, r5
  4015f4:	2300      	movs	r3, #0
  4015f6:	461a      	mov	r2, r3
  4015f8:	7829      	ldrb	r1, [r5, #0]
  4015fa:	4620      	mov	r0, r4
  4015fc:	47c8      	blx	r9
  4015fe:	6923      	ldr	r3, [r4, #16]
  401600:	f013 0f01 	tst.w	r3, #1
  401604:	d0fb      	beq.n	4015fe <spi_master_transfer+0x22>
  401606:	f10d 0207 	add.w	r2, sp, #7
  40160a:	4631      	mov	r1, r6
  40160c:	4620      	mov	r0, r4
  40160e:	4b08      	ldr	r3, [pc, #32]	; (401630 <spi_master_transfer+0x54>)
  401610:	4798      	blx	r3
  401612:	8833      	ldrh	r3, [r6, #0]
  401614:	703b      	strb	r3, [r7, #0]
  401616:	3501      	adds	r5, #1
  401618:	4545      	cmp	r5, r8
  40161a:	d1ea      	bne.n	4015f2 <spi_master_transfer+0x16>
  40161c:	2066      	movs	r0, #102	; 0x66
  40161e:	4b05      	ldr	r3, [pc, #20]	; (401634 <spi_master_transfer+0x58>)
  401620:	4798      	blx	r3
  401622:	b003      	add	sp, #12
  401624:	e8bd 83f0 	ldmia.w	sp!, {r4, r5, r6, r7, r8, r9, pc}
  401628:	40008000 	.word	0x40008000
  40162c:	2040722e 	.word	0x2040722e
  401630:	004007e1 	.word	0x004007e1
  401634:	20400001 	.word	0x20400001
  401638:	00400811 	.word	0x00400811

0040163c <_write>:
  40163c:	3801      	subs	r0, #1
  40163e:	2802      	cmp	r0, #2
  401640:	d815      	bhi.n	40166e <_write+0x32>
  401642:	e92d 41f0 	stmdb	sp!, {r4, r5, r6, r7, r8, lr}
  401646:	460e      	mov	r6, r1
  401648:	4614      	mov	r4, r2
  40164a:	b19a      	cbz	r2, 401674 <_write+0x38>
  40164c:	460d      	mov	r5, r1
  40164e:	f8df 8038 	ldr.w	r8, [pc, #56]	; 401688 <_write+0x4c>
  401652:	4f0c      	ldr	r7, [pc, #48]	; (401684 <_write+0x48>)
  401654:	f8d8 0000 	ldr.w	r0, [r8]
  401658:	f815 1b01 	ldrb.w	r1, [r5], #1
  40165c:	683b      	ldr	r3, [r7, #0]
  40165e:	4798      	blx	r3
  401660:	2800      	cmp	r0, #0
  401662:	db0a      	blt.n	40167a <_write+0x3e>
  401664:	1ba8      	subs	r0, r5, r6
  401666:	3c01      	subs	r4, #1
  401668:	d1f4      	bne.n	401654 <_write+0x18>
  40166a:	e8bd 81f0 	ldmia.w	sp!, {r4, r5, r6, r7, r8, pc}
  40166e:	f04f 30ff 	mov.w	r0, #4294967295
  401672:	4770      	bx	lr
  401674:	4610      	mov	r0, r2
  401676:	e8bd 81f0 	ldmia.w	sp!, {r4, r5, r6, r7, r8, pc}
  40167a:	f04f 30ff 	mov.w	r0, #4294967295
  40167e:	e8bd 81f0 	ldmia.w	sp!, {r4, r5, r6, r7, r8, pc}
  401682:	bf00      	nop
  401684:	204082ec 	.word	0x204082ec
  401688:	204082f0 	.word	0x204082f0

0040168c <ethernet_phy_set_link>:
 *
 * Return GMAC_OK if successfully, GMAC_TIMEOUT if timeout.
 */
uint8_t ethernet_phy_set_link(Gmac *p_gmac, uint8_t uc_phy_addr,
		uint8_t uc_apply_setting_flag)
{
  40168c:	b5f0      	push	{r4, r5, r6, r7, lr}
  40168e:	b083      	sub	sp, #12
  401690:	4604      	mov	r4, r0
  401692:	460f      	mov	r7, r1
  401694:	4616      	mov	r6, r2
		p_gmac->GMAC_NCR |= GMAC_NCR_MPE;
  401696:	6803      	ldr	r3, [r0, #0]
  401698:	f043 0310 	orr.w	r3, r3, #16
  40169c:	6003      	str	r3, [r0, #0]

	gmac_enable_management(p_gmac, true);

	uc_phy_address = uc_phy_addr;

	uc_rc = gmac_phy_read(p_gmac, uc_phy_address, GMII_BMSR, &ul_stat1);
  40169e:	ab01      	add	r3, sp, #4
  4016a0:	2201      	movs	r2, #1
  4016a2:	4d36      	ldr	r5, [pc, #216]	; (40177c <ethernet_phy_set_link+0xf0>)
  4016a4:	47a8      	blx	r5
	if (uc_rc != GMAC_OK) {
  4016a6:	b958      	cbnz	r0, 4016c0 <ethernet_phy_set_link+0x34>
		gmac_enable_management(p_gmac, false);

		return uc_rc;
	}

	if ((ul_stat1 & GMII_LINK_STATUS) == 0) {
  4016a8:	9b01      	ldr	r3, [sp, #4]
  4016aa:	f013 0f04 	tst.w	r3, #4
  4016ae:	d10d      	bne.n	4016cc <ethernet_phy_set_link+0x40>
		p_gmac->GMAC_NCR &= ~GMAC_NCR_MPE;
  4016b0:	6823      	ldr	r3, [r4, #0]
  4016b2:	f023 0310 	bic.w	r3, r3, #16
  4016b6:	6023      	str	r3, [r4, #0]
		/* Disable PHY management and start the GMAC transfer */
		gmac_enable_management(p_gmac, false);

		return GMAC_INVALID;
  4016b8:	23ff      	movs	r3, #255	; 0xff
	gmac_enable_full_duplex(p_gmac, uc_fd);

	/* Start the GMAC transfers */
	gmac_enable_management(p_gmac, false);
	return uc_rc;
}
  4016ba:	4618      	mov	r0, r3
  4016bc:	b003      	add	sp, #12
  4016be:	bdf0      	pop	{r4, r5, r6, r7, pc}
  4016c0:	4603      	mov	r3, r0
  4016c2:	6822      	ldr	r2, [r4, #0]
  4016c4:	f022 0210 	bic.w	r2, r2, #16
  4016c8:	6022      	str	r2, [r4, #0]
		return uc_rc;
  4016ca:	e7f6      	b.n	4016ba <ethernet_phy_set_link+0x2e>
	if (uc_apply_setting_flag == 0) {
  4016cc:	b92e      	cbnz	r6, 4016da <ethernet_phy_set_link+0x4e>
  4016ce:	6823      	ldr	r3, [r4, #0]
  4016d0:	f023 0310 	bic.w	r3, r3, #16
  4016d4:	6023      	str	r3, [r4, #0]
		return uc_rc;
  4016d6:	4633      	mov	r3, r6
  4016d8:	e7ef      	b.n	4016ba <ethernet_phy_set_link+0x2e>
	uc_rc = gmac_phy_read(p_gmac, uc_phy_address, GMII_PCR1, &ul_stat2);
  4016da:	466b      	mov	r3, sp
  4016dc:	221e      	movs	r2, #30
  4016de:	4639      	mov	r1, r7
  4016e0:	4620      	mov	r0, r4
  4016e2:	4d26      	ldr	r5, [pc, #152]	; (40177c <ethernet_phy_set_link+0xf0>)
  4016e4:	47a8      	blx	r5
	if (uc_rc != GMAC_OK) {
  4016e6:	4603      	mov	r3, r0
  4016e8:	b950      	cbnz	r0, 401700 <ethernet_phy_set_link+0x74>
	if ((ul_stat1 & GMII_100BASE_TX_FD) && (ul_stat2 & GMII_OMI_100BASE_TX_FD)) {
  4016ea:	9a01      	ldr	r2, [sp, #4]
	if ((ul_stat1 & GMII_10BASE_T_FD) && (ul_stat2 & GMII_OMI_10BASE_T_FD)) {
  4016ec:	f412 5f80 	tst.w	r2, #4096	; 0x1000
  4016f0:	d00b      	beq.n	40170a <ethernet_phy_set_link+0x7e>
  4016f2:	9900      	ldr	r1, [sp, #0]
  4016f4:	f011 0f05 	tst.w	r1, #5
  4016f8:	bf0c      	ite	eq
  4016fa:	2101      	moveq	r1, #1
  4016fc:	2100      	movne	r1, #0
  4016fe:	e005      	b.n	40170c <ethernet_phy_set_link+0x80>
  401700:	6822      	ldr	r2, [r4, #0]
  401702:	f022 0210 	bic.w	r2, r2, #16
  401706:	6022      	str	r2, [r4, #0]
		return uc_rc;
  401708:	e7d7      	b.n	4016ba <ethernet_phy_set_link+0x2e>
  40170a:	2101      	movs	r1, #1
	if ((ul_stat1 & GMII_100BASE_TX_HD) && (ul_stat2 & GMII_OMI_100BASE_TX_HD)) {
  40170c:	f412 5f00 	tst.w	r2, #8192	; 0x2000
  401710:	d003      	beq.n	40171a <ethernet_phy_set_link+0x8e>
  401712:	9800      	ldr	r0, [sp, #0]
  401714:	f010 0f02 	tst.w	r0, #2
  401718:	d127      	bne.n	40176a <ethernet_phy_set_link+0xde>
	if ((ul_stat1 & GMII_10BASE_T_HD) && (ul_stat2 & GMII_OMI_10BASE_T_HD)) {
  40171a:	f412 6f00 	tst.w	r2, #2048	; 0x800
  40171e:	d003      	beq.n	401728 <ethernet_phy_set_link+0x9c>
  401720:	9a00      	ldr	r2, [sp, #0]
  401722:	f012 0f01 	tst.w	r2, #1
  401726:	d111      	bne.n	40174c <ethernet_phy_set_link+0xc0>
	if (uc_speed) {
  401728:	b191      	cbz	r1, 401750 <ethernet_phy_set_link+0xc4>
  40172a:	2201      	movs	r2, #1
		p_gmac->GMAC_NCFGR |= GMAC_NCFGR_SPD;
  40172c:	6861      	ldr	r1, [r4, #4]
  40172e:	f041 0101 	orr.w	r1, r1, #1
  401732:	6061      	str	r1, [r4, #4]
	if (uc_enable) {
  401734:	b1a2      	cbz	r2, 401760 <ethernet_phy_set_link+0xd4>
		p_gmac->GMAC_NCFGR |= GMAC_NCFGR_FD;
  401736:	6862      	ldr	r2, [r4, #4]
  401738:	f042 0202 	orr.w	r2, r2, #2
  40173c:	6062      	str	r2, [r4, #4]
		p_gmac->GMAC_NCR &= ~GMAC_NCR_MPE;
  40173e:	6822      	ldr	r2, [r4, #0]
  401740:	f022 0210 	bic.w	r2, r2, #16
  401744:	6022      	str	r2, [r4, #0]
	return uc_rc;
  401746:	e7b8      	b.n	4016ba <ethernet_phy_set_link+0x2e>
		uc_fd = false;
  401748:	461a      	mov	r2, r3
  40174a:	e7ef      	b.n	40172c <ethernet_phy_set_link+0xa0>
		uc_fd = false;
  40174c:	461a      	mov	r2, r3
  40174e:	e000      	b.n	401752 <ethernet_phy_set_link+0xc6>
	if (uc_speed) {
  401750:	2201      	movs	r2, #1
		p_gmac->GMAC_NCFGR &= ~GMAC_NCFGR_SPD;
  401752:	6861      	ldr	r1, [r4, #4]
  401754:	f021 0101 	bic.w	r1, r1, #1
  401758:	6061      	str	r1, [r4, #4]
  40175a:	e7eb      	b.n	401734 <ethernet_phy_set_link+0xa8>
  40175c:	461a      	mov	r2, r3
  40175e:	e7f8      	b.n	401752 <ethernet_phy_set_link+0xc6>
		p_gmac->GMAC_NCFGR &= ~GMAC_NCFGR_FD;
  401760:	6862      	ldr	r2, [r4, #4]
  401762:	f022 0202 	bic.w	r2, r2, #2
  401766:	6062      	str	r2, [r4, #4]
  401768:	e7e9      	b.n	40173e <ethernet_phy_set_link+0xb2>
	if ((ul_stat1 & GMII_10BASE_T_HD) && (ul_stat2 & GMII_OMI_10BASE_T_HD)) {
  40176a:	f412 6f00 	tst.w	r2, #2048	; 0x800
  40176e:	d0eb      	beq.n	401748 <ethernet_phy_set_link+0xbc>
  401770:	9a00      	ldr	r2, [sp, #0]
  401772:	f012 0f01 	tst.w	r2, #1
  401776:	d1f1      	bne.n	40175c <ethernet_phy_set_link+0xd0>
		uc_fd = false;
  401778:	461a      	mov	r2, r3
  40177a:	e7d7      	b.n	40172c <ethernet_phy_set_link+0xa0>
  40177c:	00401c99 	.word	0x00401c99

00401780 <ethernet_phy_auto_negotiate>:
 * \param uc_phy_addr PHY address.
 *
 * Return GMAC_OK if successfully, GMAC_TIMEOUT if timeout.
 */
uint8_t ethernet_phy_auto_negotiate(Gmac *p_gmac, uint8_t uc_phy_addr)
{
  401780:	e92d 41f0 	stmdb	sp!, {r4, r5, r6, r7, r8, lr}
  401784:	b082      	sub	sp, #8
  401786:	4604      	mov	r4, r0
  401788:	460d      	mov	r5, r1
		p_gmac->GMAC_NCR |= GMAC_NCR_MPE;
  40178a:	6803      	ldr	r3, [r0, #0]
  40178c:	f043 0310 	orr.w	r3, r3, #16
  401790:	6003      	str	r3, [r0, #0]
	uint8_t uc_rc;

	gmac_enable_management(p_gmac, true);

	/* Set up control register */
	uc_rc = gmac_phy_read(p_gmac, uc_phy_addr, GMII_BMCR, &ul_value);
  401792:	ab01      	add	r3, sp, #4
  401794:	2200      	movs	r2, #0
  401796:	4e5d      	ldr	r6, [pc, #372]	; (40190c <ethernet_phy_auto_negotiate+0x18c>)
  401798:	47b0      	blx	r6
	if (uc_rc != GMAC_OK) {
  40179a:	b140      	cbz	r0, 4017ae <ethernet_phy_auto_negotiate+0x2e>
  40179c:	4603      	mov	r3, r0
		p_gmac->GMAC_NCR &= ~GMAC_NCR_MPE;
  40179e:	6822      	ldr	r2, [r4, #0]
  4017a0:	f022 0210 	bic.w	r2, r2, #16
  4017a4:	6022      	str	r2, [r4, #0]
	gmac_enable_transmit(GMAC, true);
	gmac_enable_receive(GMAC, true);

	gmac_enable_management(p_gmac, false);
	return uc_rc;
}
  4017a6:	4618      	mov	r0, r3
  4017a8:	b002      	add	sp, #8
  4017aa:	e8bd 81f0 	ldmia.w	sp!, {r4, r5, r6, r7, r8, pc}
	ul_value &= ~(uint32_t)(GMII_LOOPBACK | GMII_POWER_DOWN);
  4017ae:	9b01      	ldr	r3, [sp, #4]
  4017b0:	f423 43b0 	bic.w	r3, r3, #22528	; 0x5800
	ul_value |= (uint32_t)GMII_ISOLATE; /* Electrically isolate PHY */
  4017b4:	f443 6380 	orr.w	r3, r3, #1024	; 0x400
  4017b8:	9301      	str	r3, [sp, #4]
	uc_rc = gmac_phy_write(p_gmac, uc_phy_addr, GMII_BMCR, ul_value);
  4017ba:	2200      	movs	r2, #0
  4017bc:	4629      	mov	r1, r5
  4017be:	4620      	mov	r0, r4
  4017c0:	4e53      	ldr	r6, [pc, #332]	; (401910 <ethernet_phy_auto_negotiate+0x190>)
  4017c2:	47b0      	blx	r6
	if (uc_rc != GMAC_OK) {
  4017c4:	4603      	mov	r3, r0
  4017c6:	b120      	cbz	r0, 4017d2 <ethernet_phy_auto_negotiate+0x52>
  4017c8:	6822      	ldr	r2, [r4, #0]
  4017ca:	f022 0210 	bic.w	r2, r2, #16
  4017ce:	6022      	str	r2, [r4, #0]
		return uc_rc;
  4017d0:	e7e9      	b.n	4017a6 <ethernet_phy_auto_negotiate+0x26>
	uc_rc = gmac_phy_write(p_gmac, uc_phy_addr, GMII_ANAR, ul_phy_anar);
  4017d2:	f240 13e1 	movw	r3, #481	; 0x1e1
  4017d6:	2204      	movs	r2, #4
  4017d8:	4629      	mov	r1, r5
  4017da:	4620      	mov	r0, r4
  4017dc:	4e4c      	ldr	r6, [pc, #304]	; (401910 <ethernet_phy_auto_negotiate+0x190>)
  4017de:	47b0      	blx	r6
	if (uc_rc != GMAC_OK) {
  4017e0:	4603      	mov	r3, r0
  4017e2:	b120      	cbz	r0, 4017ee <ethernet_phy_auto_negotiate+0x6e>
  4017e4:	6822      	ldr	r2, [r4, #0]
  4017e6:	f022 0210 	bic.w	r2, r2, #16
  4017ea:	6022      	str	r2, [r4, #0]
		return uc_rc;
  4017ec:	e7db      	b.n	4017a6 <ethernet_phy_auto_negotiate+0x26>
	uc_rc = gmac_phy_read(p_gmac, uc_phy_addr, GMII_BMCR, &ul_value);
  4017ee:	ab01      	add	r3, sp, #4
  4017f0:	2200      	movs	r2, #0
  4017f2:	4629      	mov	r1, r5
  4017f4:	4620      	mov	r0, r4
  4017f6:	4e45      	ldr	r6, [pc, #276]	; (40190c <ethernet_phy_auto_negotiate+0x18c>)
  4017f8:	47b0      	blx	r6
	if (uc_rc != GMAC_OK) {
  4017fa:	4603      	mov	r3, r0
  4017fc:	b120      	cbz	r0, 401808 <ethernet_phy_auto_negotiate+0x88>
  4017fe:	6822      	ldr	r2, [r4, #0]
  401800:	f022 0210 	bic.w	r2, r2, #16
  401804:	6022      	str	r2, [r4, #0]
		return uc_rc;
  401806:	e7ce      	b.n	4017a6 <ethernet_phy_auto_negotiate+0x26>
	ul_value |= GMII_SPEED_SELECT | GMII_AUTONEG | GMII_DUPLEX_MODE;
  401808:	9b01      	ldr	r3, [sp, #4]
  40180a:	f443 5344 	orr.w	r3, r3, #12544	; 0x3100
  40180e:	9301      	str	r3, [sp, #4]
	uc_rc = gmac_phy_write(p_gmac, uc_phy_addr, GMII_BMCR, ul_value);
  401810:	2200      	movs	r2, #0
  401812:	4629      	mov	r1, r5
  401814:	4620      	mov	r0, r4
  401816:	4e3e      	ldr	r6, [pc, #248]	; (401910 <ethernet_phy_auto_negotiate+0x190>)
  401818:	47b0      	blx	r6
	if (uc_rc != GMAC_OK) {
  40181a:	4603      	mov	r3, r0
  40181c:	b120      	cbz	r0, 401828 <ethernet_phy_auto_negotiate+0xa8>
  40181e:	6822      	ldr	r2, [r4, #0]
  401820:	f022 0210 	bic.w	r2, r2, #16
  401824:	6022      	str	r2, [r4, #0]
		return uc_rc;
  401826:	e7be      	b.n	4017a6 <ethernet_phy_auto_negotiate+0x26>
	ul_value &= ~(uint32_t)GMII_ISOLATE;
  401828:	9b01      	ldr	r3, [sp, #4]
  40182a:	f423 6380 	bic.w	r3, r3, #1024	; 0x400
  40182e:	f443 7300 	orr.w	r3, r3, #512	; 0x200
  401832:	9301      	str	r3, [sp, #4]
	uc_rc = gmac_phy_write(p_gmac, uc_phy_addr, GMII_BMCR, ul_value);
  401834:	2200      	movs	r2, #0
  401836:	4629      	mov	r1, r5
  401838:	4620      	mov	r0, r4
  40183a:	4e35      	ldr	r6, [pc, #212]	; (401910 <ethernet_phy_auto_negotiate+0x190>)
  40183c:	47b0      	blx	r6
	if (uc_rc != GMAC_OK) {
  40183e:	4603      	mov	r3, r0
  401840:	b9b0      	cbnz	r0, 401870 <ethernet_phy_auto_negotiate+0xf0>
  401842:	4e34      	ldr	r6, [pc, #208]	; (401914 <ethernet_phy_auto_negotiate+0x194>)
		uc_rc = gmac_phy_read(p_gmac, uc_phy_addr, GMII_BMSR, &ul_value);
  401844:	f04f 0801 	mov.w	r8, #1
  401848:	4f30      	ldr	r7, [pc, #192]	; (40190c <ethernet_phy_auto_negotiate+0x18c>)
  40184a:	ab01      	add	r3, sp, #4
  40184c:	4642      	mov	r2, r8
  40184e:	4629      	mov	r1, r5
  401850:	4620      	mov	r0, r4
  401852:	47b8      	blx	r7
		if (uc_rc != GMAC_OK) {
  401854:	4603      	mov	r3, r0
  401856:	b980      	cbnz	r0, 40187a <ethernet_phy_auto_negotiate+0xfa>
		if (ul_value & GMII_AUTONEG_COMP) {
  401858:	9b01      	ldr	r3, [sp, #4]
  40185a:	f013 0f20 	tst.w	r3, #32
  40185e:	d111      	bne.n	401884 <ethernet_phy_auto_negotiate+0x104>
			if (++ul_retry_count >= ul_retry_max) {
  401860:	3e01      	subs	r6, #1
  401862:	d1f2      	bne.n	40184a <ethernet_phy_auto_negotiate+0xca>
  401864:	6823      	ldr	r3, [r4, #0]
  401866:	f023 0310 	bic.w	r3, r3, #16
  40186a:	6023      	str	r3, [r4, #0]
				return GMAC_TIMEOUT;
  40186c:	2301      	movs	r3, #1
  40186e:	e79a      	b.n	4017a6 <ethernet_phy_auto_negotiate+0x26>
  401870:	6822      	ldr	r2, [r4, #0]
  401872:	f022 0210 	bic.w	r2, r2, #16
  401876:	6022      	str	r2, [r4, #0]
		return uc_rc;
  401878:	e795      	b.n	4017a6 <ethernet_phy_auto_negotiate+0x26>
  40187a:	6822      	ldr	r2, [r4, #0]
  40187c:	f022 0210 	bic.w	r2, r2, #16
  401880:	6022      	str	r2, [r4, #0]
			return uc_rc;
  401882:	e790      	b.n	4017a6 <ethernet_phy_auto_negotiate+0x26>
	uc_rc = gmac_phy_read(p_gmac, uc_phy_addr, GMII_ANLPAR, &ul_phy_analpar);
  401884:	466b      	mov	r3, sp
  401886:	2205      	movs	r2, #5
  401888:	4629      	mov	r1, r5
  40188a:	4620      	mov	r0, r4
  40188c:	4d1f      	ldr	r5, [pc, #124]	; (40190c <ethernet_phy_auto_negotiate+0x18c>)
  40188e:	47a8      	blx	r5
	if (uc_rc != GMAC_OK) {
  401890:	4603      	mov	r3, r0
  401892:	b980      	cbnz	r0, 4018b6 <ethernet_phy_auto_negotiate+0x136>
	if ((ul_phy_anar & ul_phy_analpar) & GMII_100TX_FDX) {
  401894:	9a00      	ldr	r2, [sp, #0]
  401896:	f412 7f80 	tst.w	r2, #256	; 0x100
  40189a:	d113      	bne.n	4018c4 <ethernet_phy_auto_negotiate+0x144>
	} else if ((ul_phy_anar & ul_phy_analpar) & GMII_10_FDX) {
  40189c:	f012 0f40 	tst.w	r2, #64	; 0x40
  4018a0:	d12c      	bne.n	4018fc <ethernet_phy_auto_negotiate+0x17c>
	if (uc_speed) {
  4018a2:	f012 0f80 	tst.w	r2, #128	; 0x80
		uc_fd = false;
  4018a6:	bf08      	it	eq
  4018a8:	4602      	moveq	r2, r0
  4018aa:	d109      	bne.n	4018c0 <ethernet_phy_auto_negotiate+0x140>
		p_gmac->GMAC_NCFGR &= ~GMAC_NCFGR_SPD;
  4018ac:	6861      	ldr	r1, [r4, #4]
  4018ae:	f021 0101 	bic.w	r1, r1, #1
  4018b2:	6061      	str	r1, [r4, #4]
  4018b4:	e00b      	b.n	4018ce <ethernet_phy_auto_negotiate+0x14e>
		p_gmac->GMAC_NCR &= ~GMAC_NCR_MPE;
  4018b6:	6822      	ldr	r2, [r4, #0]
  4018b8:	f022 0210 	bic.w	r2, r2, #16
  4018bc:	6022      	str	r2, [r4, #0]
		return uc_rc;
  4018be:	e772      	b.n	4017a6 <ethernet_phy_auto_negotiate+0x26>
		uc_fd = false;
  4018c0:	4602      	mov	r2, r0
  4018c2:	e000      	b.n	4018c6 <ethernet_phy_auto_negotiate+0x146>
		uc_fd = true;
  4018c4:	2201      	movs	r2, #1
		p_gmac->GMAC_NCFGR |= GMAC_NCFGR_SPD;
  4018c6:	6861      	ldr	r1, [r4, #4]
  4018c8:	f041 0101 	orr.w	r1, r1, #1
  4018cc:	6061      	str	r1, [r4, #4]
	if (uc_enable) {
  4018ce:	b1ba      	cbz	r2, 401900 <ethernet_phy_auto_negotiate+0x180>
		p_gmac->GMAC_NCFGR |= GMAC_NCFGR_FD;
  4018d0:	6862      	ldr	r2, [r4, #4]
  4018d2:	f042 0202 	orr.w	r2, r2, #2
  4018d6:	6062      	str	r2, [r4, #4]
			p_gmac->GMAC_UR &= ~GMAC_UR_RMII;
  4018d8:	68e2      	ldr	r2, [r4, #12]
  4018da:	f022 0201 	bic.w	r2, r2, #1
  4018de:	60e2      	str	r2, [r4, #12]
		p_gmac->GMAC_NCR |= GMAC_NCR_TXEN;
  4018e0:	4a0d      	ldr	r2, [pc, #52]	; (401918 <ethernet_phy_auto_negotiate+0x198>)
  4018e2:	6811      	ldr	r1, [r2, #0]
  4018e4:	f041 0108 	orr.w	r1, r1, #8
  4018e8:	6011      	str	r1, [r2, #0]
		p_gmac->GMAC_NCR |= GMAC_NCR_RXEN;
  4018ea:	6811      	ldr	r1, [r2, #0]
  4018ec:	f041 0104 	orr.w	r1, r1, #4
  4018f0:	6011      	str	r1, [r2, #0]
		p_gmac->GMAC_NCR &= ~GMAC_NCR_MPE;
  4018f2:	6822      	ldr	r2, [r4, #0]
  4018f4:	f022 0210 	bic.w	r2, r2, #16
  4018f8:	6022      	str	r2, [r4, #0]
	return uc_rc;
  4018fa:	e754      	b.n	4017a6 <ethernet_phy_auto_negotiate+0x26>
		uc_fd = true;
  4018fc:	2201      	movs	r2, #1
  4018fe:	e7d5      	b.n	4018ac <ethernet_phy_auto_negotiate+0x12c>
		p_gmac->GMAC_NCFGR &= ~GMAC_NCFGR_FD;
  401900:	6862      	ldr	r2, [r4, #4]
  401902:	f022 0202 	bic.w	r2, r2, #2
  401906:	6062      	str	r2, [r4, #4]
  401908:	e7e6      	b.n	4018d8 <ethernet_phy_auto_negotiate+0x158>
  40190a:	bf00      	nop
  40190c:	00401c99 	.word	0x00401c99
  401910:	00401cf9 	.word	0x00401cf9
  401914:	000f4240 	.word	0x000f4240
  401918:	40050000 	.word	0x40050000

0040191c <ethernet_phy_reset>:
 * \param uc_phy_addr PHY address.
 *
 * \Return GMAC_OK if successfully, GMAC_TIMEOUT if timeout.
 */
uint8_t ethernet_phy_reset(Gmac *p_gmac, uint8_t uc_phy_addr)
{
  40191c:	e92d 43f0 	stmdb	sp!, {r4, r5, r6, r7, r8, r9, lr}
  401920:	b083      	sub	sp, #12
  401922:	4605      	mov	r5, r0
  401924:	4689      	mov	r9, r1
		p_gmac->GMAC_NCR |= GMAC_NCR_MPE;
  401926:	6803      	ldr	r3, [r0, #0]
  401928:	f043 0310 	orr.w	r3, r3, #16
  40192c:	6003      	str	r3, [r0, #0]
	uint32_t ul_timeout = ETH_PHY_TIMEOUT;
	uint8_t uc_rc = GMAC_TIMEOUT;

	gmac_enable_management(p_gmac, true);

	ul_bmcr = GMII_RESET;
  40192e:	f44f 4300 	mov.w	r3, #32768	; 0x8000
  401932:	ae02      	add	r6, sp, #8
  401934:	f846 3d04 	str.w	r3, [r6, #-4]!
	gmac_phy_write(p_gmac, uc_phy_address, GMII_BMCR, ul_bmcr);
  401938:	2200      	movs	r2, #0
  40193a:	4c0e      	ldr	r4, [pc, #56]	; (401974 <ethernet_phy_reset+0x58>)
  40193c:	47a0      	blx	r4
	uint32_t ul_timeout = ETH_PHY_TIMEOUT;
  40193e:	240a      	movs	r4, #10

	do {
		gmac_phy_read(p_gmac, uc_phy_address, GMII_BMCR, &ul_bmcr);
  401940:	f04f 0800 	mov.w	r8, #0
  401944:	4f0c      	ldr	r7, [pc, #48]	; (401978 <ethernet_phy_reset+0x5c>)
  401946:	4633      	mov	r3, r6
  401948:	4642      	mov	r2, r8
  40194a:	4649      	mov	r1, r9
  40194c:	4628      	mov	r0, r5
  40194e:	47b8      	blx	r7
		ul_timeout--;
  401950:	3c01      	subs	r4, #1
	} while ((ul_bmcr & GMII_RESET) && ul_timeout);
  401952:	9b01      	ldr	r3, [sp, #4]
  401954:	f413 4f00 	tst.w	r3, #32768	; 0x8000
  401958:	d001      	beq.n	40195e <ethernet_phy_reset+0x42>
  40195a:	2c00      	cmp	r4, #0
  40195c:	d1f3      	bne.n	401946 <ethernet_phy_reset+0x2a>
		p_gmac->GMAC_NCR &= ~GMAC_NCR_MPE;
  40195e:	682b      	ldr	r3, [r5, #0]
  401960:	f023 0310 	bic.w	r3, r3, #16
  401964:	602b      	str	r3, [r5, #0]
	if (ul_timeout) {
		uc_rc = GMAC_OK;
	}

	return (uc_rc);
}
  401966:	fab4 f084 	clz	r0, r4
  40196a:	0940      	lsrs	r0, r0, #5
  40196c:	b003      	add	sp, #12
  40196e:	e8bd 83f0 	ldmia.w	sp!, {r4, r5, r6, r7, r8, r9, pc}
  401972:	bf00      	nop
  401974:	00401cf9 	.word	0x00401cf9
  401978:	00401c99 	.word	0x00401c99

0040197c <ethernet_phy_init>:
{
  40197c:	e92d 43f0 	stmdb	sp!, {r4, r5, r6, r7, r8, r9, lr}
  401980:	b085      	sub	sp, #20
  401982:	4606      	mov	r6, r0
  401984:	4688      	mov	r8, r1
  401986:	4615      	mov	r5, r2
	pio_set_output(PIN_GMAC_RESET_PIO, PIN_GMAC_RESET_MASK, 1,  false, true);
  401988:	2401      	movs	r4, #1
  40198a:	9400      	str	r4, [sp, #0]
  40198c:	2300      	movs	r3, #0
  40198e:	4622      	mov	r2, r4
  401990:	f44f 6180 	mov.w	r1, #1024	; 0x400
  401994:	4843      	ldr	r0, [pc, #268]	; (401aa4 <ethernet_phy_init+0x128>)
  401996:	4f44      	ldr	r7, [pc, #272]	; (401aa8 <ethernet_phy_init+0x12c>)
  401998:	47b8      	blx	r7
	pio_set_input(PIN_GMAC_INT_PIO, PIN_GMAC_INT_MASK, PIO_PULLUP);
  40199a:	4622      	mov	r2, r4
  40199c:	f44f 4180 	mov.w	r1, #16384	; 0x4000
  4019a0:	4842      	ldr	r0, [pc, #264]	; (401aac <ethernet_phy_init+0x130>)
  4019a2:	4b43      	ldr	r3, [pc, #268]	; (401ab0 <ethernet_phy_init+0x134>)
  4019a4:	4798      	blx	r3
	pio_set_peripheral(PIN_GMAC_PIO, PIN_GMAC_PERIPH, PIN_GMAC_MASK);
  4019a6:	f240 32ff 	movw	r2, #1023	; 0x3ff
  4019aa:	f04f 6100 	mov.w	r1, #134217728	; 0x8000000
  4019ae:	4841      	ldr	r0, [pc, #260]	; (401ab4 <ethernet_phy_init+0x138>)
  4019b0:	4b41      	ldr	r3, [pc, #260]	; (401ab8 <ethernet_phy_init+0x13c>)
  4019b2:	4798      	blx	r3
	ethernet_phy_reset(GMAC,uc_phy_addr);
  4019b4:	4641      	mov	r1, r8
  4019b6:	4841      	ldr	r0, [pc, #260]	; (401abc <ethernet_phy_init+0x140>)
  4019b8:	4b41      	ldr	r3, [pc, #260]	; (401ac0 <ethernet_phy_init+0x144>)
  4019ba:	4798      	blx	r3
	if (ul_mck > GMAC_MCK_SPEED_240MHZ) {
  4019bc:	4b41      	ldr	r3, [pc, #260]	; (401ac4 <ethernet_phy_init+0x148>)
  4019be:	429d      	cmp	r5, r3
  4019c0:	d85d      	bhi.n	401a7e <ethernet_phy_init+0x102>
	} else if (ul_mck > GMAC_MCK_SPEED_160MHZ) {
  4019c2:	4b41      	ldr	r3, [pc, #260]	; (401ac8 <ethernet_phy_init+0x14c>)
  4019c4:	429d      	cmp	r5, r3
  4019c6:	d80f      	bhi.n	4019e8 <ethernet_phy_init+0x6c>
	} else if (ul_mck > GMAC_MCK_SPEED_120MHZ) {
  4019c8:	4b40      	ldr	r3, [pc, #256]	; (401acc <ethernet_phy_init+0x150>)
  4019ca:	429d      	cmp	r5, r3
  4019cc:	d83e      	bhi.n	401a4c <ethernet_phy_init+0xd0>
	} else if (ul_mck > GMAC_MCK_SPEED_80MHZ) {
  4019ce:	4b40      	ldr	r3, [pc, #256]	; (401ad0 <ethernet_phy_init+0x154>)
  4019d0:	429d      	cmp	r5, r3
  4019d2:	d83e      	bhi.n	401a52 <ethernet_phy_init+0xd6>
	} else if (ul_mck > GMAC_MCK_SPEED_40MHZ) {
  4019d4:	4b3f      	ldr	r3, [pc, #252]	; (401ad4 <ethernet_phy_init+0x158>)
  4019d6:	429d      	cmp	r5, r3
  4019d8:	d83e      	bhi.n	401a58 <ethernet_phy_init+0xdc>
		ul_clk = GMAC_NCFGR_CLK_MCK_8;
  4019da:	4b3f      	ldr	r3, [pc, #252]	; (401ad8 <ethernet_phy_init+0x15c>)
  4019dc:	429d      	cmp	r5, r3
  4019de:	bf8c      	ite	hi
  4019e0:	f44f 2380 	movhi.w	r3, #262144	; 0x40000
  4019e4:	2300      	movls	r3, #0
  4019e6:	e001      	b.n	4019ec <ethernet_phy_init+0x70>
		ul_clk = GMAC_NCFGR_CLK_MCK_96;
  4019e8:	f44f 13a0 	mov.w	r3, #1310720	; 0x140000
	p_gmac->GMAC_NCFGR &= ~GMAC_NCFGR_CLK_Msk;
  4019ec:	6872      	ldr	r2, [r6, #4]
  4019ee:	f422 12e0 	bic.w	r2, r2, #1835008	; 0x1c0000
  4019f2:	6072      	str	r2, [r6, #4]
	p_gmac->GMAC_NCFGR |= ul_clk;
  4019f4:	6875      	ldr	r5, [r6, #4]
  4019f6:	431d      	orrs	r5, r3
  4019f8:	6075      	str	r5, [r6, #4]
	uint32_t ul_value = 0;
  4019fa:	ab04      	add	r3, sp, #16
  4019fc:	2200      	movs	r2, #0
  4019fe:	f843 2d04 	str.w	r2, [r3, #-4]!
		p_gmac->GMAC_NCR |= GMAC_NCR_MPE;
  401a02:	6832      	ldr	r2, [r6, #0]
  401a04:	f042 0210 	orr.w	r2, r2, #16
  401a08:	6032      	str	r2, [r6, #0]
	gmac_phy_read(p_gmac, uc_phy_addr, GMII_PHYID1, &ul_value);
  401a0a:	2202      	movs	r2, #2
  401a0c:	4641      	mov	r1, r8
  401a0e:	4630      	mov	r0, r6
  401a10:	4c32      	ldr	r4, [pc, #200]	; (401adc <ethernet_phy_init+0x160>)
  401a12:	47a0      	blx	r4
	if (ul_value != GMII_OUI_MSB) {
  401a14:	9b03      	ldr	r3, [sp, #12]
  401a16:	2b22      	cmp	r3, #34	; 0x22
  401a18:	d035      	beq.n	401a86 <ethernet_phy_init+0x10a>
  401a1a:	4644      	mov	r4, r8
  401a1c:	2520      	movs	r5, #32
			gmac_phy_read(p_gmac, uc_phy_address, GMII_PHYID1, &ul_value);
  401a1e:	f04f 0902 	mov.w	r9, #2
  401a22:	4f2e      	ldr	r7, [pc, #184]	; (401adc <ethernet_phy_init+0x160>)
			uc_phy_address = (uc_phy_address + 1) & 0x1F;
  401a24:	3401      	adds	r4, #1
  401a26:	f004 041f 	and.w	r4, r4, #31
			gmac_phy_read(p_gmac, uc_phy_address, GMII_PHYID1, &ul_value);
  401a2a:	ab03      	add	r3, sp, #12
  401a2c:	464a      	mov	r2, r9
  401a2e:	4621      	mov	r1, r4
  401a30:	4630      	mov	r0, r6
  401a32:	47b8      	blx	r7
			if (ul_value == GMII_OUI_MSB) {
  401a34:	9b03      	ldr	r3, [sp, #12]
  401a36:	2b22      	cmp	r3, #34	; 0x22
  401a38:	d011      	beq.n	401a5e <ethernet_phy_init+0xe2>
  401a3a:	1e6b      	subs	r3, r5, #1
		for (uc_cnt = uc_start_addr; uc_cnt <= ETH_PHY_MAX_ADDR; uc_cnt++) {
  401a3c:	f013 05ff 	ands.w	r5, r3, #255	; 0xff
  401a40:	d1f0      	bne.n	401a24 <ethernet_phy_init+0xa8>
		p_gmac->GMAC_NCR &= ~GMAC_NCR_MPE;
  401a42:	6833      	ldr	r3, [r6, #0]
  401a44:	f023 0310 	bic.w	r3, r3, #16
  401a48:	6033      	str	r3, [r6, #0]
  401a4a:	e018      	b.n	401a7e <ethernet_phy_init+0x102>
		ul_clk = GMAC_NCFGR_CLK_MCK_64;
  401a4c:	f44f 1380 	mov.w	r3, #1048576	; 0x100000
  401a50:	e7cc      	b.n	4019ec <ethernet_phy_init+0x70>
		ul_clk = GMAC_NCFGR_CLK_MCK_48;
  401a52:	f44f 2340 	mov.w	r3, #786432	; 0xc0000
  401a56:	e7c9      	b.n	4019ec <ethernet_phy_init+0x70>
		ul_clk = GMAC_NCFGR_CLK_MCK_32;
  401a58:	f44f 2300 	mov.w	r3, #524288	; 0x80000
  401a5c:	e7c6      	b.n	4019ec <ethernet_phy_init+0x70>
		p_gmac->GMAC_NCR &= ~GMAC_NCR_MPE;
  401a5e:	6833      	ldr	r3, [r6, #0]
  401a60:	f023 0310 	bic.w	r3, r3, #16
  401a64:	6033      	str	r3, [r6, #0]
		gmac_phy_read(p_gmac, uc_phy_address, GMII_BMSR, &ul_value);
  401a66:	ab03      	add	r3, sp, #12
  401a68:	2201      	movs	r2, #1
  401a6a:	4621      	mov	r1, r4
  401a6c:	4630      	mov	r0, r6
  401a6e:	4d1b      	ldr	r5, [pc, #108]	; (401adc <ethernet_phy_init+0x160>)
  401a70:	47a8      	blx	r5
	if (uc_phy != uc_phy_addr) {
  401a72:	45a0      	cmp	r8, r4
  401a74:	d003      	beq.n	401a7e <ethernet_phy_init+0x102>
		ethernet_phy_reset(p_gmac, uc_phy_addr);
  401a76:	4641      	mov	r1, r8
  401a78:	4630      	mov	r0, r6
  401a7a:	4b11      	ldr	r3, [pc, #68]	; (401ac0 <ethernet_phy_init+0x144>)
  401a7c:	4798      	blx	r3
}
  401a7e:	2000      	movs	r0, #0
  401a80:	b005      	add	sp, #20
  401a82:	e8bd 83f0 	ldmia.w	sp!, {r4, r5, r6, r7, r8, r9, pc}
  401a86:	6833      	ldr	r3, [r6, #0]
  401a88:	f023 0310 	bic.w	r3, r3, #16
  401a8c:	6033      	str	r3, [r6, #0]
	if (uc_rc != 0xFF) {
  401a8e:	f1b8 0fff 	cmp.w	r8, #255	; 0xff
  401a92:	d0f4      	beq.n	401a7e <ethernet_phy_init+0x102>
		gmac_phy_read(p_gmac, uc_phy_address, GMII_BMSR, &ul_value);
  401a94:	ab03      	add	r3, sp, #12
  401a96:	2201      	movs	r2, #1
  401a98:	4641      	mov	r1, r8
  401a9a:	4630      	mov	r0, r6
  401a9c:	4c0f      	ldr	r4, [pc, #60]	; (401adc <ethernet_phy_init+0x160>)
  401a9e:	47a0      	blx	r4
  401aa0:	e7ed      	b.n	401a7e <ethernet_phy_init+0x102>
  401aa2:	bf00      	nop
  401aa4:	400e1200 	.word	0x400e1200
  401aa8:	0040205d 	.word	0x0040205d
  401aac:	400e0e00 	.word	0x400e0e00
  401ab0:	00402027 	.word	0x00402027
  401ab4:	400e1400 	.word	0x400e1400
  401ab8:	00401f95 	.word	0x00401f95
  401abc:	40050000 	.word	0x40050000
  401ac0:	0040191d 	.word	0x0040191d
  401ac4:	0e4e1c00 	.word	0x0e4e1c00
  401ac8:	09896800 	.word	0x09896800
  401acc:	07270e00 	.word	0x07270e00
  401ad0:	04c4b400 	.word	0x04c4b400
  401ad4:	02625a00 	.word	0x02625a00
  401ad8:	01312d00 	.word	0x01312d00
  401adc:	00401c99 	.word	0x00401c99

00401ae0 <twihs_set_speed>:
  401ae0:	4b28      	ldr	r3, [pc, #160]	; (401b84 <twihs_set_speed+0xa4>)
  401ae2:	4299      	cmp	r1, r3
  401ae4:	d84b      	bhi.n	401b7e <twihs_set_speed+0x9e>
  401ae6:	f5a3 537a 	sub.w	r3, r3, #16000	; 0x3e80
  401aea:	4299      	cmp	r1, r3
  401aec:	d92d      	bls.n	401b4a <twihs_set_speed+0x6a>
  401aee:	b410      	push	{r4}
  401af0:	4c25      	ldr	r4, [pc, #148]	; (401b88 <twihs_set_speed+0xa8>)
  401af2:	fba4 3402 	umull	r3, r4, r4, r2
  401af6:	0ba4      	lsrs	r4, r4, #14
  401af8:	3c03      	subs	r4, #3
  401afa:	4b24      	ldr	r3, [pc, #144]	; (401b8c <twihs_set_speed+0xac>)
  401afc:	440b      	add	r3, r1
  401afe:	009b      	lsls	r3, r3, #2
  401b00:	fbb2 f2f3 	udiv	r2, r2, r3
  401b04:	3a03      	subs	r2, #3
  401b06:	2cff      	cmp	r4, #255	; 0xff
  401b08:	d91d      	bls.n	401b46 <twihs_set_speed+0x66>
  401b0a:	2100      	movs	r1, #0
  401b0c:	3101      	adds	r1, #1
  401b0e:	0864      	lsrs	r4, r4, #1
  401b10:	2cff      	cmp	r4, #255	; 0xff
  401b12:	d901      	bls.n	401b18 <twihs_set_speed+0x38>
  401b14:	2906      	cmp	r1, #6
  401b16:	d9f9      	bls.n	401b0c <twihs_set_speed+0x2c>
  401b18:	2aff      	cmp	r2, #255	; 0xff
  401b1a:	d907      	bls.n	401b2c <twihs_set_speed+0x4c>
  401b1c:	2906      	cmp	r1, #6
  401b1e:	d805      	bhi.n	401b2c <twihs_set_speed+0x4c>
  401b20:	3101      	adds	r1, #1
  401b22:	0852      	lsrs	r2, r2, #1
  401b24:	2aff      	cmp	r2, #255	; 0xff
  401b26:	d901      	bls.n	401b2c <twihs_set_speed+0x4c>
  401b28:	2906      	cmp	r1, #6
  401b2a:	d9f9      	bls.n	401b20 <twihs_set_speed+0x40>
  401b2c:	0213      	lsls	r3, r2, #8
  401b2e:	b29b      	uxth	r3, r3
  401b30:	0409      	lsls	r1, r1, #16
  401b32:	f401 21e0 	and.w	r1, r1, #458752	; 0x70000
  401b36:	430b      	orrs	r3, r1
  401b38:	b2e4      	uxtb	r4, r4
  401b3a:	4323      	orrs	r3, r4
  401b3c:	6103      	str	r3, [r0, #16]
  401b3e:	2000      	movs	r0, #0
  401b40:	f85d 4b04 	ldr.w	r4, [sp], #4
  401b44:	4770      	bx	lr
  401b46:	2100      	movs	r1, #0
  401b48:	e7e6      	b.n	401b18 <twihs_set_speed+0x38>
  401b4a:	0049      	lsls	r1, r1, #1
  401b4c:	fbb2 f2f1 	udiv	r2, r2, r1
  401b50:	3a03      	subs	r2, #3
  401b52:	2aff      	cmp	r2, #255	; 0xff
  401b54:	d911      	bls.n	401b7a <twihs_set_speed+0x9a>
  401b56:	2300      	movs	r3, #0
  401b58:	3301      	adds	r3, #1
  401b5a:	0852      	lsrs	r2, r2, #1
  401b5c:	2aff      	cmp	r2, #255	; 0xff
  401b5e:	d901      	bls.n	401b64 <twihs_set_speed+0x84>
  401b60:	2b06      	cmp	r3, #6
  401b62:	d9f9      	bls.n	401b58 <twihs_set_speed+0x78>
  401b64:	0211      	lsls	r1, r2, #8
  401b66:	b289      	uxth	r1, r1
  401b68:	041b      	lsls	r3, r3, #16
  401b6a:	f403 23e0 	and.w	r3, r3, #458752	; 0x70000
  401b6e:	430b      	orrs	r3, r1
  401b70:	b2d2      	uxtb	r2, r2
  401b72:	431a      	orrs	r2, r3
  401b74:	6102      	str	r2, [r0, #16]
  401b76:	2000      	movs	r0, #0
  401b78:	4770      	bx	lr
  401b7a:	2300      	movs	r3, #0
  401b7c:	e7f2      	b.n	401b64 <twihs_set_speed+0x84>
  401b7e:	2001      	movs	r0, #1
  401b80:	4770      	bx	lr
  401b82:	bf00      	nop
  401b84:	00061a80 	.word	0x00061a80
  401b88:	057619f1 	.word	0x057619f1
  401b8c:	3ffd1200 	.word	0x3ffd1200

00401b90 <twihs_master_init>:
  401b90:	b508      	push	{r3, lr}
  401b92:	f04f 32ff 	mov.w	r2, #4294967295
  401b96:	6282      	str	r2, [r0, #40]	; 0x28
  401b98:	6a02      	ldr	r2, [r0, #32]
  401b9a:	2280      	movs	r2, #128	; 0x80
  401b9c:	6002      	str	r2, [r0, #0]
  401b9e:	6b02      	ldr	r2, [r0, #48]	; 0x30
  401ba0:	2208      	movs	r2, #8
  401ba2:	6002      	str	r2, [r0, #0]
  401ba4:	2220      	movs	r2, #32
  401ba6:	6002      	str	r2, [r0, #0]
  401ba8:	2204      	movs	r2, #4
  401baa:	6002      	str	r2, [r0, #0]
  401bac:	680a      	ldr	r2, [r1, #0]
  401bae:	6849      	ldr	r1, [r1, #4]
  401bb0:	4b03      	ldr	r3, [pc, #12]	; (401bc0 <twihs_master_init+0x30>)
  401bb2:	4798      	blx	r3
  401bb4:	2801      	cmp	r0, #1
  401bb6:	bf14      	ite	ne
  401bb8:	2000      	movne	r0, #0
  401bba:	2001      	moveq	r0, #1
  401bbc:	bd08      	pop	{r3, pc}
  401bbe:	bf00      	nop
  401bc0:	00401ae1 	.word	0x00401ae1

00401bc4 <twihs_master_read>:
  401bc4:	68cb      	ldr	r3, [r1, #12]
  401bc6:	2b00      	cmp	r3, #0
  401bc8:	d04b      	beq.n	401c62 <twihs_master_read+0x9e>
  401bca:	b470      	push	{r4, r5, r6}
  401bcc:	688c      	ldr	r4, [r1, #8]
  401bce:	2600      	movs	r6, #0
  401bd0:	6046      	str	r6, [r0, #4]
  401bd2:	684a      	ldr	r2, [r1, #4]
  401bd4:	0212      	lsls	r2, r2, #8
  401bd6:	f402 7240 	and.w	r2, r2, #768	; 0x300
  401bda:	f442 5280 	orr.w	r2, r2, #4096	; 0x1000
  401bde:	7c0d      	ldrb	r5, [r1, #16]
  401be0:	042d      	lsls	r5, r5, #16
  401be2:	f405 05fe 	and.w	r5, r5, #8323072	; 0x7f0000
  401be6:	432a      	orrs	r2, r5
  401be8:	6042      	str	r2, [r0, #4]
  401bea:	60c6      	str	r6, [r0, #12]
  401bec:	684d      	ldr	r5, [r1, #4]
  401bee:	b15d      	cbz	r5, 401c08 <twihs_master_read+0x44>
  401bf0:	780a      	ldrb	r2, [r1, #0]
  401bf2:	2d01      	cmp	r5, #1
  401bf4:	dd02      	ble.n	401bfc <twihs_master_read+0x38>
  401bf6:	784e      	ldrb	r6, [r1, #1]
  401bf8:	ea46 2202 	orr.w	r2, r6, r2, lsl #8
  401bfc:	2d02      	cmp	r5, #2
  401bfe:	dd04      	ble.n	401c0a <twihs_master_read+0x46>
  401c00:	7889      	ldrb	r1, [r1, #2]
  401c02:	ea41 2202 	orr.w	r2, r1, r2, lsl #8
  401c06:	e000      	b.n	401c0a <twihs_master_read+0x46>
  401c08:	2200      	movs	r2, #0
  401c0a:	60c2      	str	r2, [r0, #12]
  401c0c:	2201      	movs	r2, #1
  401c0e:	6002      	str	r2, [r0, #0]
  401c10:	e006      	b.n	401c20 <twihs_master_read+0x5c>
  401c12:	2b01      	cmp	r3, #1
  401c14:	d019      	beq.n	401c4a <twihs_master_read+0x86>
  401c16:	6b02      	ldr	r2, [r0, #48]	; 0x30
  401c18:	f804 2b01 	strb.w	r2, [r4], #1
  401c1c:	3b01      	subs	r3, #1
  401c1e:	d018      	beq.n	401c52 <twihs_master_read+0x8e>
  401c20:	6a02      	ldr	r2, [r0, #32]
  401c22:	f412 7f80 	tst.w	r2, #256	; 0x100
  401c26:	d122      	bne.n	401c6e <twihs_master_read+0xaa>
  401c28:	f012 0f02 	tst.w	r2, #2
  401c2c:	d1f1      	bne.n	401c12 <twihs_master_read+0x4e>
  401c2e:	f247 5230 	movw	r2, #30000	; 0x7530
  401c32:	6a01      	ldr	r1, [r0, #32]
  401c34:	f411 7f80 	tst.w	r1, #256	; 0x100
  401c38:	d115      	bne.n	401c66 <twihs_master_read+0xa2>
  401c3a:	3a01      	subs	r2, #1
  401c3c:	d015      	beq.n	401c6a <twihs_master_read+0xa6>
  401c3e:	f011 0f02 	tst.w	r1, #2
  401c42:	d1e6      	bne.n	401c12 <twihs_master_read+0x4e>
  401c44:	2b00      	cmp	r3, #0
  401c46:	d1f4      	bne.n	401c32 <twihs_master_read+0x6e>
  401c48:	e003      	b.n	401c52 <twihs_master_read+0x8e>
  401c4a:	2302      	movs	r3, #2
  401c4c:	6003      	str	r3, [r0, #0]
  401c4e:	6b03      	ldr	r3, [r0, #48]	; 0x30
  401c50:	7023      	strb	r3, [r4, #0]
  401c52:	6a03      	ldr	r3, [r0, #32]
  401c54:	f013 0f01 	tst.w	r3, #1
  401c58:	d0fb      	beq.n	401c52 <twihs_master_read+0x8e>
  401c5a:	6a03      	ldr	r3, [r0, #32]
  401c5c:	2000      	movs	r0, #0
  401c5e:	bc70      	pop	{r4, r5, r6}
  401c60:	4770      	bx	lr
  401c62:	2001      	movs	r0, #1
  401c64:	4770      	bx	lr
  401c66:	2005      	movs	r0, #5
  401c68:	e7f9      	b.n	401c5e <twihs_master_read+0x9a>
  401c6a:	2009      	movs	r0, #9
  401c6c:	e7f7      	b.n	401c5e <twihs_master_read+0x9a>
  401c6e:	2005      	movs	r0, #5
  401c70:	e7f5      	b.n	401c5e <twihs_master_read+0x9a>

00401c72 <uart_write>:
  401c72:	6943      	ldr	r3, [r0, #20]
  401c74:	f013 0f02 	tst.w	r3, #2
  401c78:	d002      	beq.n	401c80 <uart_write+0xe>
  401c7a:	61c1      	str	r1, [r0, #28]
  401c7c:	2000      	movs	r0, #0
  401c7e:	4770      	bx	lr
  401c80:	2001      	movs	r0, #1
  401c82:	4770      	bx	lr

00401c84 <uart_read>:
  401c84:	6943      	ldr	r3, [r0, #20]
  401c86:	f013 0f01 	tst.w	r3, #1
  401c8a:	d003      	beq.n	401c94 <uart_read+0x10>
  401c8c:	6983      	ldr	r3, [r0, #24]
  401c8e:	700b      	strb	r3, [r1, #0]
  401c90:	2000      	movs	r0, #0
  401c92:	4770      	bx	lr
  401c94:	2001      	movs	r0, #1
  401c96:	4770      	bx	lr

00401c98 <gmac_phy_read>:
 *
 * \Return GMAC_OK if successfully, GMAC_TIMEOUT if timeout.
 */
uint8_t gmac_phy_read(Gmac* p_gmac, uint8_t uc_phy_address, uint8_t uc_address,
		uint32_t* p_value)
{
  401c98:	b410      	push	{r4}
  401c9a:	b083      	sub	sp, #12
	while ((p_gmac->GMAC_NSR & GMAC_NSR_IDLE) == 0);
  401c9c:	6884      	ldr	r4, [r0, #8]
  401c9e:	f014 0f04 	tst.w	r4, #4
  401ca2:	d0fb      	beq.n	401c9c <gmac_phy_read+0x4>
			| GMAC_MAN_REGA(uc_reg_addr)
  401ca4:	0492      	lsls	r2, r2, #18
  401ca6:	f402 04f8 	and.w	r4, r2, #8126464	; 0x7c0000
			| GMAC_MAN_DATA(us_data);
  401caa:	4a11      	ldr	r2, [pc, #68]	; (401cf0 <gmac_phy_read+0x58>)
  401cac:	4322      	orrs	r2, r4
			| GMAC_MAN_PHYA(uc_phy_addr)
  401cae:	05c9      	lsls	r1, r1, #23
  401cb0:	f001 6178 	and.w	r1, r1, #260046848	; 0xf800000
			| GMAC_MAN_DATA(us_data);
  401cb4:	430a      	orrs	r2, r1
	p_gmac->GMAC_MAN = GMAC_MAN_WTN(GMAC_MAN_CODE_VALUE)
  401cb6:	6342      	str	r2, [r0, #52]	; 0x34
	volatile uint32_t ul_retry_count = 0;
  401cb8:	2200      	movs	r2, #0
  401cba:	9201      	str	r2, [sp, #4]
		if (ul_retry_count >= ul_retry) {
  401cbc:	490d      	ldr	r1, [pc, #52]	; (401cf4 <gmac_phy_read+0x5c>)
	return ((p_gmac->GMAC_NSR & GMAC_NSR_IDLE) > 0);
  401cbe:	6882      	ldr	r2, [r0, #8]
	while (!gmac_is_phy_idle(p_gmac)) {
  401cc0:	f012 0f04 	tst.w	r2, #4
  401cc4:	d107      	bne.n	401cd6 <gmac_phy_read+0x3e>
		ul_retry_count++;
  401cc6:	9a01      	ldr	r2, [sp, #4]
  401cc8:	3201      	adds	r2, #1
  401cca:	9201      	str	r2, [sp, #4]
		if (ul_retry_count >= ul_retry) {
  401ccc:	9a01      	ldr	r2, [sp, #4]
  401cce:	428a      	cmp	r2, r1
  401cd0:	d9f5      	bls.n	401cbe <gmac_phy_read+0x26>
	gmac_maintain_phy(p_gmac, uc_phy_address, uc_address, 1, 0);

	if (gmac_phy_wait(p_gmac, MAC_PHY_RETRY_MAX) == GMAC_TIMEOUT) {
		return GMAC_TIMEOUT;
  401cd2:	2001      	movs	r0, #1
  401cd4:	e007      	b.n	401ce6 <gmac_phy_read+0x4e>
	while ((p_gmac->GMAC_NSR & GMAC_NSR_IDLE) == 0);
  401cd6:	6882      	ldr	r2, [r0, #8]
  401cd8:	f012 0f04 	tst.w	r2, #4
  401cdc:	d0fb      	beq.n	401cd6 <gmac_phy_read+0x3e>
	return (uint16_t) (p_gmac->GMAC_MAN & GMAC_MAN_DATA_Msk);
  401cde:	6b42      	ldr	r2, [r0, #52]	; 0x34
	}
	*p_value = gmac_get_phy_data(p_gmac);
  401ce0:	b292      	uxth	r2, r2
  401ce2:	601a      	str	r2, [r3, #0]
	return GMAC_OK;
  401ce4:	2000      	movs	r0, #0
}
  401ce6:	b003      	add	sp, #12
  401ce8:	f85d 4b04 	ldr.w	r4, [sp], #4
  401cec:	4770      	bx	lr
  401cee:	bf00      	nop
  401cf0:	60020000 	.word	0x60020000
  401cf4:	000f423f 	.word	0x000f423f

00401cf8 <gmac_phy_write>:
 *
 * \Return GMAC_OK if successfully, GMAC_TIMEOUT if timeout.
 */
uint8_t gmac_phy_write(Gmac* p_gmac, uint8_t uc_phy_address,
		uint8_t uc_address, uint32_t ul_value)
{
  401cf8:	b410      	push	{r4}
  401cfa:	b083      	sub	sp, #12
	while ((p_gmac->GMAC_NSR & GMAC_NSR_IDLE) == 0);
  401cfc:	6884      	ldr	r4, [r0, #8]
  401cfe:	f014 0f04 	tst.w	r4, #4
  401d02:	d0fb      	beq.n	401cfc <gmac_phy_write+0x4>
			| GMAC_MAN_REGA(uc_reg_addr)
  401d04:	0492      	lsls	r2, r2, #18
  401d06:	f402 04f8 	and.w	r4, r2, #8126464	; 0x7c0000
			| GMAC_MAN_DATA(us_data);
  401d0a:	4a0e      	ldr	r2, [pc, #56]	; (401d44 <gmac_phy_write+0x4c>)
  401d0c:	4322      	orrs	r2, r4
			| GMAC_MAN_PHYA(uc_phy_addr)
  401d0e:	05c9      	lsls	r1, r1, #23
  401d10:	f001 6178 	and.w	r1, r1, #260046848	; 0xf800000
			| GMAC_MAN_DATA(us_data);
  401d14:	430a      	orrs	r2, r1
  401d16:	b29b      	uxth	r3, r3
  401d18:	431a      	orrs	r2, r3
	p_gmac->GMAC_MAN = GMAC_MAN_WTN(GMAC_MAN_CODE_VALUE)
  401d1a:	6342      	str	r2, [r0, #52]	; 0x34
	volatile uint32_t ul_retry_count = 0;
  401d1c:	2300      	movs	r3, #0
  401d1e:	9301      	str	r3, [sp, #4]
		if (ul_retry_count >= ul_retry) {
  401d20:	4a09      	ldr	r2, [pc, #36]	; (401d48 <gmac_phy_write+0x50>)
	return ((p_gmac->GMAC_NSR & GMAC_NSR_IDLE) > 0);
  401d22:	6883      	ldr	r3, [r0, #8]
	while (!gmac_is_phy_idle(p_gmac)) {
  401d24:	f013 0f04 	tst.w	r3, #4
  401d28:	d107      	bne.n	401d3a <gmac_phy_write+0x42>
		ul_retry_count++;
  401d2a:	9b01      	ldr	r3, [sp, #4]
  401d2c:	3301      	adds	r3, #1
  401d2e:	9301      	str	r3, [sp, #4]
		if (ul_retry_count >= ul_retry) {
  401d30:	9b01      	ldr	r3, [sp, #4]
  401d32:	4293      	cmp	r3, r2
  401d34:	d9f5      	bls.n	401d22 <gmac_phy_write+0x2a>
			return GMAC_TIMEOUT;
  401d36:	2001      	movs	r0, #1
  401d38:	e000      	b.n	401d3c <gmac_phy_write+0x44>
	return GMAC_OK;
  401d3a:	2000      	movs	r0, #0

	if (gmac_phy_wait(p_gmac, MAC_PHY_RETRY_MAX) == GMAC_TIMEOUT) {
		return GMAC_TIMEOUT;
	}
	return GMAC_OK;
}
  401d3c:	b003      	add	sp, #12
  401d3e:	f85d 4b04 	ldr.w	r4, [sp], #4
  401d42:	4770      	bx	lr
  401d44:	50020000 	.word	0x50020000
  401d48:	000f423f 	.word	0x000f423f

00401d4c <sysclk_init>:
  401d4c:	b510      	push	{r4, lr}
  401d4e:	4810      	ldr	r0, [pc, #64]	; (401d90 <sysclk_init+0x44>)
  401d50:	4b10      	ldr	r3, [pc, #64]	; (401d94 <sysclk_init+0x48>)
  401d52:	4798      	blx	r3
  401d54:	213e      	movs	r1, #62	; 0x3e
  401d56:	2000      	movs	r0, #0
  401d58:	4b0f      	ldr	r3, [pc, #60]	; (401d98 <sysclk_init+0x4c>)
  401d5a:	4798      	blx	r3
  401d5c:	4c0f      	ldr	r4, [pc, #60]	; (401d9c <sysclk_init+0x50>)
  401d5e:	47a0      	blx	r4
  401d60:	2800      	cmp	r0, #0
  401d62:	d0fc      	beq.n	401d5e <sysclk_init+0x12>
  401d64:	4b0e      	ldr	r3, [pc, #56]	; (401da0 <sysclk_init+0x54>)
  401d66:	4798      	blx	r3
  401d68:	4a0e      	ldr	r2, [pc, #56]	; (401da4 <sysclk_init+0x58>)
  401d6a:	4b0f      	ldr	r3, [pc, #60]	; (401da8 <sysclk_init+0x5c>)
  401d6c:	629a      	str	r2, [r3, #40]	; 0x28
  401d6e:	4c0f      	ldr	r4, [pc, #60]	; (401dac <sysclk_init+0x60>)
  401d70:	47a0      	blx	r4
  401d72:	2800      	cmp	r0, #0
  401d74:	d0fc      	beq.n	401d70 <sysclk_init+0x24>
  401d76:	2002      	movs	r0, #2
  401d78:	4b0d      	ldr	r3, [pc, #52]	; (401db0 <sysclk_init+0x64>)
  401d7a:	4798      	blx	r3
  401d7c:	2000      	movs	r0, #0
  401d7e:	4b0d      	ldr	r3, [pc, #52]	; (401db4 <sysclk_init+0x68>)
  401d80:	4798      	blx	r3
  401d82:	4b0d      	ldr	r3, [pc, #52]	; (401db8 <sysclk_init+0x6c>)
  401d84:	4798      	blx	r3
  401d86:	4802      	ldr	r0, [pc, #8]	; (401d90 <sysclk_init+0x44>)
  401d88:	4b02      	ldr	r3, [pc, #8]	; (401d94 <sysclk_init+0x48>)
  401d8a:	4798      	blx	r3
  401d8c:	bd10      	pop	{r4, pc}
  401d8e:	bf00      	nop
  401d90:	08f0d180 	.word	0x08f0d180
  401d94:	00402459 	.word	0x00402459
  401d98:	004021dd 	.word	0x004021dd
  401d9c:	00402231 	.word	0x00402231
  401da0:	00402241 	.word	0x00402241
  401da4:	20183f01 	.word	0x20183f01
  401da8:	400e0600 	.word	0x400e0600
  401dac:	00402251 	.word	0x00402251
  401db0:	00402141 	.word	0x00402141
  401db4:	00402179 	.word	0x00402179
  401db8:	0040234d 	.word	0x0040234d

00401dbc <board_init>:
  401dbc:	b510      	push	{r4, lr}
  401dbe:	f44f 4200 	mov.w	r2, #32768	; 0x8000
  401dc2:	4b6e      	ldr	r3, [pc, #440]	; (401f7c <board_init+0x1c0>)
  401dc4:	605a      	str	r2, [r3, #4]
  401dc6:	f5a3 6345 	sub.w	r3, r3, #3152	; 0xc50
  401dca:	4a6d      	ldr	r2, [pc, #436]	; (401f80 <board_init+0x1c4>)
  401dcc:	605a      	str	r2, [r3, #4]
  401dce:	f5a2 7280 	sub.w	r2, r2, #256	; 0x100
  401dd2:	605a      	str	r2, [r3, #4]
  401dd4:	f3bf 8f4f 	dsb	sy
  401dd8:	f3bf 8f6f 	isb	sy
  401ddc:	4b69      	ldr	r3, [pc, #420]	; (401f84 <board_init+0x1c8>)
  401dde:	f8d3 2290 	ldr.w	r2, [r3, #656]	; 0x290
  401de2:	f022 0201 	bic.w	r2, r2, #1
  401de6:	f8c3 2290 	str.w	r2, [r3, #656]	; 0x290
  401dea:	f8d3 2294 	ldr.w	r2, [r3, #660]	; 0x294
  401dee:	f022 0201 	bic.w	r2, r2, #1
  401df2:	f8c3 2294 	str.w	r2, [r3, #660]	; 0x294
  401df6:	f3bf 8f4f 	dsb	sy
  401dfa:	f3bf 8f6f 	isb	sy
  401dfe:	200a      	movs	r0, #10
  401e00:	4c61      	ldr	r4, [pc, #388]	; (401f88 <board_init+0x1cc>)
  401e02:	47a0      	blx	r4
  401e04:	200b      	movs	r0, #11
  401e06:	47a0      	blx	r4
  401e08:	200c      	movs	r0, #12
  401e0a:	47a0      	blx	r4
  401e0c:	2010      	movs	r0, #16
  401e0e:	47a0      	blx	r4
  401e10:	2011      	movs	r0, #17
  401e12:	47a0      	blx	r4
  401e14:	4b5d      	ldr	r3, [pc, #372]	; (401f8c <board_init+0x1d0>)
  401e16:	f44f 7280 	mov.w	r2, #256	; 0x100
  401e1a:	611a      	str	r2, [r3, #16]
  401e1c:	f8c3 20a0 	str.w	r2, [r3, #160]	; 0xa0
  401e20:	631a      	str	r2, [r3, #48]	; 0x30
  401e22:	f5a3 6380 	sub.w	r3, r3, #1024	; 0x400
  401e26:	f44f 6200 	mov.w	r2, #2048	; 0x800
  401e2a:	615a      	str	r2, [r3, #20]
  401e2c:	f8c3 20a0 	str.w	r2, [r3, #160]	; 0xa0
  401e30:	665a      	str	r2, [r3, #100]	; 0x64
  401e32:	f8c3 2090 	str.w	r2, [r3, #144]	; 0x90
  401e36:	655a      	str	r2, [r3, #84]	; 0x54
  401e38:	621a      	str	r2, [r3, #32]
  401e3a:	f8c3 2084 	str.w	r2, [r3, #132]	; 0x84
  401e3e:	6f19      	ldr	r1, [r3, #112]	; 0x70
  401e40:	f421 6100 	bic.w	r1, r1, #2048	; 0x800
  401e44:	6719      	str	r1, [r3, #112]	; 0x70
  401e46:	6f59      	ldr	r1, [r3, #116]	; 0x74
  401e48:	f421 6100 	bic.w	r1, r1, #2048	; 0x800
  401e4c:	6759      	str	r1, [r3, #116]	; 0x74
  401e4e:	f8c3 20c0 	str.w	r2, [r3, #192]	; 0xc0
  401e52:	f8c3 20d4 	str.w	r2, [r3, #212]	; 0xd4
  401e56:	f8c3 20b0 	str.w	r2, [r3, #176]	; 0xb0
  401e5a:	f44f 1200 	mov.w	r2, #2097152	; 0x200000
  401e5e:	661a      	str	r2, [r3, #96]	; 0x60
  401e60:	f8c3 2090 	str.w	r2, [r3, #144]	; 0x90
  401e64:	655a      	str	r2, [r3, #84]	; 0x54
  401e66:	625a      	str	r2, [r3, #36]	; 0x24
  401e68:	f8c3 2080 	str.w	r2, [r3, #128]	; 0x80
  401e6c:	6f19      	ldr	r1, [r3, #112]	; 0x70
  401e6e:	f421 1100 	bic.w	r1, r1, #2097152	; 0x200000
  401e72:	6719      	str	r1, [r3, #112]	; 0x70
  401e74:	6f59      	ldr	r1, [r3, #116]	; 0x74
  401e76:	f421 1100 	bic.w	r1, r1, #2097152	; 0x200000
  401e7a:	6759      	str	r1, [r3, #116]	; 0x74
  401e7c:	605a      	str	r2, [r3, #4]
  401e7e:	4844      	ldr	r0, [pc, #272]	; (401f90 <board_init+0x1d4>)
  401e80:	f8d0 1114 	ldr.w	r1, [r0, #276]	; 0x114
  401e84:	f041 0110 	orr.w	r1, r1, #16
  401e88:	f8c0 1114 	str.w	r1, [r0, #276]	; 0x114
  401e8c:	f500 20b2 	add.w	r0, r0, #364544	; 0x59000
  401e90:	2110      	movs	r1, #16
  401e92:	6601      	str	r1, [r0, #96]	; 0x60
  401e94:	f8c0 1090 	str.w	r1, [r0, #144]	; 0x90
  401e98:	6541      	str	r1, [r0, #84]	; 0x54
  401e9a:	6241      	str	r1, [r0, #36]	; 0x24
  401e9c:	f8c0 1080 	str.w	r1, [r0, #128]	; 0x80
  401ea0:	6f04      	ldr	r4, [r0, #112]	; 0x70
  401ea2:	430c      	orrs	r4, r1
  401ea4:	6704      	str	r4, [r0, #112]	; 0x70
  401ea6:	6f44      	ldr	r4, [r0, #116]	; 0x74
  401ea8:	430c      	orrs	r4, r1
  401eaa:	6744      	str	r4, [r0, #116]	; 0x74
  401eac:	6041      	str	r1, [r0, #4]
  401eae:	2008      	movs	r0, #8
  401eb0:	6618      	str	r0, [r3, #96]	; 0x60
  401eb2:	f8c3 0090 	str.w	r0, [r3, #144]	; 0x90
  401eb6:	6558      	str	r0, [r3, #84]	; 0x54
  401eb8:	6258      	str	r0, [r3, #36]	; 0x24
  401eba:	f8c3 0080 	str.w	r0, [r3, #128]	; 0x80
  401ebe:	6f1c      	ldr	r4, [r3, #112]	; 0x70
  401ec0:	f024 0408 	bic.w	r4, r4, #8
  401ec4:	671c      	str	r4, [r3, #112]	; 0x70
  401ec6:	6f5c      	ldr	r4, [r3, #116]	; 0x74
  401ec8:	f024 0408 	bic.w	r4, r4, #8
  401ecc:	675c      	str	r4, [r3, #116]	; 0x74
  401ece:	6058      	str	r0, [r3, #4]
  401ed0:	6619      	str	r1, [r3, #96]	; 0x60
  401ed2:	f8c3 1090 	str.w	r1, [r3, #144]	; 0x90
  401ed6:	6559      	str	r1, [r3, #84]	; 0x54
  401ed8:	6259      	str	r1, [r3, #36]	; 0x24
  401eda:	f8c3 1080 	str.w	r1, [r3, #128]	; 0x80
  401ede:	6f18      	ldr	r0, [r3, #112]	; 0x70
  401ee0:	f020 0010 	bic.w	r0, r0, #16
  401ee4:	6718      	str	r0, [r3, #112]	; 0x70
  401ee6:	6f58      	ldr	r0, [r3, #116]	; 0x74
  401ee8:	f020 0010 	bic.w	r0, r0, #16
  401eec:	6758      	str	r0, [r3, #116]	; 0x74
  401eee:	6059      	str	r1, [r3, #4]
  401ef0:	f503 63c0 	add.w	r3, r3, #1536	; 0x600
  401ef4:	f44f 1180 	mov.w	r1, #1048576	; 0x100000
  401ef8:	6619      	str	r1, [r3, #96]	; 0x60
  401efa:	f8c3 1090 	str.w	r1, [r3, #144]	; 0x90
  401efe:	6559      	str	r1, [r3, #84]	; 0x54
  401f00:	6259      	str	r1, [r3, #36]	; 0x24
  401f02:	f8c3 1080 	str.w	r1, [r3, #128]	; 0x80
  401f06:	6f18      	ldr	r0, [r3, #112]	; 0x70
  401f08:	4308      	orrs	r0, r1
  401f0a:	6718      	str	r0, [r3, #112]	; 0x70
  401f0c:	6f58      	ldr	r0, [r3, #116]	; 0x74
  401f0e:	f420 1080 	bic.w	r0, r0, #1048576	; 0x100000
  401f12:	6758      	str	r0, [r3, #116]	; 0x74
  401f14:	6059      	str	r1, [r3, #4]
  401f16:	661a      	str	r2, [r3, #96]	; 0x60
  401f18:	f8c3 2090 	str.w	r2, [r3, #144]	; 0x90
  401f1c:	655a      	str	r2, [r3, #84]	; 0x54
  401f1e:	625a      	str	r2, [r3, #36]	; 0x24
  401f20:	f8c3 2080 	str.w	r2, [r3, #128]	; 0x80
  401f24:	6f19      	ldr	r1, [r3, #112]	; 0x70
  401f26:	4311      	orrs	r1, r2
  401f28:	6719      	str	r1, [r3, #112]	; 0x70
  401f2a:	6f59      	ldr	r1, [r3, #116]	; 0x74
  401f2c:	f421 1100 	bic.w	r1, r1, #2097152	; 0x200000
  401f30:	6759      	str	r1, [r3, #116]	; 0x74
  401f32:	605a      	str	r2, [r3, #4]
  401f34:	f44f 0280 	mov.w	r2, #4194304	; 0x400000
  401f38:	661a      	str	r2, [r3, #96]	; 0x60
  401f3a:	f8c3 2090 	str.w	r2, [r3, #144]	; 0x90
  401f3e:	655a      	str	r2, [r3, #84]	; 0x54
  401f40:	625a      	str	r2, [r3, #36]	; 0x24
  401f42:	f8c3 2080 	str.w	r2, [r3, #128]	; 0x80
  401f46:	6f19      	ldr	r1, [r3, #112]	; 0x70
  401f48:	4311      	orrs	r1, r2
  401f4a:	6719      	str	r1, [r3, #112]	; 0x70
  401f4c:	6f59      	ldr	r1, [r3, #116]	; 0x74
  401f4e:	f421 0180 	bic.w	r1, r1, #4194304	; 0x400000
  401f52:	6759      	str	r1, [r3, #116]	; 0x74
  401f54:	605a      	str	r2, [r3, #4]
  401f56:	f04f 7200 	mov.w	r2, #33554432	; 0x2000000
  401f5a:	661a      	str	r2, [r3, #96]	; 0x60
  401f5c:	f8c3 2090 	str.w	r2, [r3, #144]	; 0x90
  401f60:	655a      	str	r2, [r3, #84]	; 0x54
  401f62:	625a      	str	r2, [r3, #36]	; 0x24
  401f64:	f8c3 2080 	str.w	r2, [r3, #128]	; 0x80
  401f68:	6f19      	ldr	r1, [r3, #112]	; 0x70
  401f6a:	4311      	orrs	r1, r2
  401f6c:	6719      	str	r1, [r3, #112]	; 0x70
  401f6e:	6f59      	ldr	r1, [r3, #116]	; 0x74
  401f70:	f021 7100 	bic.w	r1, r1, #33554432	; 0x2000000
  401f74:	6759      	str	r1, [r3, #116]	; 0x74
  401f76:	605a      	str	r2, [r3, #4]
  401f78:	bd10      	pop	{r4, pc}
  401f7a:	bf00      	nop
  401f7c:	400e1850 	.word	0x400e1850
  401f80:	5a00080c 	.word	0x5a00080c
  401f84:	e000ed00 	.word	0xe000ed00
  401f88:	00402261 	.word	0x00402261
  401f8c:	400e1200 	.word	0x400e1200
  401f90:	40088000 	.word	0x40088000

00401f94 <pio_set_peripheral>:
  401f94:	6442      	str	r2, [r0, #68]	; 0x44
  401f96:	f1b1 5fc0 	cmp.w	r1, #402653184	; 0x18000000
  401f9a:	d03a      	beq.n	402012 <pio_set_peripheral+0x7e>
  401f9c:	d813      	bhi.n	401fc6 <pio_set_peripheral+0x32>
  401f9e:	f1b1 6f00 	cmp.w	r1, #134217728	; 0x8000000
  401fa2:	d025      	beq.n	401ff0 <pio_set_peripheral+0x5c>
  401fa4:	f1b1 5f80 	cmp.w	r1, #268435456	; 0x10000000
  401fa8:	d10a      	bne.n	401fc0 <pio_set_peripheral+0x2c>
  401faa:	6f03      	ldr	r3, [r0, #112]	; 0x70
  401fac:	4313      	orrs	r3, r2
  401fae:	6703      	str	r3, [r0, #112]	; 0x70
  401fb0:	6f43      	ldr	r3, [r0, #116]	; 0x74
  401fb2:	6f41      	ldr	r1, [r0, #116]	; 0x74
  401fb4:	400b      	ands	r3, r1
  401fb6:	ea23 0302 	bic.w	r3, r3, r2
  401fba:	6743      	str	r3, [r0, #116]	; 0x74
  401fbc:	6042      	str	r2, [r0, #4]
  401fbe:	4770      	bx	lr
  401fc0:	2900      	cmp	r1, #0
  401fc2:	d1fb      	bne.n	401fbc <pio_set_peripheral+0x28>
  401fc4:	4770      	bx	lr
  401fc6:	f1b1 5f20 	cmp.w	r1, #671088640	; 0x28000000
  401fca:	d021      	beq.n	402010 <pio_set_peripheral+0x7c>
  401fcc:	d809      	bhi.n	401fe2 <pio_set_peripheral+0x4e>
  401fce:	f1b1 5f00 	cmp.w	r1, #536870912	; 0x20000000
  401fd2:	d1f3      	bne.n	401fbc <pio_set_peripheral+0x28>
  401fd4:	6f03      	ldr	r3, [r0, #112]	; 0x70
  401fd6:	4313      	orrs	r3, r2
  401fd8:	6703      	str	r3, [r0, #112]	; 0x70
  401fda:	6f43      	ldr	r3, [r0, #116]	; 0x74
  401fdc:	4313      	orrs	r3, r2
  401fde:	6743      	str	r3, [r0, #116]	; 0x74
  401fe0:	e7ec      	b.n	401fbc <pio_set_peripheral+0x28>
  401fe2:	f1b1 5f40 	cmp.w	r1, #805306368	; 0x30000000
  401fe6:	d013      	beq.n	402010 <pio_set_peripheral+0x7c>
  401fe8:	f1b1 5f60 	cmp.w	r1, #939524096	; 0x38000000
  401fec:	d010      	beq.n	402010 <pio_set_peripheral+0x7c>
  401fee:	e7e5      	b.n	401fbc <pio_set_peripheral+0x28>
  401ff0:	b410      	push	{r4}
  401ff2:	6f01      	ldr	r1, [r0, #112]	; 0x70
  401ff4:	6f04      	ldr	r4, [r0, #112]	; 0x70
  401ff6:	43d3      	mvns	r3, r2
  401ff8:	4021      	ands	r1, r4
  401ffa:	461c      	mov	r4, r3
  401ffc:	4019      	ands	r1, r3
  401ffe:	6701      	str	r1, [r0, #112]	; 0x70
  402000:	6f43      	ldr	r3, [r0, #116]	; 0x74
  402002:	6f41      	ldr	r1, [r0, #116]	; 0x74
  402004:	400b      	ands	r3, r1
  402006:	4023      	ands	r3, r4
  402008:	6743      	str	r3, [r0, #116]	; 0x74
  40200a:	6042      	str	r2, [r0, #4]
  40200c:	f85d 4b04 	ldr.w	r4, [sp], #4
  402010:	4770      	bx	lr
  402012:	6f03      	ldr	r3, [r0, #112]	; 0x70
  402014:	6f01      	ldr	r1, [r0, #112]	; 0x70
  402016:	400b      	ands	r3, r1
  402018:	ea23 0302 	bic.w	r3, r3, r2
  40201c:	6703      	str	r3, [r0, #112]	; 0x70
  40201e:	6f43      	ldr	r3, [r0, #116]	; 0x74
  402020:	4313      	orrs	r3, r2
  402022:	6743      	str	r3, [r0, #116]	; 0x74
  402024:	e7ca      	b.n	401fbc <pio_set_peripheral+0x28>

00402026 <pio_set_input>:
  402026:	6441      	str	r1, [r0, #68]	; 0x44
  402028:	f012 0f01 	tst.w	r2, #1
  40202c:	d10d      	bne.n	40204a <pio_set_input+0x24>
  40202e:	6601      	str	r1, [r0, #96]	; 0x60
  402030:	f012 0f0a 	tst.w	r2, #10
  402034:	d00b      	beq.n	40204e <pio_set_input+0x28>
  402036:	6201      	str	r1, [r0, #32]
  402038:	f012 0f02 	tst.w	r2, #2
  40203c:	d109      	bne.n	402052 <pio_set_input+0x2c>
  40203e:	f012 0f08 	tst.w	r2, #8
  402042:	d008      	beq.n	402056 <pio_set_input+0x30>
  402044:	f8c0 1084 	str.w	r1, [r0, #132]	; 0x84
  402048:	e005      	b.n	402056 <pio_set_input+0x30>
  40204a:	6641      	str	r1, [r0, #100]	; 0x64
  40204c:	e7f0      	b.n	402030 <pio_set_input+0xa>
  40204e:	6241      	str	r1, [r0, #36]	; 0x24
  402050:	e7f2      	b.n	402038 <pio_set_input+0x12>
  402052:	f8c0 1080 	str.w	r1, [r0, #128]	; 0x80
  402056:	6141      	str	r1, [r0, #20]
  402058:	6001      	str	r1, [r0, #0]
  40205a:	4770      	bx	lr

0040205c <pio_set_output>:
  40205c:	b410      	push	{r4}
  40205e:	9c01      	ldr	r4, [sp, #4]
  402060:	6441      	str	r1, [r0, #68]	; 0x44
  402062:	b94c      	cbnz	r4, 402078 <pio_set_output+0x1c>
  402064:	6601      	str	r1, [r0, #96]	; 0x60
  402066:	b14b      	cbz	r3, 40207c <pio_set_output+0x20>
  402068:	6501      	str	r1, [r0, #80]	; 0x50
  40206a:	b94a      	cbnz	r2, 402080 <pio_set_output+0x24>
  40206c:	6341      	str	r1, [r0, #52]	; 0x34
  40206e:	6101      	str	r1, [r0, #16]
  402070:	6001      	str	r1, [r0, #0]
  402072:	f85d 4b04 	ldr.w	r4, [sp], #4
  402076:	4770      	bx	lr
  402078:	6641      	str	r1, [r0, #100]	; 0x64
  40207a:	e7f4      	b.n	402066 <pio_set_output+0xa>
  40207c:	6541      	str	r1, [r0, #84]	; 0x54
  40207e:	e7f4      	b.n	40206a <pio_set_output+0xe>
  402080:	6301      	str	r1, [r0, #48]	; 0x30
  402082:	e7f4      	b.n	40206e <pio_set_output+0x12>

00402084 <pio_get_interrupt_status>:
  402084:	6cc0      	ldr	r0, [r0, #76]	; 0x4c
  402086:	4770      	bx	lr

00402088 <pio_get_interrupt_mask>:
  402088:	6c80      	ldr	r0, [r0, #72]	; 0x48
  40208a:	4770      	bx	lr

0040208c <pio_handler_process>:
  40208c:	e92d 41f0 	stmdb	sp!, {r4, r5, r6, r7, r8, lr}
  402090:	4604      	mov	r4, r0
  402092:	4688      	mov	r8, r1
  402094:	4b0e      	ldr	r3, [pc, #56]	; (4020d0 <pio_handler_process+0x44>)
  402096:	4798      	blx	r3
  402098:	4605      	mov	r5, r0
  40209a:	4620      	mov	r0, r4
  40209c:	4b0d      	ldr	r3, [pc, #52]	; (4020d4 <pio_handler_process+0x48>)
  40209e:	4798      	blx	r3
  4020a0:	4005      	ands	r5, r0
  4020a2:	d013      	beq.n	4020cc <pio_handler_process+0x40>
  4020a4:	4c0c      	ldr	r4, [pc, #48]	; (4020d8 <pio_handler_process+0x4c>)
  4020a6:	f104 0660 	add.w	r6, r4, #96	; 0x60
  4020aa:	e003      	b.n	4020b4 <pio_handler_process+0x28>
  4020ac:	42b4      	cmp	r4, r6
  4020ae:	d00d      	beq.n	4020cc <pio_handler_process+0x40>
  4020b0:	3410      	adds	r4, #16
  4020b2:	b15d      	cbz	r5, 4020cc <pio_handler_process+0x40>
  4020b4:	6820      	ldr	r0, [r4, #0]
  4020b6:	4540      	cmp	r0, r8
  4020b8:	d1f8      	bne.n	4020ac <pio_handler_process+0x20>
  4020ba:	6861      	ldr	r1, [r4, #4]
  4020bc:	4229      	tst	r1, r5
  4020be:	d0f5      	beq.n	4020ac <pio_handler_process+0x20>
  4020c0:	68e3      	ldr	r3, [r4, #12]
  4020c2:	4798      	blx	r3
  4020c4:	6863      	ldr	r3, [r4, #4]
  4020c6:	ea25 0503 	bic.w	r5, r5, r3
  4020ca:	e7ef      	b.n	4020ac <pio_handler_process+0x20>
  4020cc:	e8bd 81f0 	ldmia.w	sp!, {r4, r5, r6, r7, r8, pc}
  4020d0:	00402085 	.word	0x00402085
  4020d4:	00402089 	.word	0x00402089
  4020d8:	20407230 	.word	0x20407230

004020dc <PIOA_Handler>:
  4020dc:	b508      	push	{r3, lr}
  4020de:	210a      	movs	r1, #10
  4020e0:	4801      	ldr	r0, [pc, #4]	; (4020e8 <PIOA_Handler+0xc>)
  4020e2:	4b02      	ldr	r3, [pc, #8]	; (4020ec <PIOA_Handler+0x10>)
  4020e4:	4798      	blx	r3
  4020e6:	bd08      	pop	{r3, pc}
  4020e8:	400e0e00 	.word	0x400e0e00
  4020ec:	0040208d 	.word	0x0040208d

004020f0 <PIOB_Handler>:
  4020f0:	b508      	push	{r3, lr}
  4020f2:	210b      	movs	r1, #11
  4020f4:	4801      	ldr	r0, [pc, #4]	; (4020fc <PIOB_Handler+0xc>)
  4020f6:	4b02      	ldr	r3, [pc, #8]	; (402100 <PIOB_Handler+0x10>)
  4020f8:	4798      	blx	r3
  4020fa:	bd08      	pop	{r3, pc}
  4020fc:	400e1000 	.word	0x400e1000
  402100:	0040208d 	.word	0x0040208d

00402104 <PIOC_Handler>:
  402104:	b508      	push	{r3, lr}
  402106:	210c      	movs	r1, #12
  402108:	4801      	ldr	r0, [pc, #4]	; (402110 <PIOC_Handler+0xc>)
  40210a:	4b02      	ldr	r3, [pc, #8]	; (402114 <PIOC_Handler+0x10>)
  40210c:	4798      	blx	r3
  40210e:	bd08      	pop	{r3, pc}
  402110:	400e1200 	.word	0x400e1200
  402114:	0040208d 	.word	0x0040208d

00402118 <PIOD_Handler>:
  402118:	b508      	push	{r3, lr}
  40211a:	2110      	movs	r1, #16
  40211c:	4801      	ldr	r0, [pc, #4]	; (402124 <PIOD_Handler+0xc>)
  40211e:	4b02      	ldr	r3, [pc, #8]	; (402128 <PIOD_Handler+0x10>)
  402120:	4798      	blx	r3
  402122:	bd08      	pop	{r3, pc}
  402124:	400e1400 	.word	0x400e1400
  402128:	0040208d 	.word	0x0040208d

0040212c <PIOE_Handler>:
  40212c:	b508      	push	{r3, lr}
  40212e:	2111      	movs	r1, #17
  402130:	4801      	ldr	r0, [pc, #4]	; (402138 <PIOE_Handler+0xc>)
  402132:	4b02      	ldr	r3, [pc, #8]	; (40213c <PIOE_Handler+0x10>)
  402134:	4798      	blx	r3
  402136:	bd08      	pop	{r3, pc}
  402138:	400e1600 	.word	0x400e1600
  40213c:	0040208d 	.word	0x0040208d

00402140 <pmc_mck_set_division>:
  402140:	2803      	cmp	r0, #3
  402142:	d011      	beq.n	402168 <pmc_mck_set_division+0x28>
  402144:	2804      	cmp	r0, #4
  402146:	d012      	beq.n	40216e <pmc_mck_set_division+0x2e>
  402148:	2802      	cmp	r0, #2
  40214a:	bf0c      	ite	eq
  40214c:	f44f 7180 	moveq.w	r1, #256	; 0x100
  402150:	2100      	movne	r1, #0
  402152:	4a08      	ldr	r2, [pc, #32]	; (402174 <pmc_mck_set_division+0x34>)
  402154:	6b13      	ldr	r3, [r2, #48]	; 0x30
  402156:	f423 7340 	bic.w	r3, r3, #768	; 0x300
  40215a:	430b      	orrs	r3, r1
  40215c:	6313      	str	r3, [r2, #48]	; 0x30
  40215e:	6e93      	ldr	r3, [r2, #104]	; 0x68
  402160:	f013 0f08 	tst.w	r3, #8
  402164:	d0fb      	beq.n	40215e <pmc_mck_set_division+0x1e>
  402166:	4770      	bx	lr
  402168:	f44f 7140 	mov.w	r1, #768	; 0x300
  40216c:	e7f1      	b.n	402152 <pmc_mck_set_division+0x12>
  40216e:	f44f 7100 	mov.w	r1, #512	; 0x200
  402172:	e7ee      	b.n	402152 <pmc_mck_set_division+0x12>
  402174:	400e0600 	.word	0x400e0600

00402178 <pmc_switch_mck_to_pllack>:
  402178:	4a17      	ldr	r2, [pc, #92]	; (4021d8 <pmc_switch_mck_to_pllack+0x60>)
  40217a:	6b13      	ldr	r3, [r2, #48]	; 0x30
  40217c:	f023 0370 	bic.w	r3, r3, #112	; 0x70
  402180:	4318      	orrs	r0, r3
  402182:	6310      	str	r0, [r2, #48]	; 0x30
  402184:	6e93      	ldr	r3, [r2, #104]	; 0x68
  402186:	f013 0f08 	tst.w	r3, #8
  40218a:	d10a      	bne.n	4021a2 <pmc_switch_mck_to_pllack+0x2a>
  40218c:	f44f 5380 	mov.w	r3, #4096	; 0x1000
  402190:	4911      	ldr	r1, [pc, #68]	; (4021d8 <pmc_switch_mck_to_pllack+0x60>)
  402192:	6e8a      	ldr	r2, [r1, #104]	; 0x68
  402194:	f012 0f08 	tst.w	r2, #8
  402198:	d103      	bne.n	4021a2 <pmc_switch_mck_to_pllack+0x2a>
  40219a:	3b01      	subs	r3, #1
  40219c:	d1f9      	bne.n	402192 <pmc_switch_mck_to_pllack+0x1a>
  40219e:	2001      	movs	r0, #1
  4021a0:	4770      	bx	lr
  4021a2:	4a0d      	ldr	r2, [pc, #52]	; (4021d8 <pmc_switch_mck_to_pllack+0x60>)
  4021a4:	6b13      	ldr	r3, [r2, #48]	; 0x30
  4021a6:	f023 0303 	bic.w	r3, r3, #3
  4021aa:	f043 0302 	orr.w	r3, r3, #2
  4021ae:	6313      	str	r3, [r2, #48]	; 0x30
  4021b0:	6e93      	ldr	r3, [r2, #104]	; 0x68
  4021b2:	f013 0f08 	tst.w	r3, #8
  4021b6:	d10a      	bne.n	4021ce <pmc_switch_mck_to_pllack+0x56>
  4021b8:	f44f 5380 	mov.w	r3, #4096	; 0x1000
  4021bc:	4906      	ldr	r1, [pc, #24]	; (4021d8 <pmc_switch_mck_to_pllack+0x60>)
  4021be:	6e8a      	ldr	r2, [r1, #104]	; 0x68
  4021c0:	f012 0f08 	tst.w	r2, #8
  4021c4:	d105      	bne.n	4021d2 <pmc_switch_mck_to_pllack+0x5a>
  4021c6:	3b01      	subs	r3, #1
  4021c8:	d1f9      	bne.n	4021be <pmc_switch_mck_to_pllack+0x46>
  4021ca:	2001      	movs	r0, #1
  4021cc:	4770      	bx	lr
  4021ce:	2000      	movs	r0, #0
  4021d0:	4770      	bx	lr
  4021d2:	2000      	movs	r0, #0
  4021d4:	4770      	bx	lr
  4021d6:	bf00      	nop
  4021d8:	400e0600 	.word	0x400e0600

004021dc <pmc_switch_mainck_to_xtal>:
  4021dc:	b9a0      	cbnz	r0, 402208 <pmc_switch_mainck_to_xtal+0x2c>
  4021de:	480e      	ldr	r0, [pc, #56]	; (402218 <pmc_switch_mainck_to_xtal+0x3c>)
  4021e0:	6a03      	ldr	r3, [r0, #32]
  4021e2:	0209      	lsls	r1, r1, #8
  4021e4:	b289      	uxth	r1, r1
  4021e6:	4a0d      	ldr	r2, [pc, #52]	; (40221c <pmc_switch_mainck_to_xtal+0x40>)
  4021e8:	401a      	ands	r2, r3
  4021ea:	4b0d      	ldr	r3, [pc, #52]	; (402220 <pmc_switch_mainck_to_xtal+0x44>)
  4021ec:	4313      	orrs	r3, r2
  4021ee:	4319      	orrs	r1, r3
  4021f0:	6201      	str	r1, [r0, #32]
  4021f2:	4602      	mov	r2, r0
  4021f4:	6e93      	ldr	r3, [r2, #104]	; 0x68
  4021f6:	f013 0f01 	tst.w	r3, #1
  4021fa:	d0fb      	beq.n	4021f4 <pmc_switch_mainck_to_xtal+0x18>
  4021fc:	4a06      	ldr	r2, [pc, #24]	; (402218 <pmc_switch_mainck_to_xtal+0x3c>)
  4021fe:	6a11      	ldr	r1, [r2, #32]
  402200:	4b08      	ldr	r3, [pc, #32]	; (402224 <pmc_switch_mainck_to_xtal+0x48>)
  402202:	430b      	orrs	r3, r1
  402204:	6213      	str	r3, [r2, #32]
  402206:	4770      	bx	lr
  402208:	4903      	ldr	r1, [pc, #12]	; (402218 <pmc_switch_mainck_to_xtal+0x3c>)
  40220a:	6a0b      	ldr	r3, [r1, #32]
  40220c:	4a06      	ldr	r2, [pc, #24]	; (402228 <pmc_switch_mainck_to_xtal+0x4c>)
  40220e:	401a      	ands	r2, r3
  402210:	4b06      	ldr	r3, [pc, #24]	; (40222c <pmc_switch_mainck_to_xtal+0x50>)
  402212:	4313      	orrs	r3, r2
  402214:	620b      	str	r3, [r1, #32]
  402216:	4770      	bx	lr
  402218:	400e0600 	.word	0x400e0600
  40221c:	ffc8fffc 	.word	0xffc8fffc
  402220:	00370001 	.word	0x00370001
  402224:	01370000 	.word	0x01370000
  402228:	fec8fffc 	.word	0xfec8fffc
  40222c:	01370002 	.word	0x01370002

00402230 <pmc_osc_is_ready_mainck>:
  402230:	4b02      	ldr	r3, [pc, #8]	; (40223c <pmc_osc_is_ready_mainck+0xc>)
  402232:	6e98      	ldr	r0, [r3, #104]	; 0x68
  402234:	f400 3080 	and.w	r0, r0, #65536	; 0x10000
  402238:	4770      	bx	lr
  40223a:	bf00      	nop
  40223c:	400e0600 	.word	0x400e0600

00402240 <pmc_disable_pllack>:
  402240:	f04f 5200 	mov.w	r2, #536870912	; 0x20000000
  402244:	4b01      	ldr	r3, [pc, #4]	; (40224c <pmc_disable_pllack+0xc>)
  402246:	629a      	str	r2, [r3, #40]	; 0x28
  402248:	4770      	bx	lr
  40224a:	bf00      	nop
  40224c:	400e0600 	.word	0x400e0600

00402250 <pmc_is_locked_pllack>:
  402250:	4b02      	ldr	r3, [pc, #8]	; (40225c <pmc_is_locked_pllack+0xc>)
  402252:	6e98      	ldr	r0, [r3, #104]	; 0x68
  402254:	f000 0002 	and.w	r0, r0, #2
  402258:	4770      	bx	lr
  40225a:	bf00      	nop
  40225c:	400e0600 	.word	0x400e0600

00402260 <pmc_enable_periph_clk>:
  402260:	f000 007f 	and.w	r0, r0, #127	; 0x7f
  402264:	4b05      	ldr	r3, [pc, #20]	; (40227c <pmc_enable_periph_clk+0x1c>)
  402266:	f8c3 010c 	str.w	r0, [r3, #268]	; 0x10c
  40226a:	f8d3 210c 	ldr.w	r2, [r3, #268]	; 0x10c
  40226e:	f042 2210 	orr.w	r2, r2, #268439552	; 0x10001000
  402272:	f8c3 210c 	str.w	r2, [r3, #268]	; 0x10c
  402276:	2000      	movs	r0, #0
  402278:	4770      	bx	lr
  40227a:	bf00      	nop
  40227c:	400e0600 	.word	0x400e0600

00402280 <Dummy_Handler>:
  402280:	e7fe      	b.n	402280 <Dummy_Handler>
	...

00402284 <Reset_Handler>:
  402284:	b500      	push	{lr}
  402286:	b083      	sub	sp, #12
  402288:	4b25      	ldr	r3, [pc, #148]	; (402320 <Reset_Handler+0x9c>)
  40228a:	4a26      	ldr	r2, [pc, #152]	; (402324 <Reset_Handler+0xa0>)
  40228c:	429a      	cmp	r2, r3
  40228e:	d010      	beq.n	4022b2 <Reset_Handler+0x2e>
  402290:	4b25      	ldr	r3, [pc, #148]	; (402328 <Reset_Handler+0xa4>)
  402292:	4a23      	ldr	r2, [pc, #140]	; (402320 <Reset_Handler+0x9c>)
  402294:	429a      	cmp	r2, r3
  402296:	d20c      	bcs.n	4022b2 <Reset_Handler+0x2e>
  402298:	3b01      	subs	r3, #1
  40229a:	1a9b      	subs	r3, r3, r2
  40229c:	f023 0303 	bic.w	r3, r3, #3
  4022a0:	3304      	adds	r3, #4
  4022a2:	4413      	add	r3, r2
  4022a4:	491f      	ldr	r1, [pc, #124]	; (402324 <Reset_Handler+0xa0>)
  4022a6:	f851 0b04 	ldr.w	r0, [r1], #4
  4022aa:	f842 0b04 	str.w	r0, [r2], #4
  4022ae:	429a      	cmp	r2, r3
  4022b0:	d1f9      	bne.n	4022a6 <Reset_Handler+0x22>
  4022b2:	4b1e      	ldr	r3, [pc, #120]	; (40232c <Reset_Handler+0xa8>)
  4022b4:	4a1e      	ldr	r2, [pc, #120]	; (402330 <Reset_Handler+0xac>)
  4022b6:	429a      	cmp	r2, r3
  4022b8:	d20a      	bcs.n	4022d0 <Reset_Handler+0x4c>
  4022ba:	3b01      	subs	r3, #1
  4022bc:	1a9b      	subs	r3, r3, r2
  4022be:	f023 0303 	bic.w	r3, r3, #3
  4022c2:	3304      	adds	r3, #4
  4022c4:	4413      	add	r3, r2
  4022c6:	2100      	movs	r1, #0
  4022c8:	f842 1b04 	str.w	r1, [r2], #4
  4022cc:	4293      	cmp	r3, r2
  4022ce:	d1fb      	bne.n	4022c8 <Reset_Handler+0x44>
  4022d0:	4a18      	ldr	r2, [pc, #96]	; (402334 <Reset_Handler+0xb0>)
  4022d2:	4b19      	ldr	r3, [pc, #100]	; (402338 <Reset_Handler+0xb4>)
  4022d4:	f023 037f 	bic.w	r3, r3, #127	; 0x7f
  4022d8:	6093      	str	r3, [r2, #8]
  4022da:	f3ef 8310 	mrs	r3, PRIMASK
  4022de:	fab3 f383 	clz	r3, r3
  4022e2:	095b      	lsrs	r3, r3, #5
  4022e4:	9301      	str	r3, [sp, #4]
  4022e6:	b672      	cpsid	i
  4022e8:	f3bf 8f5f 	dmb	sy
  4022ec:	2200      	movs	r2, #0
  4022ee:	4b13      	ldr	r3, [pc, #76]	; (40233c <Reset_Handler+0xb8>)
  4022f0:	701a      	strb	r2, [r3, #0]
  4022f2:	9901      	ldr	r1, [sp, #4]
  4022f4:	4a12      	ldr	r2, [pc, #72]	; (402340 <Reset_Handler+0xbc>)
  4022f6:	6813      	ldr	r3, [r2, #0]
  4022f8:	f443 0370 	orr.w	r3, r3, #15728640	; 0xf00000
  4022fc:	6013      	str	r3, [r2, #0]
  4022fe:	f3bf 8f4f 	dsb	sy
  402302:	f3bf 8f6f 	isb	sy
  402306:	b129      	cbz	r1, 402314 <Reset_Handler+0x90>
  402308:	2201      	movs	r2, #1
  40230a:	4b0c      	ldr	r3, [pc, #48]	; (40233c <Reset_Handler+0xb8>)
  40230c:	701a      	strb	r2, [r3, #0]
  40230e:	f3bf 8f5f 	dmb	sy
  402312:	b662      	cpsie	i
  402314:	4b0b      	ldr	r3, [pc, #44]	; (402344 <Reset_Handler+0xc0>)
  402316:	4798      	blx	r3
  402318:	4b0b      	ldr	r3, [pc, #44]	; (402348 <Reset_Handler+0xc4>)
  40231a:	4798      	blx	r3
  40231c:	e7fe      	b.n	40231c <Reset_Handler+0x98>
  40231e:	bf00      	nop
  402320:	20400000 	.word	0x20400000
  402324:	00406078 	.word	0x00406078
  402328:	204009d8 	.word	0x204009d8
  40232c:	2040832c 	.word	0x2040832c
  402330:	204009d8 	.word	0x204009d8
  402334:	e000ed00 	.word	0xe000ed00
  402338:	00400000 	.word	0x00400000
  40233c:	20400024 	.word	0x20400024
  402340:	e000ed88 	.word	0xe000ed88
  402344:	00402d85 	.word	0x00402d85
  402348:	004026e5 	.word	0x004026e5

0040234c <SystemCoreClockUpdate>:
  40234c:	4b3b      	ldr	r3, [pc, #236]	; (40243c <SystemCoreClockUpdate+0xf0>)
  40234e:	6b1b      	ldr	r3, [r3, #48]	; 0x30
  402350:	f003 0303 	and.w	r3, r3, #3
  402354:	2b01      	cmp	r3, #1
  402356:	d01d      	beq.n	402394 <SystemCoreClockUpdate+0x48>
  402358:	b183      	cbz	r3, 40237c <SystemCoreClockUpdate+0x30>
  40235a:	2b02      	cmp	r3, #2
  40235c:	d036      	beq.n	4023cc <SystemCoreClockUpdate+0x80>
  40235e:	4b37      	ldr	r3, [pc, #220]	; (40243c <SystemCoreClockUpdate+0xf0>)
  402360:	6b1b      	ldr	r3, [r3, #48]	; 0x30
  402362:	f003 0370 	and.w	r3, r3, #112	; 0x70
  402366:	2b70      	cmp	r3, #112	; 0x70
  402368:	d05f      	beq.n	40242a <SystemCoreClockUpdate+0xde>
  40236a:	4b34      	ldr	r3, [pc, #208]	; (40243c <SystemCoreClockUpdate+0xf0>)
  40236c:	6b1a      	ldr	r2, [r3, #48]	; 0x30
  40236e:	4934      	ldr	r1, [pc, #208]	; (402440 <SystemCoreClockUpdate+0xf4>)
  402370:	f3c2 1202 	ubfx	r2, r2, #4, #3
  402374:	680b      	ldr	r3, [r1, #0]
  402376:	40d3      	lsrs	r3, r2
  402378:	600b      	str	r3, [r1, #0]
  40237a:	4770      	bx	lr
  40237c:	4b31      	ldr	r3, [pc, #196]	; (402444 <SystemCoreClockUpdate+0xf8>)
  40237e:	695b      	ldr	r3, [r3, #20]
  402380:	f013 0f80 	tst.w	r3, #128	; 0x80
  402384:	bf14      	ite	ne
  402386:	f44f 4200 	movne.w	r2, #32768	; 0x8000
  40238a:	f44f 42fa 	moveq.w	r2, #32000	; 0x7d00
  40238e:	4b2c      	ldr	r3, [pc, #176]	; (402440 <SystemCoreClockUpdate+0xf4>)
  402390:	601a      	str	r2, [r3, #0]
  402392:	e7e4      	b.n	40235e <SystemCoreClockUpdate+0x12>
  402394:	4b29      	ldr	r3, [pc, #164]	; (40243c <SystemCoreClockUpdate+0xf0>)
  402396:	6a1b      	ldr	r3, [r3, #32]
  402398:	f013 7f80 	tst.w	r3, #16777216	; 0x1000000
  40239c:	d003      	beq.n	4023a6 <SystemCoreClockUpdate+0x5a>
  40239e:	4a2a      	ldr	r2, [pc, #168]	; (402448 <SystemCoreClockUpdate+0xfc>)
  4023a0:	4b27      	ldr	r3, [pc, #156]	; (402440 <SystemCoreClockUpdate+0xf4>)
  4023a2:	601a      	str	r2, [r3, #0]
  4023a4:	e7db      	b.n	40235e <SystemCoreClockUpdate+0x12>
  4023a6:	4a29      	ldr	r2, [pc, #164]	; (40244c <SystemCoreClockUpdate+0x100>)
  4023a8:	4b25      	ldr	r3, [pc, #148]	; (402440 <SystemCoreClockUpdate+0xf4>)
  4023aa:	601a      	str	r2, [r3, #0]
  4023ac:	4b23      	ldr	r3, [pc, #140]	; (40243c <SystemCoreClockUpdate+0xf0>)
  4023ae:	6a1b      	ldr	r3, [r3, #32]
  4023b0:	f003 0370 	and.w	r3, r3, #112	; 0x70
  4023b4:	2b10      	cmp	r3, #16
  4023b6:	d005      	beq.n	4023c4 <SystemCoreClockUpdate+0x78>
  4023b8:	2b20      	cmp	r3, #32
  4023ba:	d1d0      	bne.n	40235e <SystemCoreClockUpdate+0x12>
  4023bc:	4a22      	ldr	r2, [pc, #136]	; (402448 <SystemCoreClockUpdate+0xfc>)
  4023be:	4b20      	ldr	r3, [pc, #128]	; (402440 <SystemCoreClockUpdate+0xf4>)
  4023c0:	601a      	str	r2, [r3, #0]
  4023c2:	e7cc      	b.n	40235e <SystemCoreClockUpdate+0x12>
  4023c4:	4a22      	ldr	r2, [pc, #136]	; (402450 <SystemCoreClockUpdate+0x104>)
  4023c6:	4b1e      	ldr	r3, [pc, #120]	; (402440 <SystemCoreClockUpdate+0xf4>)
  4023c8:	601a      	str	r2, [r3, #0]
  4023ca:	e7c8      	b.n	40235e <SystemCoreClockUpdate+0x12>
  4023cc:	4b1b      	ldr	r3, [pc, #108]	; (40243c <SystemCoreClockUpdate+0xf0>)
  4023ce:	6a1b      	ldr	r3, [r3, #32]
  4023d0:	f013 7f80 	tst.w	r3, #16777216	; 0x1000000
  4023d4:	d016      	beq.n	402404 <SystemCoreClockUpdate+0xb8>
  4023d6:	4a1c      	ldr	r2, [pc, #112]	; (402448 <SystemCoreClockUpdate+0xfc>)
  4023d8:	4b19      	ldr	r3, [pc, #100]	; (402440 <SystemCoreClockUpdate+0xf4>)
  4023da:	601a      	str	r2, [r3, #0]
  4023dc:	4b17      	ldr	r3, [pc, #92]	; (40243c <SystemCoreClockUpdate+0xf0>)
  4023de:	6b1b      	ldr	r3, [r3, #48]	; 0x30
  4023e0:	f003 0303 	and.w	r3, r3, #3
  4023e4:	2b02      	cmp	r3, #2
  4023e6:	d1ba      	bne.n	40235e <SystemCoreClockUpdate+0x12>
  4023e8:	4a14      	ldr	r2, [pc, #80]	; (40243c <SystemCoreClockUpdate+0xf0>)
  4023ea:	6a91      	ldr	r1, [r2, #40]	; 0x28
  4023ec:	6a92      	ldr	r2, [r2, #40]	; 0x28
  4023ee:	4814      	ldr	r0, [pc, #80]	; (402440 <SystemCoreClockUpdate+0xf4>)
  4023f0:	f3c1 410a 	ubfx	r1, r1, #16, #11
  4023f4:	6803      	ldr	r3, [r0, #0]
  4023f6:	fb01 3303 	mla	r3, r1, r3, r3
  4023fa:	b2d2      	uxtb	r2, r2
  4023fc:	fbb3 f3f2 	udiv	r3, r3, r2
  402400:	6003      	str	r3, [r0, #0]
  402402:	e7ac      	b.n	40235e <SystemCoreClockUpdate+0x12>
  402404:	4a11      	ldr	r2, [pc, #68]	; (40244c <SystemCoreClockUpdate+0x100>)
  402406:	4b0e      	ldr	r3, [pc, #56]	; (402440 <SystemCoreClockUpdate+0xf4>)
  402408:	601a      	str	r2, [r3, #0]
  40240a:	4b0c      	ldr	r3, [pc, #48]	; (40243c <SystemCoreClockUpdate+0xf0>)
  40240c:	6a1b      	ldr	r3, [r3, #32]
  40240e:	f003 0370 	and.w	r3, r3, #112	; 0x70
  402412:	2b10      	cmp	r3, #16
  402414:	d005      	beq.n	402422 <SystemCoreClockUpdate+0xd6>
  402416:	2b20      	cmp	r3, #32
  402418:	d1e0      	bne.n	4023dc <SystemCoreClockUpdate+0x90>
  40241a:	4a0b      	ldr	r2, [pc, #44]	; (402448 <SystemCoreClockUpdate+0xfc>)
  40241c:	4b08      	ldr	r3, [pc, #32]	; (402440 <SystemCoreClockUpdate+0xf4>)
  40241e:	601a      	str	r2, [r3, #0]
  402420:	e7dc      	b.n	4023dc <SystemCoreClockUpdate+0x90>
  402422:	4a0b      	ldr	r2, [pc, #44]	; (402450 <SystemCoreClockUpdate+0x104>)
  402424:	4b06      	ldr	r3, [pc, #24]	; (402440 <SystemCoreClockUpdate+0xf4>)
  402426:	601a      	str	r2, [r3, #0]
  402428:	e7d8      	b.n	4023dc <SystemCoreClockUpdate+0x90>
  40242a:	4a05      	ldr	r2, [pc, #20]	; (402440 <SystemCoreClockUpdate+0xf4>)
  40242c:	6813      	ldr	r3, [r2, #0]
  40242e:	4909      	ldr	r1, [pc, #36]	; (402454 <SystemCoreClockUpdate+0x108>)
  402430:	fba1 1303 	umull	r1, r3, r1, r3
  402434:	085b      	lsrs	r3, r3, #1
  402436:	6013      	str	r3, [r2, #0]
  402438:	4770      	bx	lr
  40243a:	bf00      	nop
  40243c:	400e0600 	.word	0x400e0600
  402440:	20400028 	.word	0x20400028
  402444:	400e1810 	.word	0x400e1810
  402448:	00b71b00 	.word	0x00b71b00
  40244c:	003d0900 	.word	0x003d0900
  402450:	007a1200 	.word	0x007a1200
  402454:	aaaaaaab 	.word	0xaaaaaaab

00402458 <system_init_flash>:
  402458:	4b16      	ldr	r3, [pc, #88]	; (4024b4 <system_init_flash+0x5c>)
  40245a:	4298      	cmp	r0, r3
  40245c:	d913      	bls.n	402486 <system_init_flash+0x2e>
  40245e:	4b16      	ldr	r3, [pc, #88]	; (4024b8 <system_init_flash+0x60>)
  402460:	4298      	cmp	r0, r3
  402462:	d915      	bls.n	402490 <system_init_flash+0x38>
  402464:	4b15      	ldr	r3, [pc, #84]	; (4024bc <system_init_flash+0x64>)
  402466:	4298      	cmp	r0, r3
  402468:	d916      	bls.n	402498 <system_init_flash+0x40>
  40246a:	4b15      	ldr	r3, [pc, #84]	; (4024c0 <system_init_flash+0x68>)
  40246c:	4298      	cmp	r0, r3
  40246e:	d917      	bls.n	4024a0 <system_init_flash+0x48>
  402470:	4b14      	ldr	r3, [pc, #80]	; (4024c4 <system_init_flash+0x6c>)
  402472:	4298      	cmp	r0, r3
  402474:	d918      	bls.n	4024a8 <system_init_flash+0x50>
  402476:	4b14      	ldr	r3, [pc, #80]	; (4024c8 <system_init_flash+0x70>)
  402478:	4298      	cmp	r0, r3
  40247a:	bf94      	ite	ls
  40247c:	4a13      	ldrls	r2, [pc, #76]	; (4024cc <system_init_flash+0x74>)
  40247e:	4a14      	ldrhi	r2, [pc, #80]	; (4024d0 <system_init_flash+0x78>)
  402480:	4b14      	ldr	r3, [pc, #80]	; (4024d4 <system_init_flash+0x7c>)
  402482:	601a      	str	r2, [r3, #0]
  402484:	4770      	bx	lr
  402486:	f04f 6280 	mov.w	r2, #67108864	; 0x4000000
  40248a:	4b12      	ldr	r3, [pc, #72]	; (4024d4 <system_init_flash+0x7c>)
  40248c:	601a      	str	r2, [r3, #0]
  40248e:	4770      	bx	lr
  402490:	4a11      	ldr	r2, [pc, #68]	; (4024d8 <system_init_flash+0x80>)
  402492:	4b10      	ldr	r3, [pc, #64]	; (4024d4 <system_init_flash+0x7c>)
  402494:	601a      	str	r2, [r3, #0]
  402496:	4770      	bx	lr
  402498:	4a10      	ldr	r2, [pc, #64]	; (4024dc <system_init_flash+0x84>)
  40249a:	4b0e      	ldr	r3, [pc, #56]	; (4024d4 <system_init_flash+0x7c>)
  40249c:	601a      	str	r2, [r3, #0]
  40249e:	4770      	bx	lr
  4024a0:	4a0f      	ldr	r2, [pc, #60]	; (4024e0 <system_init_flash+0x88>)
  4024a2:	4b0c      	ldr	r3, [pc, #48]	; (4024d4 <system_init_flash+0x7c>)
  4024a4:	601a      	str	r2, [r3, #0]
  4024a6:	4770      	bx	lr
  4024a8:	f04f 2204 	mov.w	r2, #67109888	; 0x4000400
  4024ac:	4b09      	ldr	r3, [pc, #36]	; (4024d4 <system_init_flash+0x7c>)
  4024ae:	601a      	str	r2, [r3, #0]
  4024b0:	4770      	bx	lr
  4024b2:	bf00      	nop
  4024b4:	015ef3bf 	.word	0x015ef3bf
  4024b8:	02bde77f 	.word	0x02bde77f
  4024bc:	041cdb3f 	.word	0x041cdb3f
  4024c0:	057bceff 	.word	0x057bceff
  4024c4:	06dac2bf 	.word	0x06dac2bf
  4024c8:	0839b67f 	.word	0x0839b67f
  4024cc:	04000500 	.word	0x04000500
  4024d0:	04000600 	.word	0x04000600
  4024d4:	400e0c00 	.word	0x400e0c00
  4024d8:	04000100 	.word	0x04000100
  4024dc:	04000200 	.word	0x04000200
  4024e0:	04000300 	.word	0x04000300

004024e4 <_sbrk>:
  4024e4:	4b0a      	ldr	r3, [pc, #40]	; (402510 <_sbrk+0x2c>)
  4024e6:	681b      	ldr	r3, [r3, #0]
  4024e8:	b153      	cbz	r3, 402500 <_sbrk+0x1c>
  4024ea:	4b09      	ldr	r3, [pc, #36]	; (402510 <_sbrk+0x2c>)
  4024ec:	681b      	ldr	r3, [r3, #0]
  4024ee:	181a      	adds	r2, r3, r0
  4024f0:	4908      	ldr	r1, [pc, #32]	; (402514 <_sbrk+0x30>)
  4024f2:	4291      	cmp	r1, r2
  4024f4:	db08      	blt.n	402508 <_sbrk+0x24>
  4024f6:	4610      	mov	r0, r2
  4024f8:	4a05      	ldr	r2, [pc, #20]	; (402510 <_sbrk+0x2c>)
  4024fa:	6010      	str	r0, [r2, #0]
  4024fc:	4618      	mov	r0, r3
  4024fe:	4770      	bx	lr
  402500:	4a05      	ldr	r2, [pc, #20]	; (402518 <_sbrk+0x34>)
  402502:	4b03      	ldr	r3, [pc, #12]	; (402510 <_sbrk+0x2c>)
  402504:	601a      	str	r2, [r3, #0]
  402506:	e7f0      	b.n	4024ea <_sbrk+0x6>
  402508:	f04f 30ff 	mov.w	r0, #4294967295
  40250c:	4770      	bx	lr
  40250e:	bf00      	nop
  402510:	204072a0 	.word	0x204072a0
  402514:	2045fffc 	.word	0x2045fffc
  402518:	2040a530 	.word	0x2040a530

0040251c <_close>:
  40251c:	f04f 30ff 	mov.w	r0, #4294967295
  402520:	4770      	bx	lr

00402522 <_fstat>:
  402522:	f44f 5300 	mov.w	r3, #8192	; 0x2000
  402526:	604b      	str	r3, [r1, #4]
  402528:	2000      	movs	r0, #0
  40252a:	4770      	bx	lr

0040252c <_isatty>:
  40252c:	2001      	movs	r0, #1
  40252e:	4770      	bx	lr

00402530 <_lseek>:
  402530:	2000      	movs	r0, #0
  402532:	4770      	bx	lr

00402534 <usart_serial_getchar>:
 * \param p_usart   Base address of the USART instance.
 * \param data   Data to read
 *
 */
static inline void usart_serial_getchar(usart_if p_usart, uint8_t *data)
{
  402534:	b5f0      	push	{r4, r5, r6, r7, lr}
  402536:	b083      	sub	sp, #12
  402538:	4605      	mov	r5, r0
  40253a:	460c      	mov	r4, r1
	uint32_t val = 0;
  40253c:	2300      	movs	r3, #0
  40253e:	9301      	str	r3, [sp, #4]
	if (UART == (Uart*)p_usart) {
		while (uart_read((Uart*)p_usart, data));
	}
#else
# ifdef UART0
	if (UART0 == (Uart*)p_usart) {
  402540:	4b2a      	ldr	r3, [pc, #168]	; (4025ec <usart_serial_getchar+0xb8>)
  402542:	4298      	cmp	r0, r3
  402544:	d013      	beq.n	40256e <usart_serial_getchar+0x3a>
		while (uart_read((Uart*)p_usart, data));
	}
# endif
# ifdef UART1
	if (UART1 == (Uart*)p_usart) {
  402546:	4b2a      	ldr	r3, [pc, #168]	; (4025f0 <usart_serial_getchar+0xbc>)
  402548:	4298      	cmp	r0, r3
  40254a:	d018      	beq.n	40257e <usart_serial_getchar+0x4a>
		while (uart_read((Uart*)p_usart, data));
	}
# endif
# ifdef UART2
	if (UART2 == (Uart*)p_usart) {
  40254c:	4b29      	ldr	r3, [pc, #164]	; (4025f4 <usart_serial_getchar+0xc0>)
  40254e:	4298      	cmp	r0, r3
  402550:	d01d      	beq.n	40258e <usart_serial_getchar+0x5a>
		while (uart_read((Uart*)p_usart, data));
	}
# endif
# ifdef UART3
	if (UART3 == (Uart*)p_usart) {
  402552:	4b29      	ldr	r3, [pc, #164]	; (4025f8 <usart_serial_getchar+0xc4>)
  402554:	429d      	cmp	r5, r3
  402556:	d022      	beq.n	40259e <usart_serial_getchar+0x6a>
		while (usart_read(p_usart, &val));
		*data = (uint8_t)(val & 0xFF);
	}
#else
# ifdef USART0
	if (USART0 == p_usart) {
  402558:	4b28      	ldr	r3, [pc, #160]	; (4025fc <usart_serial_getchar+0xc8>)
  40255a:	429d      	cmp	r5, r3
  40255c:	d027      	beq.n	4025ae <usart_serial_getchar+0x7a>
		while (usart_read(p_usart, &val));
		*data = (uint8_t)(val & 0xFF);
	}
# endif
# ifdef USART1
	if (USART1 == p_usart) {
  40255e:	4b28      	ldr	r3, [pc, #160]	; (402600 <usart_serial_getchar+0xcc>)
  402560:	429d      	cmp	r5, r3
  402562:	d02e      	beq.n	4025c2 <usart_serial_getchar+0x8e>
		while (usart_read(p_usart, &val));
		*data = (uint8_t)(val & 0xFF);
	}
# endif
# ifdef USART2
	if (USART2 == p_usart) {
  402564:	4b27      	ldr	r3, [pc, #156]	; (402604 <usart_serial_getchar+0xd0>)
  402566:	429d      	cmp	r5, r3
  402568:	d035      	beq.n	4025d6 <usart_serial_getchar+0xa2>
		*data = (uint8_t)(val & 0xFF);
	}
# endif
#endif /* ifdef USART */

}
  40256a:	b003      	add	sp, #12
  40256c:	bdf0      	pop	{r4, r5, r6, r7, pc}
		while (uart_read((Uart*)p_usart, data));
  40256e:	461f      	mov	r7, r3
  402570:	4e25      	ldr	r6, [pc, #148]	; (402608 <usart_serial_getchar+0xd4>)
  402572:	4621      	mov	r1, r4
  402574:	4638      	mov	r0, r7
  402576:	47b0      	blx	r6
  402578:	2800      	cmp	r0, #0
  40257a:	d1fa      	bne.n	402572 <usart_serial_getchar+0x3e>
  40257c:	e7e9      	b.n	402552 <usart_serial_getchar+0x1e>
		while (uart_read((Uart*)p_usart, data));
  40257e:	461f      	mov	r7, r3
  402580:	4e21      	ldr	r6, [pc, #132]	; (402608 <usart_serial_getchar+0xd4>)
  402582:	4621      	mov	r1, r4
  402584:	4638      	mov	r0, r7
  402586:	47b0      	blx	r6
  402588:	2800      	cmp	r0, #0
  40258a:	d1fa      	bne.n	402582 <usart_serial_getchar+0x4e>
  40258c:	e7e4      	b.n	402558 <usart_serial_getchar+0x24>
		while (uart_read((Uart*)p_usart, data));
  40258e:	461f      	mov	r7, r3
  402590:	4e1d      	ldr	r6, [pc, #116]	; (402608 <usart_serial_getchar+0xd4>)
  402592:	4621      	mov	r1, r4
  402594:	4638      	mov	r0, r7
  402596:	47b0      	blx	r6
  402598:	2800      	cmp	r0, #0
  40259a:	d1fa      	bne.n	402592 <usart_serial_getchar+0x5e>
  40259c:	e7df      	b.n	40255e <usart_serial_getchar+0x2a>
		while (uart_read((Uart*)p_usart, data));
  40259e:	461f      	mov	r7, r3
  4025a0:	4e19      	ldr	r6, [pc, #100]	; (402608 <usart_serial_getchar+0xd4>)
  4025a2:	4621      	mov	r1, r4
  4025a4:	4638      	mov	r0, r7
  4025a6:	47b0      	blx	r6
  4025a8:	2800      	cmp	r0, #0
  4025aa:	d1fa      	bne.n	4025a2 <usart_serial_getchar+0x6e>
  4025ac:	e7da      	b.n	402564 <usart_serial_getchar+0x30>
		while (usart_read(p_usart, &val));
  4025ae:	461e      	mov	r6, r3
  4025b0:	4d16      	ldr	r5, [pc, #88]	; (40260c <usart_serial_getchar+0xd8>)
  4025b2:	a901      	add	r1, sp, #4
  4025b4:	4630      	mov	r0, r6
  4025b6:	47a8      	blx	r5
  4025b8:	2800      	cmp	r0, #0
  4025ba:	d1fa      	bne.n	4025b2 <usart_serial_getchar+0x7e>
		*data = (uint8_t)(val & 0xFF);
  4025bc:	9b01      	ldr	r3, [sp, #4]
  4025be:	7023      	strb	r3, [r4, #0]
  4025c0:	e7d3      	b.n	40256a <usart_serial_getchar+0x36>
		while (usart_read(p_usart, &val));
  4025c2:	461e      	mov	r6, r3
  4025c4:	4d11      	ldr	r5, [pc, #68]	; (40260c <usart_serial_getchar+0xd8>)
  4025c6:	a901      	add	r1, sp, #4
  4025c8:	4630      	mov	r0, r6
  4025ca:	47a8      	blx	r5
  4025cc:	2800      	cmp	r0, #0
  4025ce:	d1fa      	bne.n	4025c6 <usart_serial_getchar+0x92>
		*data = (uint8_t)(val & 0xFF);
  4025d0:	9b01      	ldr	r3, [sp, #4]
  4025d2:	7023      	strb	r3, [r4, #0]
  4025d4:	e7c9      	b.n	40256a <usart_serial_getchar+0x36>
		while (usart_read(p_usart, &val));
  4025d6:	461e      	mov	r6, r3
  4025d8:	4d0c      	ldr	r5, [pc, #48]	; (40260c <usart_serial_getchar+0xd8>)
  4025da:	a901      	add	r1, sp, #4
  4025dc:	4630      	mov	r0, r6
  4025de:	47a8      	blx	r5
  4025e0:	2800      	cmp	r0, #0
  4025e2:	d1fa      	bne.n	4025da <usart_serial_getchar+0xa6>
		*data = (uint8_t)(val & 0xFF);
  4025e4:	9b01      	ldr	r3, [sp, #4]
  4025e6:	7023      	strb	r3, [r4, #0]
}
  4025e8:	e7bf      	b.n	40256a <usart_serial_getchar+0x36>
  4025ea:	bf00      	nop
  4025ec:	400e0800 	.word	0x400e0800
  4025f0:	400e0a00 	.word	0x400e0a00
  4025f4:	400e1a00 	.word	0x400e1a00
  4025f8:	400e1c00 	.word	0x400e1c00
  4025fc:	40024000 	.word	0x40024000
  402600:	40028000 	.word	0x40028000
  402604:	4002c000 	.word	0x4002c000
  402608:	00401c85 	.word	0x00401c85
  40260c:	00400a1b 	.word	0x00400a1b

00402610 <usart_serial_putchar>:
{
  402610:	b570      	push	{r4, r5, r6, lr}
  402612:	460c      	mov	r4, r1
	if (UART0 == (Uart*)p_usart) {
  402614:	4b2a      	ldr	r3, [pc, #168]	; (4026c0 <usart_serial_putchar+0xb0>)
  402616:	4298      	cmp	r0, r3
  402618:	d013      	beq.n	402642 <usart_serial_putchar+0x32>
	if (UART1 == (Uart*)p_usart) {
  40261a:	4b2a      	ldr	r3, [pc, #168]	; (4026c4 <usart_serial_putchar+0xb4>)
  40261c:	4298      	cmp	r0, r3
  40261e:	d019      	beq.n	402654 <usart_serial_putchar+0x44>
	if (UART2 == (Uart*)p_usart) {
  402620:	4b29      	ldr	r3, [pc, #164]	; (4026c8 <usart_serial_putchar+0xb8>)
  402622:	4298      	cmp	r0, r3
  402624:	d01f      	beq.n	402666 <usart_serial_putchar+0x56>
	if (UART3 == (Uart*)p_usart) {
  402626:	4b29      	ldr	r3, [pc, #164]	; (4026cc <usart_serial_putchar+0xbc>)
  402628:	4298      	cmp	r0, r3
  40262a:	d025      	beq.n	402678 <usart_serial_putchar+0x68>
	if (USART0 == p_usart) {
  40262c:	4b28      	ldr	r3, [pc, #160]	; (4026d0 <usart_serial_putchar+0xc0>)
  40262e:	4298      	cmp	r0, r3
  402630:	d02b      	beq.n	40268a <usart_serial_putchar+0x7a>
	if (USART1 == p_usart) {
  402632:	4b28      	ldr	r3, [pc, #160]	; (4026d4 <usart_serial_putchar+0xc4>)
  402634:	4298      	cmp	r0, r3
  402636:	d031      	beq.n	40269c <usart_serial_putchar+0x8c>
	if (USART2 == p_usart) {
  402638:	4b27      	ldr	r3, [pc, #156]	; (4026d8 <usart_serial_putchar+0xc8>)
  40263a:	4298      	cmp	r0, r3
  40263c:	d037      	beq.n	4026ae <usart_serial_putchar+0x9e>
	return 0;
  40263e:	2000      	movs	r0, #0
}
  402640:	bd70      	pop	{r4, r5, r6, pc}
		while (uart_write((Uart*)p_usart, c)!=0);
  402642:	461e      	mov	r6, r3
  402644:	4d25      	ldr	r5, [pc, #148]	; (4026dc <usart_serial_putchar+0xcc>)
  402646:	4621      	mov	r1, r4
  402648:	4630      	mov	r0, r6
  40264a:	47a8      	blx	r5
  40264c:	2800      	cmp	r0, #0
  40264e:	d1fa      	bne.n	402646 <usart_serial_putchar+0x36>
		return 1;
  402650:	2001      	movs	r0, #1
  402652:	bd70      	pop	{r4, r5, r6, pc}
		while (uart_write((Uart*)p_usart, c)!=0);
  402654:	461e      	mov	r6, r3
  402656:	4d21      	ldr	r5, [pc, #132]	; (4026dc <usart_serial_putchar+0xcc>)
  402658:	4621      	mov	r1, r4
  40265a:	4630      	mov	r0, r6
  40265c:	47a8      	blx	r5
  40265e:	2800      	cmp	r0, #0
  402660:	d1fa      	bne.n	402658 <usart_serial_putchar+0x48>
		return 1;
  402662:	2001      	movs	r0, #1
  402664:	bd70      	pop	{r4, r5, r6, pc}
		while (uart_write((Uart*)p_usart, c)!=0);
  402666:	461e      	mov	r6, r3
  402668:	4d1c      	ldr	r5, [pc, #112]	; (4026dc <usart_serial_putchar+0xcc>)
  40266a:	4621      	mov	r1, r4
  40266c:	4630      	mov	r0, r6
  40266e:	47a8      	blx	r5
  402670:	2800      	cmp	r0, #0
  402672:	d1fa      	bne.n	40266a <usart_serial_putchar+0x5a>
		return 1;
  402674:	2001      	movs	r0, #1
  402676:	bd70      	pop	{r4, r5, r6, pc}
		while (uart_write((Uart*)p_usart, c)!=0);
  402678:	461e      	mov	r6, r3
  40267a:	4d18      	ldr	r5, [pc, #96]	; (4026dc <usart_serial_putchar+0xcc>)
  40267c:	4621      	mov	r1, r4
  40267e:	4630      	mov	r0, r6
  402680:	47a8      	blx	r5
  402682:	2800      	cmp	r0, #0
  402684:	d1fa      	bne.n	40267c <usart_serial_putchar+0x6c>
		return 1;
  402686:	2001      	movs	r0, #1
  402688:	bd70      	pop	{r4, r5, r6, pc}
		while (usart_write(p_usart, c)!=0);
  40268a:	461e      	mov	r6, r3
  40268c:	4d14      	ldr	r5, [pc, #80]	; (4026e0 <usart_serial_putchar+0xd0>)
  40268e:	4621      	mov	r1, r4
  402690:	4630      	mov	r0, r6
  402692:	47a8      	blx	r5
  402694:	2800      	cmp	r0, #0
  402696:	d1fa      	bne.n	40268e <usart_serial_putchar+0x7e>
		return 1;
  402698:	2001      	movs	r0, #1
  40269a:	bd70      	pop	{r4, r5, r6, pc}
		while (usart_write(p_usart, c)!=0);
  40269c:	461e      	mov	r6, r3
  40269e:	4d10      	ldr	r5, [pc, #64]	; (4026e0 <usart_serial_putchar+0xd0>)
  4026a0:	4621      	mov	r1, r4
  4026a2:	4630      	mov	r0, r6
  4026a4:	47a8      	blx	r5
  4026a6:	2800      	cmp	r0, #0
  4026a8:	d1fa      	bne.n	4026a0 <usart_serial_putchar+0x90>
		return 1;
  4026aa:	2001      	movs	r0, #1
  4026ac:	bd70      	pop	{r4, r5, r6, pc}
		while (usart_write(p_usart, c)!=0);
  4026ae:	461e      	mov	r6, r3
  4026b0:	4d0b      	ldr	r5, [pc, #44]	; (4026e0 <usart_serial_putchar+0xd0>)
  4026b2:	4621      	mov	r1, r4
  4026b4:	4630      	mov	r0, r6
  4026b6:	47a8      	blx	r5
  4026b8:	2800      	cmp	r0, #0
  4026ba:	d1fa      	bne.n	4026b2 <usart_serial_putchar+0xa2>
		return 1;
  4026bc:	2001      	movs	r0, #1
  4026be:	bd70      	pop	{r4, r5, r6, pc}
  4026c0:	400e0800 	.word	0x400e0800
  4026c4:	400e0a00 	.word	0x400e0a00
  4026c8:	400e1a00 	.word	0x400e1a00
  4026cc:	400e1c00 	.word	0x400e1c00
  4026d0:	40024000 	.word	0x40024000
  4026d4:	40028000 	.word	0x40028000
  4026d8:	4002c000 	.word	0x4002c000
  4026dc:	00401c73 	.word	0x00401c73
  4026e0:	00400a05 	.word	0x00400a05

004026e4 <main>:
		currentNode++;
	}//end for-loop
}

int main (void)
{
  4026e4:	e92d 4ff0 	stmdb	sp!, {r4, r5, r6, r7, r8, r9, sl, fp, lr}
  4026e8:	b08b      	sub	sp, #44	; 0x2c
	/* Insert system clock initialization code here (sysclk_init()). */
	sysclk_init();
  4026ea:	4b97      	ldr	r3, [pc, #604]	; (402948 <main+0x264>)
  4026ec:	4798      	blx	r3
	board_init();
  4026ee:	4b97      	ldr	r3, [pc, #604]	; (40294c <main+0x268>)
  4026f0:	4798      	blx	r3
 *
 * \param ul_id Id (number) of the peripheral clock.
 */
static inline void sysclk_enable_peripheral_clock(uint32_t ul_id)
{
	pmc_enable_periph_clk(ul_id);
  4026f2:	200e      	movs	r0, #14
  4026f4:	4e96      	ldr	r6, [pc, #600]	; (402950 <main+0x26c>)
  4026f6:	47b0      	blx	r6
 * \param opt         Options needed to set up RS232 communication (see \ref usart_options_t).
 *
 */
static inline void stdio_serial_init(volatile void *usart, const usart_serial_options_t *opt)
{
	stdio_base = (void *)usart;
  4026f8:	4d96      	ldr	r5, [pc, #600]	; (402954 <main+0x270>)
  4026fa:	4b97      	ldr	r3, [pc, #604]	; (402958 <main+0x274>)
  4026fc:	601d      	str	r5, [r3, #0]
	ptr_put = (int (*)(void volatile*,char))&usart_serial_putchar;
  4026fe:	4a97      	ldr	r2, [pc, #604]	; (40295c <main+0x278>)
  402700:	4b97      	ldr	r3, [pc, #604]	; (402960 <main+0x27c>)
  402702:	601a      	str	r2, [r3, #0]
	ptr_get = (void (*)(void volatile*,char*))&usart_serial_getchar;
  402704:	4a97      	ldr	r2, [pc, #604]	; (402964 <main+0x280>)
  402706:	4b98      	ldr	r3, [pc, #608]	; (402968 <main+0x284>)
  402708:	601a      	str	r2, [r3, #0]
	usart_settings.baudrate = opt->baudrate;
  40270a:	f44f 33e1 	mov.w	r3, #115200	; 0x1c200
  40270e:	9304      	str	r3, [sp, #16]
	usart_settings.char_length = opt->charlength;
  402710:	23c0      	movs	r3, #192	; 0xc0
  402712:	9305      	str	r3, [sp, #20]
	usart_settings.parity_type = opt->paritytype;
  402714:	f44f 6300 	mov.w	r3, #2048	; 0x800
  402718:	9306      	str	r3, [sp, #24]
	usart_settings.stop_bits= opt->stopbits;
  40271a:	2400      	movs	r4, #0
  40271c:	9407      	str	r4, [sp, #28]
	usart_settings.channel_mode= US_MR_CHMODE_NORMAL;
  40271e:	9408      	str	r4, [sp, #32]
  402720:	200e      	movs	r0, #14
  402722:	47b0      	blx	r6
		usart_init_rs232(p_usart, &usart_settings,
  402724:	4a91      	ldr	r2, [pc, #580]	; (40296c <main+0x288>)
  402726:	a904      	add	r1, sp, #16
  402728:	4628      	mov	r0, r5
  40272a:	4b91      	ldr	r3, [pc, #580]	; (402970 <main+0x28c>)
  40272c:	4798      	blx	r3
		usart_enable_tx(p_usart);
  40272e:	4628      	mov	r0, r5
  402730:	4b90      	ldr	r3, [pc, #576]	; (402974 <main+0x290>)
  402732:	4798      	blx	r3
		usart_enable_rx(p_usart);
  402734:	4628      	mov	r0, r5
  402736:	4b90      	ldr	r3, [pc, #576]	; (402978 <main+0x294>)
  402738:	4798      	blx	r3
	fdevopen((int (*)(char, FILE*))(_write),(int (*)(FILE*))(_read));
#  endif
#  if UC3 || SAM
	// For AVR32 and SAM GCC
	// Specify that stdout and stdin should not be buffered.
	setbuf(stdout, NULL);
  40273a:	4e90      	ldr	r6, [pc, #576]	; (40297c <main+0x298>)
  40273c:	6833      	ldr	r3, [r6, #0]
  40273e:	4621      	mov	r1, r4
  402740:	6898      	ldr	r0, [r3, #8]
  402742:	4d8f      	ldr	r5, [pc, #572]	; (402980 <main+0x29c>)
  402744:	47a8      	blx	r5
	setbuf(stdin, NULL);
  402746:	6833      	ldr	r3, [r6, #0]
  402748:	4621      	mov	r1, r4
  40274a:	6858      	ldr	r0, [r3, #4]
  40274c:	47a8      	blx	r5
#ifdef _DEBUG_
	/* Initialize the console UART. */
	configure_console();
#endif

	puts(STRING_HEADER);
  40274e:	488d      	ldr	r0, [pc, #564]	; (402984 <main+0x2a0>)
  402750:	4b8d      	ldr	r3, [pc, #564]	; (402988 <main+0x2a4>)
  402752:	4798      	blx	r3
	
	if (!init_gmac_ethernet())
  402754:	4b8d      	ldr	r3, [pc, #564]	; (40298c <main+0x2a8>)
  402756:	4798      	blx	r3
  402758:	2800      	cmp	r0, #0
  40275a:	f000 8179 	beq.w	402a50 <main+0x36c>
	}
	
#ifdef _DEBUG_
	// Display MAC & IP settings
	printf("-- MAC %x:%x:%x:%x:%x:%x\n\r",
	gs_uc_mac_address[0], gs_uc_mac_address[1], gs_uc_mac_address[2],
  40275e:	488c      	ldr	r0, [pc, #560]	; (402990 <main+0x2ac>)
	printf("-- MAC %x:%x:%x:%x:%x:%x\n\r",
  402760:	7883      	ldrb	r3, [r0, #2]
  402762:	7842      	ldrb	r2, [r0, #1]
  402764:	7801      	ldrb	r1, [r0, #0]
  402766:	7944      	ldrb	r4, [r0, #5]
  402768:	9402      	str	r4, [sp, #8]
  40276a:	7904      	ldrb	r4, [r0, #4]
  40276c:	9401      	str	r4, [sp, #4]
  40276e:	78c0      	ldrb	r0, [r0, #3]
  402770:	9000      	str	r0, [sp, #0]
  402772:	4888      	ldr	r0, [pc, #544]	; (402994 <main+0x2b0>)
  402774:	4c88      	ldr	r4, [pc, #544]	; (402998 <main+0x2b4>)
  402776:	47a0      	blx	r4
	gs_uc_mac_address[3], gs_uc_mac_address[4], gs_uc_mac_address[5]);

	printf("-- IP  %d.%d.%d.%d\n\r", gs_uc_ip_address[0], gs_uc_ip_address[1],
	gs_uc_ip_address[2], gs_uc_ip_address[3]);
  402778:	4888      	ldr	r0, [pc, #544]	; (40299c <main+0x2b8>)
	printf("-- IP  %d.%d.%d.%d\n\r", gs_uc_ip_address[0], gs_uc_ip_address[1],
  40277a:	7883      	ldrb	r3, [r0, #2]
  40277c:	7842      	ldrb	r2, [r0, #1]
  40277e:	7801      	ldrb	r1, [r0, #0]
  402780:	78c0      	ldrb	r0, [r0, #3]
  402782:	9000      	str	r0, [sp, #0]
  402784:	4886      	ldr	r0, [pc, #536]	; (4029a0 <main+0x2bc>)
  402786:	47a0      	blx	r4
	
	puts("link detected\r");
  402788:	4886      	ldr	r0, [pc, #536]	; (4029a4 <main+0x2c0>)
  40278a:	4b7f      	ldr	r3, [pc, #508]	; (402988 <main+0x2a4>)
  40278c:	4798      	blx	r3
#endif

	spi_master_initialize();
  40278e:	4b86      	ldr	r3, [pc, #536]	; (4029a8 <main+0x2c4>)
  402790:	4798      	blx	r3
	nRF24_begin();
  402792:	4b86      	ldr	r3, [pc, #536]	; (4029ac <main+0x2c8>)
  402794:	4798      	blx	r3
	nRF24_setPALevel(RF_PA_MIN);
  402796:	2000      	movs	r0, #0
  402798:	4b85      	ldr	r3, [pc, #532]	; (4029b0 <main+0x2cc>)
  40279a:	4798      	blx	r3
	nRF24_stopListening();
  40279c:	4b85      	ldr	r3, [pc, #532]	; (4029b4 <main+0x2d0>)
  40279e:	4798      	blx	r3
	
#ifdef _DEBUG_
	printDetails();
  4027a0:	4b85      	ldr	r3, [pc, #532]	; (4029b8 <main+0x2d4>)
  4027a2:	4798      	blx	r3
					dataOut.destAddr = listeningPipes[4];
  4027a4:	f8df b24c 	ldr.w	fp, [pc, #588]	; 4029f4 <main+0x310>
					dataOut.destAddr = listeningPipes[2];
  4027a8:	f8df a24c 	ldr.w	sl, [pc, #588]	; 4029f8 <main+0x314>
#endif	
	
	while(1)
	{
		// Process packets
		if (GMAC_OK != read_dev_gmac()) {
  4027ac:	4b83      	ldr	r3, [pc, #524]	; (4029bc <main+0x2d8>)
  4027ae:	4798      	blx	r3
  4027b0:	2800      	cmp	r0, #0
  4027b2:	d1fb      	bne.n	4027ac <main+0xc8>
			continue; // return to while(1){}
		}

		if (ul_frm_size_rx > 0) {
  4027b4:	4b82      	ldr	r3, [pc, #520]	; (4029c0 <main+0x2dc>)
  4027b6:	6819      	ldr	r1, [r3, #0]
  4027b8:	2900      	cmp	r1, #0
  4027ba:	d0f7      	beq.n	4027ac <main+0xc8>
			// Handle input frame
			gmac_process_eth_packet((uint8_t *) gs_uc_eth_buffer_rx, ul_frm_size_rx);
  4027bc:	4881      	ldr	r0, [pc, #516]	; (4029c4 <main+0x2e0>)
  4027be:	4b82      	ldr	r3, [pc, #520]	; (4029c8 <main+0x2e4>)
  4027c0:	4798      	blx	r3
  4027c2:	4e82      	ldr	r6, [pc, #520]	; (4029cc <main+0x2e8>)
  4027c4:	4d82      	ldr	r5, [pc, #520]	; (4029d0 <main+0x2ec>)
  4027c6:	2401      	movs	r4, #1
				nRF24_openWritingPipe(listeningPipes[currentNode]);
  4027c8:	4f82      	ldr	r7, [pc, #520]	; (4029d4 <main+0x2f0>)
					dataOut.destAddr = listeningPipes[1];
  4027ca:	f8df 9230 	ldr.w	r9, [pc, #560]	; 4029fc <main+0x318>
  4027ce:	e00e      	b.n	4027ee <main+0x10a>
					nRF24_openWritingPipe(listeningPipes[currentNode]);
  4027d0:	f04f 0800 	mov.w	r8, #0
  4027d4:	6868      	ldr	r0, [r5, #4]
  4027d6:	4641      	mov	r1, r8
  4027d8:	47b8      	blx	r7
					dataOut.command = 0;
  4027da:	487f      	ldr	r0, [pc, #508]	; (4029d8 <main+0x2f4>)
  4027dc:	f880 8006 	strb.w	r8, [r0, #6]
					nRF24_write(&dataOut, sizeof(dataOut));
  4027e0:	2108      	movs	r1, #8
  4027e2:	4b7e      	ldr	r3, [pc, #504]	; (4029dc <main+0x2f8>)
  4027e4:	4798      	blx	r3
  4027e6:	3401      	adds	r4, #1
  4027e8:	3504      	adds	r5, #4
	for(uint16_t i = artnetDmxAddress-1; i < (artnetDmxAddress + nodes); i++)
  4027ea:	2c07      	cmp	r4, #7
  4027ec:	d0de      	beq.n	4027ac <main+0xc8>
		dmxValue = artnet_data_buffer[i];
  4027ee:	f816 3f01 	ldrb.w	r3, [r6, #1]!
			if(dmxValue <= 10)
  4027f2:	2b0a      	cmp	r3, #10
  4027f4:	d9ec      	bls.n	4027d0 <main+0xec>
			else if(dmxValue >= 11 && dmxValue <= 20)
  4027f6:	f1a3 020b 	sub.w	r2, r3, #11
  4027fa:	b2d2      	uxtb	r2, r2
  4027fc:	2a09      	cmp	r2, #9
  4027fe:	d931      	bls.n	402864 <main+0x180>
			else if(dmxValue >= 21 && dmxValue <= 30)
  402800:	f1a3 0215 	sub.w	r2, r3, #21
  402804:	b2d2      	uxtb	r2, r2
  402806:	2a09      	cmp	r2, #9
  402808:	d93a      	bls.n	402880 <main+0x19c>
			else if(dmxValue >= 31 && dmxValue <= 40)
  40280a:	f1a3 021f 	sub.w	r2, r3, #31
  40280e:	b2d2      	uxtb	r2, r2
  402810:	2a09      	cmp	r2, #9
  402812:	d94c      	bls.n	4028ae <main+0x1ca>
			else if(dmxValue >= 41 && dmxValue <= 50)
  402814:	f1a3 0229 	sub.w	r2, r3, #41	; 0x29
  402818:	b2d2      	uxtb	r2, r2
  40281a:	2a09      	cmp	r2, #9
  40281c:	d961      	bls.n	4028e2 <main+0x1fe>
			else if(dmxValue >= 51 && dmxValue <= 60)
  40281e:	f1a3 0233 	sub.w	r2, r3, #51	; 0x33
  402822:	b2d2      	uxtb	r2, r2
  402824:	2a09      	cmp	r2, #9
  402826:	d976      	bls.n	402916 <main+0x232>
			else if (dmxValue >= 91 && dmxValue <= 100)
  402828:	f1a3 025b 	sub.w	r2, r3, #91	; 0x5b
  40282c:	b2d2      	uxtb	r2, r2
  40282e:	2a09      	cmp	r2, #9
  402830:	f240 80e6 	bls.w	402a00 <main+0x31c>
			else if(dmxValue >= 101 && dmxValue <= 230)
  402834:	f1a3 0865 	sub.w	r8, r3, #101	; 0x65
  402838:	fa5f f888 	uxtb.w	r8, r8
  40283c:	f1b8 0f81 	cmp.w	r8, #129	; 0x81
  402840:	f240 80f0 	bls.w	402a24 <main+0x340>
			else if(dmxValue >= 231 && dmxValue <= 255)
  402844:	2be6      	cmp	r3, #230	; 0xe6
  402846:	d9ce      	bls.n	4027e6 <main+0x102>
				nRF24_openWritingPipe(listeningPipes[currentNode]);
  402848:	6868      	ldr	r0, [r5, #4]
  40284a:	2100      	movs	r1, #0
  40284c:	47b8      	blx	r7
				dataOut.command = 4;
  40284e:	4862      	ldr	r0, [pc, #392]	; (4029d8 <main+0x2f4>)
  402850:	2304      	movs	r3, #4
  402852:	7183      	strb	r3, [r0, #6]
				nRF24_write(&dataOut, sizeof(dataOut));
  402854:	2108      	movs	r1, #8
  402856:	4b61      	ldr	r3, [pc, #388]	; (4029dc <main+0x2f8>)
  402858:	4798      	blx	r3
				printf("Reset node %d\r\n", currentNode);
  40285a:	4621      	mov	r1, r4
  40285c:	4860      	ldr	r0, [pc, #384]	; (4029e0 <main+0x2fc>)
  40285e:	4b4e      	ldr	r3, [pc, #312]	; (402998 <main+0x2b4>)
  402860:	4798      	blx	r3
  402862:	e7c0      	b.n	4027e6 <main+0x102>
					nRF24_openWritingPipe(listeningPipes[currentNode]);
  402864:	6868      	ldr	r0, [r5, #4]
  402866:	2100      	movs	r1, #0
  402868:	47b8      	blx	r7
					dataOut.command = 1;
  40286a:	485b      	ldr	r0, [pc, #364]	; (4029d8 <main+0x2f4>)
  40286c:	2301      	movs	r3, #1
  40286e:	7183      	strb	r3, [r0, #6]
					nRF24_write(&dataOut, sizeof(dataOut));
  402870:	2108      	movs	r1, #8
  402872:	4b5a      	ldr	r3, [pc, #360]	; (4029dc <main+0x2f8>)
  402874:	4798      	blx	r3
					printf("Node %d read own sensor\r\n", currentNode);
  402876:	4621      	mov	r1, r4
  402878:	485a      	ldr	r0, [pc, #360]	; (4029e4 <main+0x300>)
  40287a:	4b47      	ldr	r3, [pc, #284]	; (402998 <main+0x2b4>)
  40287c:	4798      	blx	r3
  40287e:	e7b2      	b.n	4027e6 <main+0x102>
				nRF24_openWritingPipe(listeningPipes[currentNode]);
  402880:	6868      	ldr	r0, [r5, #4]
  402882:	2100      	movs	r1, #0
  402884:	47b8      	blx	r7
				dataOut.command = 2;
  402886:	2202      	movs	r2, #2
  402888:	4b53      	ldr	r3, [pc, #332]	; (4029d8 <main+0x2f4>)
  40288a:	719a      	strb	r2, [r3, #6]
				if (currentNode == 1)
  40288c:	b2e3      	uxtb	r3, r4
  40288e:	2b01      	cmp	r3, #1
					dataOut.destAddr = listeningPipes[2];
  402890:	4b51      	ldr	r3, [pc, #324]	; (4029d8 <main+0x2f4>)
  402892:	bf0c      	ite	eq
  402894:	f8c3 a000 	streq.w	sl, [r3]
					dataOut.destAddr = listeningPipes[1];
  402898:	f8c3 9000 	strne.w	r9, [r3]
				nRF24_write(&dataOut, sizeof(dataOut));
  40289c:	2108      	movs	r1, #8
  40289e:	484e      	ldr	r0, [pc, #312]	; (4029d8 <main+0x2f4>)
  4028a0:	4b4e      	ldr	r3, [pc, #312]	; (4029dc <main+0x2f8>)
  4028a2:	4798      	blx	r3
				printf("Send data from node %d to other node\r\n", currentNode);
  4028a4:	4621      	mov	r1, r4
  4028a6:	4850      	ldr	r0, [pc, #320]	; (4029e8 <main+0x304>)
  4028a8:	4b3b      	ldr	r3, [pc, #236]	; (402998 <main+0x2b4>)
  4028aa:	4798      	blx	r3
  4028ac:	e79b      	b.n	4027e6 <main+0x102>
				nRF24_openWritingPipe(listeningPipes[currentNode]);
  4028ae:	6868      	ldr	r0, [r5, #4]
  4028b0:	2100      	movs	r1, #0
  4028b2:	47b8      	blx	r7
				dataOut.command = 2;
  4028b4:	2202      	movs	r2, #2
  4028b6:	4b48      	ldr	r3, [pc, #288]	; (4029d8 <main+0x2f4>)
  4028b8:	719a      	strb	r2, [r3, #6]
				if (currentNode == 1 || currentNode == 2)
  4028ba:	1e63      	subs	r3, r4, #1
  4028bc:	b2db      	uxtb	r3, r3
  4028be:	2b01      	cmp	r3, #1
  4028c0:	d90b      	bls.n	4028da <main+0x1f6>
					dataOut.destAddr = listeningPipes[2];
  4028c2:	4b45      	ldr	r3, [pc, #276]	; (4029d8 <main+0x2f4>)
  4028c4:	f8c3 a000 	str.w	sl, [r3]
				nRF24_write(&dataOut, sizeof(dataOut));
  4028c8:	2108      	movs	r1, #8
  4028ca:	4843      	ldr	r0, [pc, #268]	; (4029d8 <main+0x2f4>)
  4028cc:	4b43      	ldr	r3, [pc, #268]	; (4029dc <main+0x2f8>)
  4028ce:	4798      	blx	r3
				printf("Send data from node %d to other node\r\n", currentNode);
  4028d0:	4621      	mov	r1, r4
  4028d2:	4845      	ldr	r0, [pc, #276]	; (4029e8 <main+0x304>)
  4028d4:	4b30      	ldr	r3, [pc, #192]	; (402998 <main+0x2b4>)
  4028d6:	4798      	blx	r3
  4028d8:	e785      	b.n	4027e6 <main+0x102>
					dataOut.destAddr = listeningPipes[3];
  4028da:	4b3f      	ldr	r3, [pc, #252]	; (4029d8 <main+0x2f4>)
  4028dc:	4a43      	ldr	r2, [pc, #268]	; (4029ec <main+0x308>)
  4028de:	601a      	str	r2, [r3, #0]
  4028e0:	e7f2      	b.n	4028c8 <main+0x1e4>
				nRF24_openWritingPipe(listeningPipes[currentNode]);
  4028e2:	6868      	ldr	r0, [r5, #4]
  4028e4:	2100      	movs	r1, #0
  4028e6:	47b8      	blx	r7
				dataOut.command = 2;
  4028e8:	2202      	movs	r2, #2
  4028ea:	4b3b      	ldr	r3, [pc, #236]	; (4029d8 <main+0x2f4>)
  4028ec:	719a      	strb	r2, [r3, #6]
				if (currentNode == 4 || currentNode == 5)
  4028ee:	1f23      	subs	r3, r4, #4
  4028f0:	b2db      	uxtb	r3, r3
  4028f2:	2b01      	cmp	r3, #1
  4028f4:	d90b      	bls.n	40290e <main+0x22a>
					dataOut.destAddr = listeningPipes[4];
  4028f6:	4b38      	ldr	r3, [pc, #224]	; (4029d8 <main+0x2f4>)
  4028f8:	f8c3 b000 	str.w	fp, [r3]
				nRF24_write(&dataOut, sizeof(dataOut));
  4028fc:	2108      	movs	r1, #8
  4028fe:	4836      	ldr	r0, [pc, #216]	; (4029d8 <main+0x2f4>)
  402900:	4b36      	ldr	r3, [pc, #216]	; (4029dc <main+0x2f8>)
  402902:	4798      	blx	r3
				printf("Send data from node %d to other node\r\n", currentNode);
  402904:	4621      	mov	r1, r4
  402906:	4838      	ldr	r0, [pc, #224]	; (4029e8 <main+0x304>)
  402908:	4b23      	ldr	r3, [pc, #140]	; (402998 <main+0x2b4>)
  40290a:	4798      	blx	r3
  40290c:	e76b      	b.n	4027e6 <main+0x102>
					dataOut.destAddr = listeningPipes[3];
  40290e:	4b32      	ldr	r3, [pc, #200]	; (4029d8 <main+0x2f4>)
  402910:	4a36      	ldr	r2, [pc, #216]	; (4029ec <main+0x308>)
  402912:	601a      	str	r2, [r3, #0]
  402914:	e7f2      	b.n	4028fc <main+0x218>
				nRF24_openWritingPipe(listeningPipes[currentNode]);
  402916:	6868      	ldr	r0, [r5, #4]
  402918:	2100      	movs	r1, #0
  40291a:	47b8      	blx	r7
				dataOut.command = 2;
  40291c:	2202      	movs	r2, #2
  40291e:	4b2e      	ldr	r3, [pc, #184]	; (4029d8 <main+0x2f4>)
  402920:	719a      	strb	r2, [r3, #6]
				if (currentNode == 5)
  402922:	b2e3      	uxtb	r3, r4
  402924:	2b05      	cmp	r3, #5
  402926:	d00b      	beq.n	402940 <main+0x25c>
					dataOut.destAddr = listeningPipes[5];
  402928:	4a31      	ldr	r2, [pc, #196]	; (4029f0 <main+0x30c>)
  40292a:	4b2b      	ldr	r3, [pc, #172]	; (4029d8 <main+0x2f4>)
  40292c:	601a      	str	r2, [r3, #0]
				nRF24_write(&dataOut, sizeof(dataOut));
  40292e:	2108      	movs	r1, #8
  402930:	4829      	ldr	r0, [pc, #164]	; (4029d8 <main+0x2f4>)
  402932:	4b2a      	ldr	r3, [pc, #168]	; (4029dc <main+0x2f8>)
  402934:	4798      	blx	r3
				printf("Send data from node %d to other node\r\n", currentNode);
  402936:	4621      	mov	r1, r4
  402938:	482b      	ldr	r0, [pc, #172]	; (4029e8 <main+0x304>)
  40293a:	4b17      	ldr	r3, [pc, #92]	; (402998 <main+0x2b4>)
  40293c:	4798      	blx	r3
  40293e:	e752      	b.n	4027e6 <main+0x102>
					dataOut.destAddr = listeningPipes[4];
  402940:	4b25      	ldr	r3, [pc, #148]	; (4029d8 <main+0x2f4>)
  402942:	f8c3 b000 	str.w	fp, [r3]
  402946:	e7f2      	b.n	40292e <main+0x24a>
  402948:	00401d4d 	.word	0x00401d4d
  40294c:	00401dbd 	.word	0x00401dbd
  402950:	00402261 	.word	0x00402261
  402954:	40028000 	.word	0x40028000
  402958:	204082f0 	.word	0x204082f0
  40295c:	00402611 	.word	0x00402611
  402960:	204082ec 	.word	0x204082ec
  402964:	00402535 	.word	0x00402535
  402968:	204072d8 	.word	0x204072d8
  40296c:	08f0d180 	.word	0x08f0d180
  402970:	004009a5 	.word	0x004009a5
  402974:	004009f9 	.word	0x004009f9
  402978:	004009ff 	.word	0x004009ff
  40297c:	2040002c 	.word	0x2040002c
  402980:	00403079 	.word	0x00403079
  402984:	00405dac 	.word	0x00405dac
  402988:	00403069 	.word	0x00403069
  40298c:	00400aed 	.word	0x00400aed
  402990:	20400018 	.word	0x20400018
  402994:	00405e00 	.word	0x00405e00
  402998:	00402dd5 	.word	0x00402dd5
  40299c:	20400014 	.word	0x20400014
  4029a0:	00405e1c 	.word	0x00405e1c
  4029a4:	00405e34 	.word	0x00405e34
  4029a8:	004014e5 	.word	0x004014e5
  4029ac:	00401359 	.word	0x00401359
  4029b0:	00401075 	.word	0x00401075
  4029b4:	004012a5 	.word	0x004012a5
  4029b8:	004010b9 	.word	0x004010b9
  4029bc:	00400a35 	.word	0x00400a35
  4029c0:	204082d0 	.word	0x204082d0
  4029c4:	204075d4 	.word	0x204075d4
  4029c8:	00400c29 	.word	0x00400c29
  4029cc:	204072dc 	.word	0x204072dc
  4029d0:	00405d94 	.word	0x00405d94
  4029d4:	004013f1 	.word	0x004013f1
  4029d8:	204082fc 	.word	0x204082fc
  4029dc:	0040142d 	.word	0x0040142d
  4029e0:	00405ed4 	.word	0x00405ed4
  4029e4:	00405e44 	.word	0x00405e44
  4029e8:	00405e60 	.word	0x00405e60
  4029ec:	3a3a3ad1 	.word	0x3a3a3ad1
  4029f0:	3a3a3a0a 	.word	0x3a3a3a0a
  4029f4:	3a3a3ae1 	.word	0x3a3a3ae1
  4029f8:	3a3a3ac1 	.word	0x3a3a3ac1
  4029fc:	3a3a3ab1 	.word	0x3a3a3ab1
				nRF24_openWritingPipe(listeningPipes[currentNode]);
  402a00:	f04f 0800 	mov.w	r8, #0
  402a04:	6868      	ldr	r0, [r5, #4]
  402a06:	4641      	mov	r1, r8
  402a08:	47b8      	blx	r7
				dataOut.command = 2;
  402a0a:	4814      	ldr	r0, [pc, #80]	; (402a5c <main+0x378>)
  402a0c:	2302      	movs	r3, #2
  402a0e:	7183      	strb	r3, [r0, #6]
				dataOut.destAddr = listeningPipes[6];
  402a10:	f8c0 8000 	str.w	r8, [r0]
				nRF24_write(&dataOut, sizeof(dataOut));
  402a14:	2108      	movs	r1, #8
  402a16:	4b12      	ldr	r3, [pc, #72]	; (402a60 <main+0x37c>)
  402a18:	4798      	blx	r3
				printf("Send data from node %d to Midi node\r\n", currentNode);
  402a1a:	4621      	mov	r1, r4
  402a1c:	4811      	ldr	r0, [pc, #68]	; (402a64 <main+0x380>)
  402a1e:	4b12      	ldr	r3, [pc, #72]	; (402a68 <main+0x384>)
  402a20:	4798      	blx	r3
  402a22:	e6e0      	b.n	4027e6 <main+0x102>
				nRF24_openWritingPipe(listeningPipes[currentNode]);
  402a24:	6868      	ldr	r0, [r5, #4]
  402a26:	2100      	movs	r1, #0
  402a28:	47b8      	blx	r7
	return (x - in_min) * (out_max - out_min) / (in_max - in_min) + out_min;
  402a2a:	ebc8 2808 	rsb	r8, r8, r8, lsl #8
  402a2e:	4b0f      	ldr	r3, [pc, #60]	; (402a6c <main+0x388>)
  402a30:	fb83 3208 	smull	r3, r2, r3, r8
  402a34:	ea4f 78e8 	mov.w	r8, r8, asr #31
  402a38:	ebc8 02e2 	rsb	r2, r8, r2, asr #3
				dataOut.datavalue = m_dmx;
  402a3c:	4b07      	ldr	r3, [pc, #28]	; (402a5c <main+0x378>)
  402a3e:	b2d2      	uxtb	r2, r2
  402a40:	809a      	strh	r2, [r3, #4]
				dataOut.command = 3;
  402a42:	2103      	movs	r1, #3
  402a44:	7199      	strb	r1, [r3, #6]
				printf("connect desk to node %d for %d\r\n", currentNode, m_dmx);
  402a46:	4621      	mov	r1, r4
  402a48:	4809      	ldr	r0, [pc, #36]	; (402a70 <main+0x38c>)
  402a4a:	4b07      	ldr	r3, [pc, #28]	; (402a68 <main+0x384>)
  402a4c:	4798      	blx	r3
  402a4e:	e6ca      	b.n	4027e6 <main+0x102>
			artnetToCommand();
		}//end of process
	}//end of loop
}//end of program
  402a50:	f04f 30ff 	mov.w	r0, #4294967295
  402a54:	b00b      	add	sp, #44	; 0x2c
  402a56:	e8bd 8ff0 	ldmia.w	sp!, {r4, r5, r6, r7, r8, r9, sl, fp, pc}
  402a5a:	bf00      	nop
  402a5c:	204082fc 	.word	0x204082fc
  402a60:	0040142d 	.word	0x0040142d
  402a64:	00405e88 	.word	0x00405e88
  402a68:	00402dd5 	.word	0x00402dd5
  402a6c:	0fe03f81 	.word	0x0fe03f81
  402a70:	00405eb0 	.word	0x00405eb0

00402a74 <__aeabi_uldivmod>:
  402a74:	b953      	cbnz	r3, 402a8c <__aeabi_uldivmod+0x18>
  402a76:	b94a      	cbnz	r2, 402a8c <__aeabi_uldivmod+0x18>
  402a78:	2900      	cmp	r1, #0
  402a7a:	bf08      	it	eq
  402a7c:	2800      	cmpeq	r0, #0
  402a7e:	bf1c      	itt	ne
  402a80:	f04f 31ff 	movne.w	r1, #4294967295
  402a84:	f04f 30ff 	movne.w	r0, #4294967295
  402a88:	f000 b97a 	b.w	402d80 <__aeabi_idiv0>
  402a8c:	f1ad 0c08 	sub.w	ip, sp, #8
  402a90:	e96d ce04 	strd	ip, lr, [sp, #-16]!
  402a94:	f000 f806 	bl	402aa4 <__udivmoddi4>
  402a98:	f8dd e004 	ldr.w	lr, [sp, #4]
  402a9c:	e9dd 2302 	ldrd	r2, r3, [sp, #8]
  402aa0:	b004      	add	sp, #16
  402aa2:	4770      	bx	lr

00402aa4 <__udivmoddi4>:
  402aa4:	e92d 47f0 	stmdb	sp!, {r4, r5, r6, r7, r8, r9, sl, lr}
  402aa8:	468c      	mov	ip, r1
  402aaa:	460d      	mov	r5, r1
  402aac:	4604      	mov	r4, r0
  402aae:	9e08      	ldr	r6, [sp, #32]
  402ab0:	2b00      	cmp	r3, #0
  402ab2:	d151      	bne.n	402b58 <__udivmoddi4+0xb4>
  402ab4:	428a      	cmp	r2, r1
  402ab6:	4617      	mov	r7, r2
  402ab8:	d96d      	bls.n	402b96 <__udivmoddi4+0xf2>
  402aba:	fab2 fe82 	clz	lr, r2
  402abe:	f1be 0f00 	cmp.w	lr, #0
  402ac2:	d00b      	beq.n	402adc <__udivmoddi4+0x38>
  402ac4:	f1ce 0c20 	rsb	ip, lr, #32
  402ac8:	fa01 f50e 	lsl.w	r5, r1, lr
  402acc:	fa20 fc0c 	lsr.w	ip, r0, ip
  402ad0:	fa02 f70e 	lsl.w	r7, r2, lr
  402ad4:	ea4c 0c05 	orr.w	ip, ip, r5
  402ad8:	fa00 f40e 	lsl.w	r4, r0, lr
  402adc:	ea4f 4a17 	mov.w	sl, r7, lsr #16
  402ae0:	0c25      	lsrs	r5, r4, #16
  402ae2:	fbbc f8fa 	udiv	r8, ip, sl
  402ae6:	fa1f f987 	uxth.w	r9, r7
  402aea:	fb0a cc18 	mls	ip, sl, r8, ip
  402aee:	ea45 450c 	orr.w	r5, r5, ip, lsl #16
  402af2:	fb08 f309 	mul.w	r3, r8, r9
  402af6:	42ab      	cmp	r3, r5
  402af8:	d90a      	bls.n	402b10 <__udivmoddi4+0x6c>
  402afa:	19ed      	adds	r5, r5, r7
  402afc:	f108 32ff 	add.w	r2, r8, #4294967295
  402b00:	f080 8123 	bcs.w	402d4a <__udivmoddi4+0x2a6>
  402b04:	42ab      	cmp	r3, r5
  402b06:	f240 8120 	bls.w	402d4a <__udivmoddi4+0x2a6>
  402b0a:	f1a8 0802 	sub.w	r8, r8, #2
  402b0e:	443d      	add	r5, r7
  402b10:	1aed      	subs	r5, r5, r3
  402b12:	b2a4      	uxth	r4, r4
  402b14:	fbb5 f0fa 	udiv	r0, r5, sl
  402b18:	fb0a 5510 	mls	r5, sl, r0, r5
  402b1c:	ea44 4405 	orr.w	r4, r4, r5, lsl #16
  402b20:	fb00 f909 	mul.w	r9, r0, r9
  402b24:	45a1      	cmp	r9, r4
  402b26:	d909      	bls.n	402b3c <__udivmoddi4+0x98>
  402b28:	19e4      	adds	r4, r4, r7
  402b2a:	f100 33ff 	add.w	r3, r0, #4294967295
  402b2e:	f080 810a 	bcs.w	402d46 <__udivmoddi4+0x2a2>
  402b32:	45a1      	cmp	r9, r4
  402b34:	f240 8107 	bls.w	402d46 <__udivmoddi4+0x2a2>
  402b38:	3802      	subs	r0, #2
  402b3a:	443c      	add	r4, r7
  402b3c:	eba4 0409 	sub.w	r4, r4, r9
  402b40:	ea40 4008 	orr.w	r0, r0, r8, lsl #16
  402b44:	2100      	movs	r1, #0
  402b46:	2e00      	cmp	r6, #0
  402b48:	d061      	beq.n	402c0e <__udivmoddi4+0x16a>
  402b4a:	fa24 f40e 	lsr.w	r4, r4, lr
  402b4e:	2300      	movs	r3, #0
  402b50:	6034      	str	r4, [r6, #0]
  402b52:	6073      	str	r3, [r6, #4]
  402b54:	e8bd 87f0 	ldmia.w	sp!, {r4, r5, r6, r7, r8, r9, sl, pc}
  402b58:	428b      	cmp	r3, r1
  402b5a:	d907      	bls.n	402b6c <__udivmoddi4+0xc8>
  402b5c:	2e00      	cmp	r6, #0
  402b5e:	d054      	beq.n	402c0a <__udivmoddi4+0x166>
  402b60:	2100      	movs	r1, #0
  402b62:	e886 0021 	stmia.w	r6, {r0, r5}
  402b66:	4608      	mov	r0, r1
  402b68:	e8bd 87f0 	ldmia.w	sp!, {r4, r5, r6, r7, r8, r9, sl, pc}
  402b6c:	fab3 f183 	clz	r1, r3
  402b70:	2900      	cmp	r1, #0
  402b72:	f040 808e 	bne.w	402c92 <__udivmoddi4+0x1ee>
  402b76:	42ab      	cmp	r3, r5
  402b78:	d302      	bcc.n	402b80 <__udivmoddi4+0xdc>
  402b7a:	4282      	cmp	r2, r0
  402b7c:	f200 80fa 	bhi.w	402d74 <__udivmoddi4+0x2d0>
  402b80:	1a84      	subs	r4, r0, r2
  402b82:	eb65 0503 	sbc.w	r5, r5, r3
  402b86:	2001      	movs	r0, #1
  402b88:	46ac      	mov	ip, r5
  402b8a:	2e00      	cmp	r6, #0
  402b8c:	d03f      	beq.n	402c0e <__udivmoddi4+0x16a>
  402b8e:	e886 1010 	stmia.w	r6, {r4, ip}
  402b92:	e8bd 87f0 	ldmia.w	sp!, {r4, r5, r6, r7, r8, r9, sl, pc}
  402b96:	b912      	cbnz	r2, 402b9e <__udivmoddi4+0xfa>
  402b98:	2701      	movs	r7, #1
  402b9a:	fbb7 f7f2 	udiv	r7, r7, r2
  402b9e:	fab7 fe87 	clz	lr, r7
  402ba2:	f1be 0f00 	cmp.w	lr, #0
  402ba6:	d134      	bne.n	402c12 <__udivmoddi4+0x16e>
  402ba8:	1beb      	subs	r3, r5, r7
  402baa:	0c3a      	lsrs	r2, r7, #16
  402bac:	fa1f fc87 	uxth.w	ip, r7
  402bb0:	2101      	movs	r1, #1
  402bb2:	fbb3 f8f2 	udiv	r8, r3, r2
  402bb6:	0c25      	lsrs	r5, r4, #16
  402bb8:	fb02 3318 	mls	r3, r2, r8, r3
  402bbc:	ea45 4503 	orr.w	r5, r5, r3, lsl #16
  402bc0:	fb0c f308 	mul.w	r3, ip, r8
  402bc4:	42ab      	cmp	r3, r5
  402bc6:	d907      	bls.n	402bd8 <__udivmoddi4+0x134>
  402bc8:	19ed      	adds	r5, r5, r7
  402bca:	f108 30ff 	add.w	r0, r8, #4294967295
  402bce:	d202      	bcs.n	402bd6 <__udivmoddi4+0x132>
  402bd0:	42ab      	cmp	r3, r5
  402bd2:	f200 80d1 	bhi.w	402d78 <__udivmoddi4+0x2d4>
  402bd6:	4680      	mov	r8, r0
  402bd8:	1aed      	subs	r5, r5, r3
  402bda:	b2a3      	uxth	r3, r4
  402bdc:	fbb5 f0f2 	udiv	r0, r5, r2
  402be0:	fb02 5510 	mls	r5, r2, r0, r5
  402be4:	ea43 4405 	orr.w	r4, r3, r5, lsl #16
  402be8:	fb0c fc00 	mul.w	ip, ip, r0
  402bec:	45a4      	cmp	ip, r4
  402bee:	d907      	bls.n	402c00 <__udivmoddi4+0x15c>
  402bf0:	19e4      	adds	r4, r4, r7
  402bf2:	f100 33ff 	add.w	r3, r0, #4294967295
  402bf6:	d202      	bcs.n	402bfe <__udivmoddi4+0x15a>
  402bf8:	45a4      	cmp	ip, r4
  402bfa:	f200 80b8 	bhi.w	402d6e <__udivmoddi4+0x2ca>
  402bfe:	4618      	mov	r0, r3
  402c00:	eba4 040c 	sub.w	r4, r4, ip
  402c04:	ea40 4008 	orr.w	r0, r0, r8, lsl #16
  402c08:	e79d      	b.n	402b46 <__udivmoddi4+0xa2>
  402c0a:	4631      	mov	r1, r6
  402c0c:	4630      	mov	r0, r6
  402c0e:	e8bd 87f0 	ldmia.w	sp!, {r4, r5, r6, r7, r8, r9, sl, pc}
  402c12:	f1ce 0420 	rsb	r4, lr, #32
  402c16:	fa05 f30e 	lsl.w	r3, r5, lr
  402c1a:	fa07 f70e 	lsl.w	r7, r7, lr
  402c1e:	fa20 f804 	lsr.w	r8, r0, r4
  402c22:	0c3a      	lsrs	r2, r7, #16
  402c24:	fa25 f404 	lsr.w	r4, r5, r4
  402c28:	ea48 0803 	orr.w	r8, r8, r3
  402c2c:	fbb4 f1f2 	udiv	r1, r4, r2
  402c30:	ea4f 4518 	mov.w	r5, r8, lsr #16
  402c34:	fb02 4411 	mls	r4, r2, r1, r4
  402c38:	fa1f fc87 	uxth.w	ip, r7
  402c3c:	ea45 4504 	orr.w	r5, r5, r4, lsl #16
  402c40:	fb01 f30c 	mul.w	r3, r1, ip
  402c44:	42ab      	cmp	r3, r5
  402c46:	fa00 f40e 	lsl.w	r4, r0, lr
  402c4a:	d909      	bls.n	402c60 <__udivmoddi4+0x1bc>
  402c4c:	19ed      	adds	r5, r5, r7
  402c4e:	f101 30ff 	add.w	r0, r1, #4294967295
  402c52:	f080 808a 	bcs.w	402d6a <__udivmoddi4+0x2c6>
  402c56:	42ab      	cmp	r3, r5
  402c58:	f240 8087 	bls.w	402d6a <__udivmoddi4+0x2c6>
  402c5c:	3902      	subs	r1, #2
  402c5e:	443d      	add	r5, r7
  402c60:	1aeb      	subs	r3, r5, r3
  402c62:	fa1f f588 	uxth.w	r5, r8
  402c66:	fbb3 f0f2 	udiv	r0, r3, r2
  402c6a:	fb02 3310 	mls	r3, r2, r0, r3
  402c6e:	ea45 4503 	orr.w	r5, r5, r3, lsl #16
  402c72:	fb00 f30c 	mul.w	r3, r0, ip
  402c76:	42ab      	cmp	r3, r5
  402c78:	d907      	bls.n	402c8a <__udivmoddi4+0x1e6>
  402c7a:	19ed      	adds	r5, r5, r7
  402c7c:	f100 38ff 	add.w	r8, r0, #4294967295
  402c80:	d26f      	bcs.n	402d62 <__udivmoddi4+0x2be>
  402c82:	42ab      	cmp	r3, r5
  402c84:	d96d      	bls.n	402d62 <__udivmoddi4+0x2be>
  402c86:	3802      	subs	r0, #2
  402c88:	443d      	add	r5, r7
  402c8a:	1aeb      	subs	r3, r5, r3
  402c8c:	ea40 4101 	orr.w	r1, r0, r1, lsl #16
  402c90:	e78f      	b.n	402bb2 <__udivmoddi4+0x10e>
  402c92:	f1c1 0720 	rsb	r7, r1, #32
  402c96:	fa22 f807 	lsr.w	r8, r2, r7
  402c9a:	408b      	lsls	r3, r1
  402c9c:	fa05 f401 	lsl.w	r4, r5, r1
  402ca0:	ea48 0303 	orr.w	r3, r8, r3
  402ca4:	fa20 fe07 	lsr.w	lr, r0, r7
  402ca8:	ea4f 4c13 	mov.w	ip, r3, lsr #16
  402cac:	40fd      	lsrs	r5, r7
  402cae:	ea4e 0e04 	orr.w	lr, lr, r4
  402cb2:	fbb5 f9fc 	udiv	r9, r5, ip
  402cb6:	ea4f 441e 	mov.w	r4, lr, lsr #16
  402cba:	fb0c 5519 	mls	r5, ip, r9, r5
  402cbe:	fa1f f883 	uxth.w	r8, r3
  402cc2:	ea44 4505 	orr.w	r5, r4, r5, lsl #16
  402cc6:	fb09 f408 	mul.w	r4, r9, r8
  402cca:	42ac      	cmp	r4, r5
  402ccc:	fa02 f201 	lsl.w	r2, r2, r1
  402cd0:	fa00 fa01 	lsl.w	sl, r0, r1
  402cd4:	d908      	bls.n	402ce8 <__udivmoddi4+0x244>
  402cd6:	18ed      	adds	r5, r5, r3
  402cd8:	f109 30ff 	add.w	r0, r9, #4294967295
  402cdc:	d243      	bcs.n	402d66 <__udivmoddi4+0x2c2>
  402cde:	42ac      	cmp	r4, r5
  402ce0:	d941      	bls.n	402d66 <__udivmoddi4+0x2c2>
  402ce2:	f1a9 0902 	sub.w	r9, r9, #2
  402ce6:	441d      	add	r5, r3
  402ce8:	1b2d      	subs	r5, r5, r4
  402cea:	fa1f fe8e 	uxth.w	lr, lr
  402cee:	fbb5 f0fc 	udiv	r0, r5, ip
  402cf2:	fb0c 5510 	mls	r5, ip, r0, r5
  402cf6:	ea4e 4405 	orr.w	r4, lr, r5, lsl #16
  402cfa:	fb00 f808 	mul.w	r8, r0, r8
  402cfe:	45a0      	cmp	r8, r4
  402d00:	d907      	bls.n	402d12 <__udivmoddi4+0x26e>
  402d02:	18e4      	adds	r4, r4, r3
  402d04:	f100 35ff 	add.w	r5, r0, #4294967295
  402d08:	d229      	bcs.n	402d5e <__udivmoddi4+0x2ba>
  402d0a:	45a0      	cmp	r8, r4
  402d0c:	d927      	bls.n	402d5e <__udivmoddi4+0x2ba>
  402d0e:	3802      	subs	r0, #2
  402d10:	441c      	add	r4, r3
  402d12:	ea40 4009 	orr.w	r0, r0, r9, lsl #16
  402d16:	eba4 0408 	sub.w	r4, r4, r8
  402d1a:	fba0 8902 	umull	r8, r9, r0, r2
  402d1e:	454c      	cmp	r4, r9
  402d20:	46c6      	mov	lr, r8
  402d22:	464d      	mov	r5, r9
  402d24:	d315      	bcc.n	402d52 <__udivmoddi4+0x2ae>
  402d26:	d012      	beq.n	402d4e <__udivmoddi4+0x2aa>
  402d28:	b156      	cbz	r6, 402d40 <__udivmoddi4+0x29c>
  402d2a:	ebba 030e 	subs.w	r3, sl, lr
  402d2e:	eb64 0405 	sbc.w	r4, r4, r5
  402d32:	fa04 f707 	lsl.w	r7, r4, r7
  402d36:	40cb      	lsrs	r3, r1
  402d38:	431f      	orrs	r7, r3
  402d3a:	40cc      	lsrs	r4, r1
  402d3c:	6037      	str	r7, [r6, #0]
  402d3e:	6074      	str	r4, [r6, #4]
  402d40:	2100      	movs	r1, #0
  402d42:	e8bd 87f0 	ldmia.w	sp!, {r4, r5, r6, r7, r8, r9, sl, pc}
  402d46:	4618      	mov	r0, r3
  402d48:	e6f8      	b.n	402b3c <__udivmoddi4+0x98>
  402d4a:	4690      	mov	r8, r2
  402d4c:	e6e0      	b.n	402b10 <__udivmoddi4+0x6c>
  402d4e:	45c2      	cmp	sl, r8
  402d50:	d2ea      	bcs.n	402d28 <__udivmoddi4+0x284>
  402d52:	ebb8 0e02 	subs.w	lr, r8, r2
  402d56:	eb69 0503 	sbc.w	r5, r9, r3
  402d5a:	3801      	subs	r0, #1
  402d5c:	e7e4      	b.n	402d28 <__udivmoddi4+0x284>
  402d5e:	4628      	mov	r0, r5
  402d60:	e7d7      	b.n	402d12 <__udivmoddi4+0x26e>
  402d62:	4640      	mov	r0, r8
  402d64:	e791      	b.n	402c8a <__udivmoddi4+0x1e6>
  402d66:	4681      	mov	r9, r0
  402d68:	e7be      	b.n	402ce8 <__udivmoddi4+0x244>
  402d6a:	4601      	mov	r1, r0
  402d6c:	e778      	b.n	402c60 <__udivmoddi4+0x1bc>
  402d6e:	3802      	subs	r0, #2
  402d70:	443c      	add	r4, r7
  402d72:	e745      	b.n	402c00 <__udivmoddi4+0x15c>
  402d74:	4608      	mov	r0, r1
  402d76:	e708      	b.n	402b8a <__udivmoddi4+0xe6>
  402d78:	f1a8 0802 	sub.w	r8, r8, #2
  402d7c:	443d      	add	r5, r7
  402d7e:	e72b      	b.n	402bd8 <__udivmoddi4+0x134>

00402d80 <__aeabi_idiv0>:
  402d80:	4770      	bx	lr
  402d82:	bf00      	nop

00402d84 <__libc_init_array>:
  402d84:	b570      	push	{r4, r5, r6, lr}
  402d86:	4e0f      	ldr	r6, [pc, #60]	; (402dc4 <__libc_init_array+0x40>)
  402d88:	4d0f      	ldr	r5, [pc, #60]	; (402dc8 <__libc_init_array+0x44>)
  402d8a:	1b76      	subs	r6, r6, r5
  402d8c:	10b6      	asrs	r6, r6, #2
  402d8e:	bf18      	it	ne
  402d90:	2400      	movne	r4, #0
  402d92:	d005      	beq.n	402da0 <__libc_init_array+0x1c>
  402d94:	3401      	adds	r4, #1
  402d96:	f855 3b04 	ldr.w	r3, [r5], #4
  402d9a:	4798      	blx	r3
  402d9c:	42a6      	cmp	r6, r4
  402d9e:	d1f9      	bne.n	402d94 <__libc_init_array+0x10>
  402da0:	4e0a      	ldr	r6, [pc, #40]	; (402dcc <__libc_init_array+0x48>)
  402da2:	4d0b      	ldr	r5, [pc, #44]	; (402dd0 <__libc_init_array+0x4c>)
  402da4:	1b76      	subs	r6, r6, r5
  402da6:	f003 f951 	bl	40604c <_init>
  402daa:	10b6      	asrs	r6, r6, #2
  402dac:	bf18      	it	ne
  402dae:	2400      	movne	r4, #0
  402db0:	d006      	beq.n	402dc0 <__libc_init_array+0x3c>
  402db2:	3401      	adds	r4, #1
  402db4:	f855 3b04 	ldr.w	r3, [r5], #4
  402db8:	4798      	blx	r3
  402dba:	42a6      	cmp	r6, r4
  402dbc:	d1f9      	bne.n	402db2 <__libc_init_array+0x2e>
  402dbe:	bd70      	pop	{r4, r5, r6, pc}
  402dc0:	bd70      	pop	{r4, r5, r6, pc}
  402dc2:	bf00      	nop
  402dc4:	00406058 	.word	0x00406058
  402dc8:	00406058 	.word	0x00406058
  402dcc:	00406060 	.word	0x00406060
  402dd0:	00406058 	.word	0x00406058

00402dd4 <iprintf>:
  402dd4:	b40f      	push	{r0, r1, r2, r3}
  402dd6:	b500      	push	{lr}
  402dd8:	4907      	ldr	r1, [pc, #28]	; (402df8 <iprintf+0x24>)
  402dda:	b083      	sub	sp, #12
  402ddc:	ab04      	add	r3, sp, #16
  402dde:	6808      	ldr	r0, [r1, #0]
  402de0:	f853 2b04 	ldr.w	r2, [r3], #4
  402de4:	6881      	ldr	r1, [r0, #8]
  402de6:	9301      	str	r3, [sp, #4]
  402de8:	f000 fad8 	bl	40339c <_vfiprintf_r>
  402dec:	b003      	add	sp, #12
  402dee:	f85d eb04 	ldr.w	lr, [sp], #4
  402df2:	b004      	add	sp, #16
  402df4:	4770      	bx	lr
  402df6:	bf00      	nop
  402df8:	2040002c 	.word	0x2040002c

00402dfc <memcpy>:
  402dfc:	4684      	mov	ip, r0
  402dfe:	ea41 0300 	orr.w	r3, r1, r0
  402e02:	f013 0303 	ands.w	r3, r3, #3
  402e06:	d16d      	bne.n	402ee4 <memcpy+0xe8>
  402e08:	3a40      	subs	r2, #64	; 0x40
  402e0a:	d341      	bcc.n	402e90 <memcpy+0x94>
  402e0c:	f851 3b04 	ldr.w	r3, [r1], #4
  402e10:	f840 3b04 	str.w	r3, [r0], #4
  402e14:	f851 3b04 	ldr.w	r3, [r1], #4
  402e18:	f840 3b04 	str.w	r3, [r0], #4
  402e1c:	f851 3b04 	ldr.w	r3, [r1], #4
  402e20:	f840 3b04 	str.w	r3, [r0], #4
  402e24:	f851 3b04 	ldr.w	r3, [r1], #4
  402e28:	f840 3b04 	str.w	r3, [r0], #4
  402e2c:	f851 3b04 	ldr.w	r3, [r1], #4
  402e30:	f840 3b04 	str.w	r3, [r0], #4
  402e34:	f851 3b04 	ldr.w	r3, [r1], #4
  402e38:	f840 3b04 	str.w	r3, [r0], #4
  402e3c:	f851 3b04 	ldr.w	r3, [r1], #4
  402e40:	f840 3b04 	str.w	r3, [r0], #4
  402e44:	f851 3b04 	ldr.w	r3, [r1], #4
  402e48:	f840 3b04 	str.w	r3, [r0], #4
  402e4c:	f851 3b04 	ldr.w	r3, [r1], #4
  402e50:	f840 3b04 	str.w	r3, [r0], #4
  402e54:	f851 3b04 	ldr.w	r3, [r1], #4
  402e58:	f840 3b04 	str.w	r3, [r0], #4
  402e5c:	f851 3b04 	ldr.w	r3, [r1], #4
  402e60:	f840 3b04 	str.w	r3, [r0], #4
  402e64:	f851 3b04 	ldr.w	r3, [r1], #4
  402e68:	f840 3b04 	str.w	r3, [r0], #4
  402e6c:	f851 3b04 	ldr.w	r3, [r1], #4
  402e70:	f840 3b04 	str.w	r3, [r0], #4
  402e74:	f851 3b04 	ldr.w	r3, [r1], #4
  402e78:	f840 3b04 	str.w	r3, [r0], #4
  402e7c:	f851 3b04 	ldr.w	r3, [r1], #4
  402e80:	f840 3b04 	str.w	r3, [r0], #4
  402e84:	f851 3b04 	ldr.w	r3, [r1], #4
  402e88:	f840 3b04 	str.w	r3, [r0], #4
  402e8c:	3a40      	subs	r2, #64	; 0x40
  402e8e:	d2bd      	bcs.n	402e0c <memcpy+0x10>
  402e90:	3230      	adds	r2, #48	; 0x30
  402e92:	d311      	bcc.n	402eb8 <memcpy+0xbc>
  402e94:	f851 3b04 	ldr.w	r3, [r1], #4
  402e98:	f840 3b04 	str.w	r3, [r0], #4
  402e9c:	f851 3b04 	ldr.w	r3, [r1], #4
  402ea0:	f840 3b04 	str.w	r3, [r0], #4
  402ea4:	f851 3b04 	ldr.w	r3, [r1], #4
  402ea8:	f840 3b04 	str.w	r3, [r0], #4
  402eac:	f851 3b04 	ldr.w	r3, [r1], #4
  402eb0:	f840 3b04 	str.w	r3, [r0], #4
  402eb4:	3a10      	subs	r2, #16
  402eb6:	d2ed      	bcs.n	402e94 <memcpy+0x98>
  402eb8:	320c      	adds	r2, #12
  402eba:	d305      	bcc.n	402ec8 <memcpy+0xcc>
  402ebc:	f851 3b04 	ldr.w	r3, [r1], #4
  402ec0:	f840 3b04 	str.w	r3, [r0], #4
  402ec4:	3a04      	subs	r2, #4
  402ec6:	d2f9      	bcs.n	402ebc <memcpy+0xc0>
  402ec8:	3204      	adds	r2, #4
  402eca:	d008      	beq.n	402ede <memcpy+0xe2>
  402ecc:	07d2      	lsls	r2, r2, #31
  402ece:	bf1c      	itt	ne
  402ed0:	f811 3b01 	ldrbne.w	r3, [r1], #1
  402ed4:	f800 3b01 	strbne.w	r3, [r0], #1
  402ed8:	d301      	bcc.n	402ede <memcpy+0xe2>
  402eda:	880b      	ldrh	r3, [r1, #0]
  402edc:	8003      	strh	r3, [r0, #0]
  402ede:	4660      	mov	r0, ip
  402ee0:	4770      	bx	lr
  402ee2:	bf00      	nop
  402ee4:	2a08      	cmp	r2, #8
  402ee6:	d313      	bcc.n	402f10 <memcpy+0x114>
  402ee8:	078b      	lsls	r3, r1, #30
  402eea:	d08d      	beq.n	402e08 <memcpy+0xc>
  402eec:	f010 0303 	ands.w	r3, r0, #3
  402ef0:	d08a      	beq.n	402e08 <memcpy+0xc>
  402ef2:	f1c3 0304 	rsb	r3, r3, #4
  402ef6:	1ad2      	subs	r2, r2, r3
  402ef8:	07db      	lsls	r3, r3, #31
  402efa:	bf1c      	itt	ne
  402efc:	f811 3b01 	ldrbne.w	r3, [r1], #1
  402f00:	f800 3b01 	strbne.w	r3, [r0], #1
  402f04:	d380      	bcc.n	402e08 <memcpy+0xc>
  402f06:	f831 3b02 	ldrh.w	r3, [r1], #2
  402f0a:	f820 3b02 	strh.w	r3, [r0], #2
  402f0e:	e77b      	b.n	402e08 <memcpy+0xc>
  402f10:	3a04      	subs	r2, #4
  402f12:	d3d9      	bcc.n	402ec8 <memcpy+0xcc>
  402f14:	3a01      	subs	r2, #1
  402f16:	f811 3b01 	ldrb.w	r3, [r1], #1
  402f1a:	f800 3b01 	strb.w	r3, [r0], #1
  402f1e:	d2f9      	bcs.n	402f14 <memcpy+0x118>
  402f20:	780b      	ldrb	r3, [r1, #0]
  402f22:	7003      	strb	r3, [r0, #0]
  402f24:	784b      	ldrb	r3, [r1, #1]
  402f26:	7043      	strb	r3, [r0, #1]
  402f28:	788b      	ldrb	r3, [r1, #2]
  402f2a:	7083      	strb	r3, [r0, #2]
  402f2c:	4660      	mov	r0, ip
  402f2e:	4770      	bx	lr

00402f30 <memset>:
  402f30:	b470      	push	{r4, r5, r6}
  402f32:	0786      	lsls	r6, r0, #30
  402f34:	d046      	beq.n	402fc4 <memset+0x94>
  402f36:	1e54      	subs	r4, r2, #1
  402f38:	2a00      	cmp	r2, #0
  402f3a:	d041      	beq.n	402fc0 <memset+0x90>
  402f3c:	b2ca      	uxtb	r2, r1
  402f3e:	4603      	mov	r3, r0
  402f40:	e002      	b.n	402f48 <memset+0x18>
  402f42:	f114 34ff 	adds.w	r4, r4, #4294967295
  402f46:	d33b      	bcc.n	402fc0 <memset+0x90>
  402f48:	f803 2b01 	strb.w	r2, [r3], #1
  402f4c:	079d      	lsls	r5, r3, #30
  402f4e:	d1f8      	bne.n	402f42 <memset+0x12>
  402f50:	2c03      	cmp	r4, #3
  402f52:	d92e      	bls.n	402fb2 <memset+0x82>
  402f54:	b2cd      	uxtb	r5, r1
  402f56:	ea45 2505 	orr.w	r5, r5, r5, lsl #8
  402f5a:	2c0f      	cmp	r4, #15
  402f5c:	ea45 4505 	orr.w	r5, r5, r5, lsl #16
  402f60:	d919      	bls.n	402f96 <memset+0x66>
  402f62:	f103 0210 	add.w	r2, r3, #16
  402f66:	4626      	mov	r6, r4
  402f68:	3e10      	subs	r6, #16
  402f6a:	2e0f      	cmp	r6, #15
  402f6c:	f842 5c10 	str.w	r5, [r2, #-16]
  402f70:	f842 5c0c 	str.w	r5, [r2, #-12]
  402f74:	f842 5c08 	str.w	r5, [r2, #-8]
  402f78:	f842 5c04 	str.w	r5, [r2, #-4]
  402f7c:	f102 0210 	add.w	r2, r2, #16
  402f80:	d8f2      	bhi.n	402f68 <memset+0x38>
  402f82:	f1a4 0210 	sub.w	r2, r4, #16
  402f86:	f022 020f 	bic.w	r2, r2, #15
  402f8a:	f004 040f 	and.w	r4, r4, #15
  402f8e:	3210      	adds	r2, #16
  402f90:	2c03      	cmp	r4, #3
  402f92:	4413      	add	r3, r2
  402f94:	d90d      	bls.n	402fb2 <memset+0x82>
  402f96:	461e      	mov	r6, r3
  402f98:	4622      	mov	r2, r4
  402f9a:	3a04      	subs	r2, #4
  402f9c:	2a03      	cmp	r2, #3
  402f9e:	f846 5b04 	str.w	r5, [r6], #4
  402fa2:	d8fa      	bhi.n	402f9a <memset+0x6a>
  402fa4:	1f22      	subs	r2, r4, #4
  402fa6:	f022 0203 	bic.w	r2, r2, #3
  402faa:	3204      	adds	r2, #4
  402fac:	4413      	add	r3, r2
  402fae:	f004 0403 	and.w	r4, r4, #3
  402fb2:	b12c      	cbz	r4, 402fc0 <memset+0x90>
  402fb4:	b2c9      	uxtb	r1, r1
  402fb6:	441c      	add	r4, r3
  402fb8:	f803 1b01 	strb.w	r1, [r3], #1
  402fbc:	429c      	cmp	r4, r3
  402fbe:	d1fb      	bne.n	402fb8 <memset+0x88>
  402fc0:	bc70      	pop	{r4, r5, r6}
  402fc2:	4770      	bx	lr
  402fc4:	4614      	mov	r4, r2
  402fc6:	4603      	mov	r3, r0
  402fc8:	e7c2      	b.n	402f50 <memset+0x20>
  402fca:	bf00      	nop

00402fcc <_puts_r>:
  402fcc:	b5f0      	push	{r4, r5, r6, r7, lr}
  402fce:	4605      	mov	r5, r0
  402fd0:	b089      	sub	sp, #36	; 0x24
  402fd2:	4608      	mov	r0, r1
  402fd4:	460c      	mov	r4, r1
  402fd6:	f000 f933 	bl	403240 <strlen>
  402fda:	6bab      	ldr	r3, [r5, #56]	; 0x38
  402fdc:	4f21      	ldr	r7, [pc, #132]	; (403064 <_puts_r+0x98>)
  402fde:	9404      	str	r4, [sp, #16]
  402fe0:	2601      	movs	r6, #1
  402fe2:	1c44      	adds	r4, r0, #1
  402fe4:	a904      	add	r1, sp, #16
  402fe6:	2202      	movs	r2, #2
  402fe8:	9403      	str	r4, [sp, #12]
  402fea:	9005      	str	r0, [sp, #20]
  402fec:	68ac      	ldr	r4, [r5, #8]
  402fee:	9706      	str	r7, [sp, #24]
  402ff0:	9607      	str	r6, [sp, #28]
  402ff2:	9101      	str	r1, [sp, #4]
  402ff4:	9202      	str	r2, [sp, #8]
  402ff6:	b353      	cbz	r3, 40304e <_puts_r+0x82>
  402ff8:	6e63      	ldr	r3, [r4, #100]	; 0x64
  402ffa:	f013 0f01 	tst.w	r3, #1
  402ffe:	f9b4 300c 	ldrsh.w	r3, [r4, #12]
  403002:	b29a      	uxth	r2, r3
  403004:	d101      	bne.n	40300a <_puts_r+0x3e>
  403006:	0590      	lsls	r0, r2, #22
  403008:	d525      	bpl.n	403056 <_puts_r+0x8a>
  40300a:	0491      	lsls	r1, r2, #18
  40300c:	d406      	bmi.n	40301c <_puts_r+0x50>
  40300e:	6e62      	ldr	r2, [r4, #100]	; 0x64
  403010:	f443 5300 	orr.w	r3, r3, #8192	; 0x2000
  403014:	f422 5200 	bic.w	r2, r2, #8192	; 0x2000
  403018:	81a3      	strh	r3, [r4, #12]
  40301a:	6662      	str	r2, [r4, #100]	; 0x64
  40301c:	4628      	mov	r0, r5
  40301e:	aa01      	add	r2, sp, #4
  403020:	4621      	mov	r1, r4
  403022:	f001 fbbd 	bl	4047a0 <__sfvwrite_r>
  403026:	6e63      	ldr	r3, [r4, #100]	; 0x64
  403028:	2800      	cmp	r0, #0
  40302a:	bf0c      	ite	eq
  40302c:	250a      	moveq	r5, #10
  40302e:	f04f 35ff 	movne.w	r5, #4294967295
  403032:	07da      	lsls	r2, r3, #31
  403034:	d402      	bmi.n	40303c <_puts_r+0x70>
  403036:	89a3      	ldrh	r3, [r4, #12]
  403038:	059b      	lsls	r3, r3, #22
  40303a:	d502      	bpl.n	403042 <_puts_r+0x76>
  40303c:	4628      	mov	r0, r5
  40303e:	b009      	add	sp, #36	; 0x24
  403040:	bdf0      	pop	{r4, r5, r6, r7, pc}
  403042:	6da0      	ldr	r0, [r4, #88]	; 0x58
  403044:	f001 fd62 	bl	404b0c <__retarget_lock_release_recursive>
  403048:	4628      	mov	r0, r5
  40304a:	b009      	add	sp, #36	; 0x24
  40304c:	bdf0      	pop	{r4, r5, r6, r7, pc}
  40304e:	4628      	mov	r0, r5
  403050:	f001 f99a 	bl	404388 <__sinit>
  403054:	e7d0      	b.n	402ff8 <_puts_r+0x2c>
  403056:	6da0      	ldr	r0, [r4, #88]	; 0x58
  403058:	f001 fd56 	bl	404b08 <__retarget_lock_acquire_recursive>
  40305c:	f9b4 300c 	ldrsh.w	r3, [r4, #12]
  403060:	b29a      	uxth	r2, r3
  403062:	e7d2      	b.n	40300a <_puts_r+0x3e>
  403064:	00405eac 	.word	0x00405eac

00403068 <puts>:
  403068:	4b02      	ldr	r3, [pc, #8]	; (403074 <puts+0xc>)
  40306a:	4601      	mov	r1, r0
  40306c:	6818      	ldr	r0, [r3, #0]
  40306e:	f7ff bfad 	b.w	402fcc <_puts_r>
  403072:	bf00      	nop
  403074:	2040002c 	.word	0x2040002c

00403078 <setbuf>:
  403078:	2900      	cmp	r1, #0
  40307a:	bf0c      	ite	eq
  40307c:	2202      	moveq	r2, #2
  40307e:	2200      	movne	r2, #0
  403080:	f44f 6380 	mov.w	r3, #1024	; 0x400
  403084:	f000 b800 	b.w	403088 <setvbuf>

00403088 <setvbuf>:
  403088:	e92d 43f0 	stmdb	sp!, {r4, r5, r6, r7, r8, r9, lr}
  40308c:	4c61      	ldr	r4, [pc, #388]	; (403214 <setvbuf+0x18c>)
  40308e:	6825      	ldr	r5, [r4, #0]
  403090:	b083      	sub	sp, #12
  403092:	4604      	mov	r4, r0
  403094:	460f      	mov	r7, r1
  403096:	4690      	mov	r8, r2
  403098:	461e      	mov	r6, r3
  40309a:	b115      	cbz	r5, 4030a2 <setvbuf+0x1a>
  40309c:	6bab      	ldr	r3, [r5, #56]	; 0x38
  40309e:	2b00      	cmp	r3, #0
  4030a0:	d064      	beq.n	40316c <setvbuf+0xe4>
  4030a2:	f1b8 0f02 	cmp.w	r8, #2
  4030a6:	d006      	beq.n	4030b6 <setvbuf+0x2e>
  4030a8:	f1b8 0f01 	cmp.w	r8, #1
  4030ac:	f200 809f 	bhi.w	4031ee <setvbuf+0x166>
  4030b0:	2e00      	cmp	r6, #0
  4030b2:	f2c0 809c 	blt.w	4031ee <setvbuf+0x166>
  4030b6:	6e63      	ldr	r3, [r4, #100]	; 0x64
  4030b8:	07d8      	lsls	r0, r3, #31
  4030ba:	d534      	bpl.n	403126 <setvbuf+0x9e>
  4030bc:	4621      	mov	r1, r4
  4030be:	4628      	mov	r0, r5
  4030c0:	f001 f90a 	bl	4042d8 <_fflush_r>
  4030c4:	6b21      	ldr	r1, [r4, #48]	; 0x30
  4030c6:	b141      	cbz	r1, 4030da <setvbuf+0x52>
  4030c8:	f104 0340 	add.w	r3, r4, #64	; 0x40
  4030cc:	4299      	cmp	r1, r3
  4030ce:	d002      	beq.n	4030d6 <setvbuf+0x4e>
  4030d0:	4628      	mov	r0, r5
  4030d2:	f001 fa7f 	bl	4045d4 <_free_r>
  4030d6:	2300      	movs	r3, #0
  4030d8:	6323      	str	r3, [r4, #48]	; 0x30
  4030da:	f9b4 300c 	ldrsh.w	r3, [r4, #12]
  4030de:	2200      	movs	r2, #0
  4030e0:	61a2      	str	r2, [r4, #24]
  4030e2:	6062      	str	r2, [r4, #4]
  4030e4:	061a      	lsls	r2, r3, #24
  4030e6:	d43a      	bmi.n	40315e <setvbuf+0xd6>
  4030e8:	f423 634a 	bic.w	r3, r3, #3232	; 0xca0
  4030ec:	f023 0303 	bic.w	r3, r3, #3
  4030f0:	f1b8 0f02 	cmp.w	r8, #2
  4030f4:	81a3      	strh	r3, [r4, #12]
  4030f6:	d01d      	beq.n	403134 <setvbuf+0xac>
  4030f8:	ab01      	add	r3, sp, #4
  4030fa:	466a      	mov	r2, sp
  4030fc:	4621      	mov	r1, r4
  4030fe:	4628      	mov	r0, r5
  403100:	f001 fd06 	bl	404b10 <__swhatbuf_r>
  403104:	89a3      	ldrh	r3, [r4, #12]
  403106:	4318      	orrs	r0, r3
  403108:	81a0      	strh	r0, [r4, #12]
  40310a:	2e00      	cmp	r6, #0
  40310c:	d132      	bne.n	403174 <setvbuf+0xec>
  40310e:	9e00      	ldr	r6, [sp, #0]
  403110:	4630      	mov	r0, r6
  403112:	f001 fd75 	bl	404c00 <malloc>
  403116:	4607      	mov	r7, r0
  403118:	2800      	cmp	r0, #0
  40311a:	d06b      	beq.n	4031f4 <setvbuf+0x16c>
  40311c:	89a3      	ldrh	r3, [r4, #12]
  40311e:	f043 0380 	orr.w	r3, r3, #128	; 0x80
  403122:	81a3      	strh	r3, [r4, #12]
  403124:	e028      	b.n	403178 <setvbuf+0xf0>
  403126:	89a3      	ldrh	r3, [r4, #12]
  403128:	0599      	lsls	r1, r3, #22
  40312a:	d4c7      	bmi.n	4030bc <setvbuf+0x34>
  40312c:	6da0      	ldr	r0, [r4, #88]	; 0x58
  40312e:	f001 fceb 	bl	404b08 <__retarget_lock_acquire_recursive>
  403132:	e7c3      	b.n	4030bc <setvbuf+0x34>
  403134:	2500      	movs	r5, #0
  403136:	6e61      	ldr	r1, [r4, #100]	; 0x64
  403138:	2600      	movs	r6, #0
  40313a:	f104 0243 	add.w	r2, r4, #67	; 0x43
  40313e:	f043 0302 	orr.w	r3, r3, #2
  403142:	2001      	movs	r0, #1
  403144:	60a6      	str	r6, [r4, #8]
  403146:	07ce      	lsls	r6, r1, #31
  403148:	81a3      	strh	r3, [r4, #12]
  40314a:	6022      	str	r2, [r4, #0]
  40314c:	6122      	str	r2, [r4, #16]
  40314e:	6160      	str	r0, [r4, #20]
  403150:	d401      	bmi.n	403156 <setvbuf+0xce>
  403152:	0598      	lsls	r0, r3, #22
  403154:	d53e      	bpl.n	4031d4 <setvbuf+0x14c>
  403156:	4628      	mov	r0, r5
  403158:	b003      	add	sp, #12
  40315a:	e8bd 83f0 	ldmia.w	sp!, {r4, r5, r6, r7, r8, r9, pc}
  40315e:	6921      	ldr	r1, [r4, #16]
  403160:	4628      	mov	r0, r5
  403162:	f001 fa37 	bl	4045d4 <_free_r>
  403166:	f9b4 300c 	ldrsh.w	r3, [r4, #12]
  40316a:	e7bd      	b.n	4030e8 <setvbuf+0x60>
  40316c:	4628      	mov	r0, r5
  40316e:	f001 f90b 	bl	404388 <__sinit>
  403172:	e796      	b.n	4030a2 <setvbuf+0x1a>
  403174:	2f00      	cmp	r7, #0
  403176:	d0cb      	beq.n	403110 <setvbuf+0x88>
  403178:	6bab      	ldr	r3, [r5, #56]	; 0x38
  40317a:	2b00      	cmp	r3, #0
  40317c:	d033      	beq.n	4031e6 <setvbuf+0x15e>
  40317e:	9b00      	ldr	r3, [sp, #0]
  403180:	f9b4 200c 	ldrsh.w	r2, [r4, #12]
  403184:	6027      	str	r7, [r4, #0]
  403186:	429e      	cmp	r6, r3
  403188:	bf1c      	itt	ne
  40318a:	f442 6200 	orrne.w	r2, r2, #2048	; 0x800
  40318e:	81a2      	strhne	r2, [r4, #12]
  403190:	f1b8 0f01 	cmp.w	r8, #1
  403194:	bf04      	itt	eq
  403196:	f042 0201 	orreq.w	r2, r2, #1
  40319a:	81a2      	strheq	r2, [r4, #12]
  40319c:	b292      	uxth	r2, r2
  40319e:	f012 0308 	ands.w	r3, r2, #8
  4031a2:	6127      	str	r7, [r4, #16]
  4031a4:	6166      	str	r6, [r4, #20]
  4031a6:	d00e      	beq.n	4031c6 <setvbuf+0x13e>
  4031a8:	07d1      	lsls	r1, r2, #31
  4031aa:	d51a      	bpl.n	4031e2 <setvbuf+0x15a>
  4031ac:	6e65      	ldr	r5, [r4, #100]	; 0x64
  4031ae:	4276      	negs	r6, r6
  4031b0:	2300      	movs	r3, #0
  4031b2:	f015 0501 	ands.w	r5, r5, #1
  4031b6:	61a6      	str	r6, [r4, #24]
  4031b8:	60a3      	str	r3, [r4, #8]
  4031ba:	d009      	beq.n	4031d0 <setvbuf+0x148>
  4031bc:	2500      	movs	r5, #0
  4031be:	4628      	mov	r0, r5
  4031c0:	b003      	add	sp, #12
  4031c2:	e8bd 83f0 	ldmia.w	sp!, {r4, r5, r6, r7, r8, r9, pc}
  4031c6:	60a3      	str	r3, [r4, #8]
  4031c8:	6e65      	ldr	r5, [r4, #100]	; 0x64
  4031ca:	f015 0501 	ands.w	r5, r5, #1
  4031ce:	d1f5      	bne.n	4031bc <setvbuf+0x134>
  4031d0:	0593      	lsls	r3, r2, #22
  4031d2:	d4c0      	bmi.n	403156 <setvbuf+0xce>
  4031d4:	6da0      	ldr	r0, [r4, #88]	; 0x58
  4031d6:	f001 fc99 	bl	404b0c <__retarget_lock_release_recursive>
  4031da:	4628      	mov	r0, r5
  4031dc:	b003      	add	sp, #12
  4031de:	e8bd 83f0 	ldmia.w	sp!, {r4, r5, r6, r7, r8, r9, pc}
  4031e2:	60a6      	str	r6, [r4, #8]
  4031e4:	e7f0      	b.n	4031c8 <setvbuf+0x140>
  4031e6:	4628      	mov	r0, r5
  4031e8:	f001 f8ce 	bl	404388 <__sinit>
  4031ec:	e7c7      	b.n	40317e <setvbuf+0xf6>
  4031ee:	f04f 35ff 	mov.w	r5, #4294967295
  4031f2:	e7b0      	b.n	403156 <setvbuf+0xce>
  4031f4:	f8dd 9000 	ldr.w	r9, [sp]
  4031f8:	45b1      	cmp	r9, r6
  4031fa:	d004      	beq.n	403206 <setvbuf+0x17e>
  4031fc:	4648      	mov	r0, r9
  4031fe:	f001 fcff 	bl	404c00 <malloc>
  403202:	4607      	mov	r7, r0
  403204:	b920      	cbnz	r0, 403210 <setvbuf+0x188>
  403206:	f9b4 300c 	ldrsh.w	r3, [r4, #12]
  40320a:	f04f 35ff 	mov.w	r5, #4294967295
  40320e:	e792      	b.n	403136 <setvbuf+0xae>
  403210:	464e      	mov	r6, r9
  403212:	e783      	b.n	40311c <setvbuf+0x94>
  403214:	2040002c 	.word	0x2040002c
	...

00403240 <strlen>:
  403240:	f890 f000 	pld	[r0]
  403244:	e96d 4502 	strd	r4, r5, [sp, #-8]!
  403248:	f020 0107 	bic.w	r1, r0, #7
  40324c:	f06f 0c00 	mvn.w	ip, #0
  403250:	f010 0407 	ands.w	r4, r0, #7
  403254:	f891 f020 	pld	[r1, #32]
  403258:	f040 8049 	bne.w	4032ee <strlen+0xae>
  40325c:	f04f 0400 	mov.w	r4, #0
  403260:	f06f 0007 	mvn.w	r0, #7
  403264:	e9d1 2300 	ldrd	r2, r3, [r1]
  403268:	f891 f040 	pld	[r1, #64]	; 0x40
  40326c:	f100 0008 	add.w	r0, r0, #8
  403270:	fa82 f24c 	uadd8	r2, r2, ip
  403274:	faa4 f28c 	sel	r2, r4, ip
  403278:	fa83 f34c 	uadd8	r3, r3, ip
  40327c:	faa2 f38c 	sel	r3, r2, ip
  403280:	bb4b      	cbnz	r3, 4032d6 <strlen+0x96>
  403282:	e9d1 2302 	ldrd	r2, r3, [r1, #8]
  403286:	fa82 f24c 	uadd8	r2, r2, ip
  40328a:	f100 0008 	add.w	r0, r0, #8
  40328e:	faa4 f28c 	sel	r2, r4, ip
  403292:	fa83 f34c 	uadd8	r3, r3, ip
  403296:	faa2 f38c 	sel	r3, r2, ip
  40329a:	b9e3      	cbnz	r3, 4032d6 <strlen+0x96>
  40329c:	e9d1 2304 	ldrd	r2, r3, [r1, #16]
  4032a0:	fa82 f24c 	uadd8	r2, r2, ip
  4032a4:	f100 0008 	add.w	r0, r0, #8
  4032a8:	faa4 f28c 	sel	r2, r4, ip
  4032ac:	fa83 f34c 	uadd8	r3, r3, ip
  4032b0:	faa2 f38c 	sel	r3, r2, ip
  4032b4:	b97b      	cbnz	r3, 4032d6 <strlen+0x96>
  4032b6:	e9d1 2306 	ldrd	r2, r3, [r1, #24]
  4032ba:	f101 0120 	add.w	r1, r1, #32
  4032be:	fa82 f24c 	uadd8	r2, r2, ip
  4032c2:	f100 0008 	add.w	r0, r0, #8
  4032c6:	faa4 f28c 	sel	r2, r4, ip
  4032ca:	fa83 f34c 	uadd8	r3, r3, ip
  4032ce:	faa2 f38c 	sel	r3, r2, ip
  4032d2:	2b00      	cmp	r3, #0
  4032d4:	d0c6      	beq.n	403264 <strlen+0x24>
  4032d6:	2a00      	cmp	r2, #0
  4032d8:	bf04      	itt	eq
  4032da:	3004      	addeq	r0, #4
  4032dc:	461a      	moveq	r2, r3
  4032de:	ba12      	rev	r2, r2
  4032e0:	fab2 f282 	clz	r2, r2
  4032e4:	e8fd 4502 	ldrd	r4, r5, [sp], #8
  4032e8:	eb00 00d2 	add.w	r0, r0, r2, lsr #3
  4032ec:	4770      	bx	lr
  4032ee:	e9d1 2300 	ldrd	r2, r3, [r1]
  4032f2:	f004 0503 	and.w	r5, r4, #3
  4032f6:	f1c4 0000 	rsb	r0, r4, #0
  4032fa:	ea4f 05c5 	mov.w	r5, r5, lsl #3
  4032fe:	f014 0f04 	tst.w	r4, #4
  403302:	f891 f040 	pld	[r1, #64]	; 0x40
  403306:	fa0c f505 	lsl.w	r5, ip, r5
  40330a:	ea62 0205 	orn	r2, r2, r5
  40330e:	bf1c      	itt	ne
  403310:	ea63 0305 	ornne	r3, r3, r5
  403314:	4662      	movne	r2, ip
  403316:	f04f 0400 	mov.w	r4, #0
  40331a:	e7a9      	b.n	403270 <strlen+0x30>

0040331c <__sprint_r.part.0>:
  40331c:	e92d 4ff8 	stmdb	sp!, {r3, r4, r5, r6, r7, r8, r9, sl, fp, lr}
  403320:	6e4b      	ldr	r3, [r1, #100]	; 0x64
  403322:	049c      	lsls	r4, r3, #18
  403324:	4693      	mov	fp, r2
  403326:	d52f      	bpl.n	403388 <__sprint_r.part.0+0x6c>
  403328:	6893      	ldr	r3, [r2, #8]
  40332a:	6812      	ldr	r2, [r2, #0]
  40332c:	b353      	cbz	r3, 403384 <__sprint_r.part.0+0x68>
  40332e:	460e      	mov	r6, r1
  403330:	4607      	mov	r7, r0
  403332:	f102 0908 	add.w	r9, r2, #8
  403336:	e919 0420 	ldmdb	r9, {r5, sl}
  40333a:	ea5f 089a 	movs.w	r8, sl, lsr #2
  40333e:	d017      	beq.n	403370 <__sprint_r.part.0+0x54>
  403340:	3d04      	subs	r5, #4
  403342:	2400      	movs	r4, #0
  403344:	e001      	b.n	40334a <__sprint_r.part.0+0x2e>
  403346:	45a0      	cmp	r8, r4
  403348:	d010      	beq.n	40336c <__sprint_r.part.0+0x50>
  40334a:	4632      	mov	r2, r6
  40334c:	f855 1f04 	ldr.w	r1, [r5, #4]!
  403350:	4638      	mov	r0, r7
  403352:	f001 f8bb 	bl	4044cc <_fputwc_r>
  403356:	1c43      	adds	r3, r0, #1
  403358:	f104 0401 	add.w	r4, r4, #1
  40335c:	d1f3      	bne.n	403346 <__sprint_r.part.0+0x2a>
  40335e:	2300      	movs	r3, #0
  403360:	f8cb 3008 	str.w	r3, [fp, #8]
  403364:	f8cb 3004 	str.w	r3, [fp, #4]
  403368:	e8bd 8ff8 	ldmia.w	sp!, {r3, r4, r5, r6, r7, r8, r9, sl, fp, pc}
  40336c:	f8db 3008 	ldr.w	r3, [fp, #8]
  403370:	f02a 0a03 	bic.w	sl, sl, #3
  403374:	eba3 030a 	sub.w	r3, r3, sl
  403378:	f8cb 3008 	str.w	r3, [fp, #8]
  40337c:	f109 0908 	add.w	r9, r9, #8
  403380:	2b00      	cmp	r3, #0
  403382:	d1d8      	bne.n	403336 <__sprint_r.part.0+0x1a>
  403384:	2000      	movs	r0, #0
  403386:	e7ea      	b.n	40335e <__sprint_r.part.0+0x42>
  403388:	f001 fa0a 	bl	4047a0 <__sfvwrite_r>
  40338c:	2300      	movs	r3, #0
  40338e:	f8cb 3008 	str.w	r3, [fp, #8]
  403392:	f8cb 3004 	str.w	r3, [fp, #4]
  403396:	e8bd 8ff8 	ldmia.w	sp!, {r3, r4, r5, r6, r7, r8, r9, sl, fp, pc}
  40339a:	bf00      	nop

0040339c <_vfiprintf_r>:
  40339c:	e92d 4ff0 	stmdb	sp!, {r4, r5, r6, r7, r8, r9, sl, fp, lr}
  4033a0:	b0ad      	sub	sp, #180	; 0xb4
  4033a2:	461d      	mov	r5, r3
  4033a4:	468b      	mov	fp, r1
  4033a6:	4690      	mov	r8, r2
  4033a8:	9307      	str	r3, [sp, #28]
  4033aa:	9006      	str	r0, [sp, #24]
  4033ac:	b118      	cbz	r0, 4033b6 <_vfiprintf_r+0x1a>
  4033ae:	6b83      	ldr	r3, [r0, #56]	; 0x38
  4033b0:	2b00      	cmp	r3, #0
  4033b2:	f000 80f3 	beq.w	40359c <_vfiprintf_r+0x200>
  4033b6:	f8db 3064 	ldr.w	r3, [fp, #100]	; 0x64
  4033ba:	f9bb 000c 	ldrsh.w	r0, [fp, #12]
  4033be:	07df      	lsls	r7, r3, #31
  4033c0:	b281      	uxth	r1, r0
  4033c2:	d402      	bmi.n	4033ca <_vfiprintf_r+0x2e>
  4033c4:	058e      	lsls	r6, r1, #22
  4033c6:	f140 80fc 	bpl.w	4035c2 <_vfiprintf_r+0x226>
  4033ca:	048c      	lsls	r4, r1, #18
  4033cc:	d40a      	bmi.n	4033e4 <_vfiprintf_r+0x48>
  4033ce:	f8db 3064 	ldr.w	r3, [fp, #100]	; 0x64
  4033d2:	f440 5100 	orr.w	r1, r0, #8192	; 0x2000
  4033d6:	f423 5300 	bic.w	r3, r3, #8192	; 0x2000
  4033da:	f8ab 100c 	strh.w	r1, [fp, #12]
  4033de:	f8cb 3064 	str.w	r3, [fp, #100]	; 0x64
  4033e2:	b289      	uxth	r1, r1
  4033e4:	0708      	lsls	r0, r1, #28
  4033e6:	f140 80b3 	bpl.w	403550 <_vfiprintf_r+0x1b4>
  4033ea:	f8db 3010 	ldr.w	r3, [fp, #16]
  4033ee:	2b00      	cmp	r3, #0
  4033f0:	f000 80ae 	beq.w	403550 <_vfiprintf_r+0x1b4>
  4033f4:	f001 031a 	and.w	r3, r1, #26
  4033f8:	2b0a      	cmp	r3, #10
  4033fa:	f000 80b5 	beq.w	403568 <_vfiprintf_r+0x1cc>
  4033fe:	2300      	movs	r3, #0
  403400:	f10d 0970 	add.w	r9, sp, #112	; 0x70
  403404:	930b      	str	r3, [sp, #44]	; 0x2c
  403406:	9311      	str	r3, [sp, #68]	; 0x44
  403408:	9310      	str	r3, [sp, #64]	; 0x40
  40340a:	9303      	str	r3, [sp, #12]
  40340c:	f8cd 903c 	str.w	r9, [sp, #60]	; 0x3c
  403410:	46ca      	mov	sl, r9
  403412:	f8cd b010 	str.w	fp, [sp, #16]
  403416:	f898 3000 	ldrb.w	r3, [r8]
  40341a:	4644      	mov	r4, r8
  40341c:	b1fb      	cbz	r3, 40345e <_vfiprintf_r+0xc2>
  40341e:	2b25      	cmp	r3, #37	; 0x25
  403420:	d102      	bne.n	403428 <_vfiprintf_r+0x8c>
  403422:	e01c      	b.n	40345e <_vfiprintf_r+0xc2>
  403424:	2b25      	cmp	r3, #37	; 0x25
  403426:	d003      	beq.n	403430 <_vfiprintf_r+0x94>
  403428:	f814 3f01 	ldrb.w	r3, [r4, #1]!
  40342c:	2b00      	cmp	r3, #0
  40342e:	d1f9      	bne.n	403424 <_vfiprintf_r+0x88>
  403430:	eba4 0508 	sub.w	r5, r4, r8
  403434:	b19d      	cbz	r5, 40345e <_vfiprintf_r+0xc2>
  403436:	9b10      	ldr	r3, [sp, #64]	; 0x40
  403438:	9a11      	ldr	r2, [sp, #68]	; 0x44
  40343a:	f8ca 8000 	str.w	r8, [sl]
  40343e:	3301      	adds	r3, #1
  403440:	442a      	add	r2, r5
  403442:	2b07      	cmp	r3, #7
  403444:	f8ca 5004 	str.w	r5, [sl, #4]
  403448:	9211      	str	r2, [sp, #68]	; 0x44
  40344a:	9310      	str	r3, [sp, #64]	; 0x40
  40344c:	dd7a      	ble.n	403544 <_vfiprintf_r+0x1a8>
  40344e:	2a00      	cmp	r2, #0
  403450:	f040 84b0 	bne.w	403db4 <_vfiprintf_r+0xa18>
  403454:	9b03      	ldr	r3, [sp, #12]
  403456:	9210      	str	r2, [sp, #64]	; 0x40
  403458:	442b      	add	r3, r5
  40345a:	46ca      	mov	sl, r9
  40345c:	9303      	str	r3, [sp, #12]
  40345e:	7823      	ldrb	r3, [r4, #0]
  403460:	2b00      	cmp	r3, #0
  403462:	f000 83e0 	beq.w	403c26 <_vfiprintf_r+0x88a>
  403466:	2000      	movs	r0, #0
  403468:	f04f 0300 	mov.w	r3, #0
  40346c:	f88d 3037 	strb.w	r3, [sp, #55]	; 0x37
  403470:	f104 0801 	add.w	r8, r4, #1
  403474:	7862      	ldrb	r2, [r4, #1]
  403476:	4605      	mov	r5, r0
  403478:	4606      	mov	r6, r0
  40347a:	4603      	mov	r3, r0
  40347c:	f04f 34ff 	mov.w	r4, #4294967295
  403480:	f108 0801 	add.w	r8, r8, #1
  403484:	f1a2 0120 	sub.w	r1, r2, #32
  403488:	2958      	cmp	r1, #88	; 0x58
  40348a:	f200 82de 	bhi.w	403a4a <_vfiprintf_r+0x6ae>
  40348e:	e8df f011 	tbh	[pc, r1, lsl #1]
  403492:	0221      	.short	0x0221
  403494:	02dc02dc 	.word	0x02dc02dc
  403498:	02dc0229 	.word	0x02dc0229
  40349c:	02dc02dc 	.word	0x02dc02dc
  4034a0:	02dc02dc 	.word	0x02dc02dc
  4034a4:	028902dc 	.word	0x028902dc
  4034a8:	02dc0295 	.word	0x02dc0295
  4034ac:	02bd00a2 	.word	0x02bd00a2
  4034b0:	019f02dc 	.word	0x019f02dc
  4034b4:	01a401a4 	.word	0x01a401a4
  4034b8:	01a401a4 	.word	0x01a401a4
  4034bc:	01a401a4 	.word	0x01a401a4
  4034c0:	01a401a4 	.word	0x01a401a4
  4034c4:	02dc01a4 	.word	0x02dc01a4
  4034c8:	02dc02dc 	.word	0x02dc02dc
  4034cc:	02dc02dc 	.word	0x02dc02dc
  4034d0:	02dc02dc 	.word	0x02dc02dc
  4034d4:	02dc02dc 	.word	0x02dc02dc
  4034d8:	01b202dc 	.word	0x01b202dc
  4034dc:	02dc02dc 	.word	0x02dc02dc
  4034e0:	02dc02dc 	.word	0x02dc02dc
  4034e4:	02dc02dc 	.word	0x02dc02dc
  4034e8:	02dc02dc 	.word	0x02dc02dc
  4034ec:	02dc02dc 	.word	0x02dc02dc
  4034f0:	02dc0197 	.word	0x02dc0197
  4034f4:	02dc02dc 	.word	0x02dc02dc
  4034f8:	02dc02dc 	.word	0x02dc02dc
  4034fc:	02dc019b 	.word	0x02dc019b
  403500:	025302dc 	.word	0x025302dc
  403504:	02dc02dc 	.word	0x02dc02dc
  403508:	02dc02dc 	.word	0x02dc02dc
  40350c:	02dc02dc 	.word	0x02dc02dc
  403510:	02dc02dc 	.word	0x02dc02dc
  403514:	02dc02dc 	.word	0x02dc02dc
  403518:	021b025a 	.word	0x021b025a
  40351c:	02dc02dc 	.word	0x02dc02dc
  403520:	026e02dc 	.word	0x026e02dc
  403524:	02dc021b 	.word	0x02dc021b
  403528:	027302dc 	.word	0x027302dc
  40352c:	01f502dc 	.word	0x01f502dc
  403530:	02090182 	.word	0x02090182
  403534:	02dc02d7 	.word	0x02dc02d7
  403538:	02dc029a 	.word	0x02dc029a
  40353c:	02dc00a7 	.word	0x02dc00a7
  403540:	022e02dc 	.word	0x022e02dc
  403544:	f10a 0a08 	add.w	sl, sl, #8
  403548:	9b03      	ldr	r3, [sp, #12]
  40354a:	442b      	add	r3, r5
  40354c:	9303      	str	r3, [sp, #12]
  40354e:	e786      	b.n	40345e <_vfiprintf_r+0xc2>
  403550:	4659      	mov	r1, fp
  403552:	9806      	ldr	r0, [sp, #24]
  403554:	f000 fdac 	bl	4040b0 <__swsetup_r>
  403558:	bb18      	cbnz	r0, 4035a2 <_vfiprintf_r+0x206>
  40355a:	f8bb 100c 	ldrh.w	r1, [fp, #12]
  40355e:	f001 031a 	and.w	r3, r1, #26
  403562:	2b0a      	cmp	r3, #10
  403564:	f47f af4b 	bne.w	4033fe <_vfiprintf_r+0x62>
  403568:	f9bb 300e 	ldrsh.w	r3, [fp, #14]
  40356c:	2b00      	cmp	r3, #0
  40356e:	f6ff af46 	blt.w	4033fe <_vfiprintf_r+0x62>
  403572:	f8db 3064 	ldr.w	r3, [fp, #100]	; 0x64
  403576:	07db      	lsls	r3, r3, #31
  403578:	d405      	bmi.n	403586 <_vfiprintf_r+0x1ea>
  40357a:	058f      	lsls	r7, r1, #22
  40357c:	d403      	bmi.n	403586 <_vfiprintf_r+0x1ea>
  40357e:	f8db 0058 	ldr.w	r0, [fp, #88]	; 0x58
  403582:	f001 fac3 	bl	404b0c <__retarget_lock_release_recursive>
  403586:	462b      	mov	r3, r5
  403588:	4642      	mov	r2, r8
  40358a:	4659      	mov	r1, fp
  40358c:	9806      	ldr	r0, [sp, #24]
  40358e:	f000 fd4d 	bl	40402c <__sbprintf>
  403592:	9003      	str	r0, [sp, #12]
  403594:	9803      	ldr	r0, [sp, #12]
  403596:	b02d      	add	sp, #180	; 0xb4
  403598:	e8bd 8ff0 	ldmia.w	sp!, {r4, r5, r6, r7, r8, r9, sl, fp, pc}
  40359c:	f000 fef4 	bl	404388 <__sinit>
  4035a0:	e709      	b.n	4033b6 <_vfiprintf_r+0x1a>
  4035a2:	f8db 3064 	ldr.w	r3, [fp, #100]	; 0x64
  4035a6:	07d9      	lsls	r1, r3, #31
  4035a8:	d404      	bmi.n	4035b4 <_vfiprintf_r+0x218>
  4035aa:	f8bb 300c 	ldrh.w	r3, [fp, #12]
  4035ae:	059a      	lsls	r2, r3, #22
  4035b0:	f140 84aa 	bpl.w	403f08 <_vfiprintf_r+0xb6c>
  4035b4:	f04f 33ff 	mov.w	r3, #4294967295
  4035b8:	9303      	str	r3, [sp, #12]
  4035ba:	9803      	ldr	r0, [sp, #12]
  4035bc:	b02d      	add	sp, #180	; 0xb4
  4035be:	e8bd 8ff0 	ldmia.w	sp!, {r4, r5, r6, r7, r8, r9, sl, fp, pc}
  4035c2:	f8db 0058 	ldr.w	r0, [fp, #88]	; 0x58
  4035c6:	f001 fa9f 	bl	404b08 <__retarget_lock_acquire_recursive>
  4035ca:	f9bb 000c 	ldrsh.w	r0, [fp, #12]
  4035ce:	b281      	uxth	r1, r0
  4035d0:	e6fb      	b.n	4033ca <_vfiprintf_r+0x2e>
  4035d2:	4276      	negs	r6, r6
  4035d4:	9207      	str	r2, [sp, #28]
  4035d6:	f043 0304 	orr.w	r3, r3, #4
  4035da:	f898 2000 	ldrb.w	r2, [r8]
  4035de:	e74f      	b.n	403480 <_vfiprintf_r+0xe4>
  4035e0:	9608      	str	r6, [sp, #32]
  4035e2:	069e      	lsls	r6, r3, #26
  4035e4:	f100 8450 	bmi.w	403e88 <_vfiprintf_r+0xaec>
  4035e8:	9907      	ldr	r1, [sp, #28]
  4035ea:	06dd      	lsls	r5, r3, #27
  4035ec:	460a      	mov	r2, r1
  4035ee:	f100 83ef 	bmi.w	403dd0 <_vfiprintf_r+0xa34>
  4035f2:	0658      	lsls	r0, r3, #25
  4035f4:	f140 83ec 	bpl.w	403dd0 <_vfiprintf_r+0xa34>
  4035f8:	880e      	ldrh	r6, [r1, #0]
  4035fa:	3104      	adds	r1, #4
  4035fc:	2700      	movs	r7, #0
  4035fe:	2201      	movs	r2, #1
  403600:	9107      	str	r1, [sp, #28]
  403602:	f04f 0100 	mov.w	r1, #0
  403606:	f88d 1037 	strb.w	r1, [sp, #55]	; 0x37
  40360a:	2500      	movs	r5, #0
  40360c:	1c61      	adds	r1, r4, #1
  40360e:	f000 8116 	beq.w	40383e <_vfiprintf_r+0x4a2>
  403612:	f023 0180 	bic.w	r1, r3, #128	; 0x80
  403616:	9102      	str	r1, [sp, #8]
  403618:	ea56 0107 	orrs.w	r1, r6, r7
  40361c:	f040 8114 	bne.w	403848 <_vfiprintf_r+0x4ac>
  403620:	2c00      	cmp	r4, #0
  403622:	f040 835c 	bne.w	403cde <_vfiprintf_r+0x942>
  403626:	2a00      	cmp	r2, #0
  403628:	f040 83b7 	bne.w	403d9a <_vfiprintf_r+0x9fe>
  40362c:	f013 0301 	ands.w	r3, r3, #1
  403630:	9305      	str	r3, [sp, #20]
  403632:	f000 8457 	beq.w	403ee4 <_vfiprintf_r+0xb48>
  403636:	f10d 0bb0 	add.w	fp, sp, #176	; 0xb0
  40363a:	2330      	movs	r3, #48	; 0x30
  40363c:	f80b 3d41 	strb.w	r3, [fp, #-65]!
  403640:	9b05      	ldr	r3, [sp, #20]
  403642:	42a3      	cmp	r3, r4
  403644:	bfb8      	it	lt
  403646:	4623      	movlt	r3, r4
  403648:	9301      	str	r3, [sp, #4]
  40364a:	b10d      	cbz	r5, 403650 <_vfiprintf_r+0x2b4>
  40364c:	3301      	adds	r3, #1
  40364e:	9301      	str	r3, [sp, #4]
  403650:	9b02      	ldr	r3, [sp, #8]
  403652:	f013 0302 	ands.w	r3, r3, #2
  403656:	9309      	str	r3, [sp, #36]	; 0x24
  403658:	d002      	beq.n	403660 <_vfiprintf_r+0x2c4>
  40365a:	9b01      	ldr	r3, [sp, #4]
  40365c:	3302      	adds	r3, #2
  40365e:	9301      	str	r3, [sp, #4]
  403660:	9b02      	ldr	r3, [sp, #8]
  403662:	f013 0384 	ands.w	r3, r3, #132	; 0x84
  403666:	930a      	str	r3, [sp, #40]	; 0x28
  403668:	f040 8217 	bne.w	403a9a <_vfiprintf_r+0x6fe>
  40366c:	9b08      	ldr	r3, [sp, #32]
  40366e:	9a01      	ldr	r2, [sp, #4]
  403670:	1a9d      	subs	r5, r3, r2
  403672:	2d00      	cmp	r5, #0
  403674:	f340 8211 	ble.w	403a9a <_vfiprintf_r+0x6fe>
  403678:	2d10      	cmp	r5, #16
  40367a:	f340 8490 	ble.w	403f9e <_vfiprintf_r+0xc02>
  40367e:	9b10      	ldr	r3, [sp, #64]	; 0x40
  403680:	9a11      	ldr	r2, [sp, #68]	; 0x44
  403682:	4ec4      	ldr	r6, [pc, #784]	; (403994 <_vfiprintf_r+0x5f8>)
  403684:	46d6      	mov	lr, sl
  403686:	2710      	movs	r7, #16
  403688:	46a2      	mov	sl, r4
  40368a:	4619      	mov	r1, r3
  40368c:	9c06      	ldr	r4, [sp, #24]
  40368e:	e007      	b.n	4036a0 <_vfiprintf_r+0x304>
  403690:	f101 0c02 	add.w	ip, r1, #2
  403694:	f10e 0e08 	add.w	lr, lr, #8
  403698:	4601      	mov	r1, r0
  40369a:	3d10      	subs	r5, #16
  40369c:	2d10      	cmp	r5, #16
  40369e:	dd11      	ble.n	4036c4 <_vfiprintf_r+0x328>
  4036a0:	1c48      	adds	r0, r1, #1
  4036a2:	3210      	adds	r2, #16
  4036a4:	2807      	cmp	r0, #7
  4036a6:	9211      	str	r2, [sp, #68]	; 0x44
  4036a8:	e88e 00c0 	stmia.w	lr, {r6, r7}
  4036ac:	9010      	str	r0, [sp, #64]	; 0x40
  4036ae:	ddef      	ble.n	403690 <_vfiprintf_r+0x2f4>
  4036b0:	2a00      	cmp	r2, #0
  4036b2:	f040 81e4 	bne.w	403a7e <_vfiprintf_r+0x6e2>
  4036b6:	3d10      	subs	r5, #16
  4036b8:	2d10      	cmp	r5, #16
  4036ba:	4611      	mov	r1, r2
  4036bc:	f04f 0c01 	mov.w	ip, #1
  4036c0:	46ce      	mov	lr, r9
  4036c2:	dced      	bgt.n	4036a0 <_vfiprintf_r+0x304>
  4036c4:	4654      	mov	r4, sl
  4036c6:	4661      	mov	r1, ip
  4036c8:	46f2      	mov	sl, lr
  4036ca:	442a      	add	r2, r5
  4036cc:	2907      	cmp	r1, #7
  4036ce:	9211      	str	r2, [sp, #68]	; 0x44
  4036d0:	f8ca 6000 	str.w	r6, [sl]
  4036d4:	f8ca 5004 	str.w	r5, [sl, #4]
  4036d8:	9110      	str	r1, [sp, #64]	; 0x40
  4036da:	f300 82ec 	bgt.w	403cb6 <_vfiprintf_r+0x91a>
  4036de:	f89d 5037 	ldrb.w	r5, [sp, #55]	; 0x37
  4036e2:	f10a 0a08 	add.w	sl, sl, #8
  4036e6:	1c48      	adds	r0, r1, #1
  4036e8:	2d00      	cmp	r5, #0
  4036ea:	f040 81de 	bne.w	403aaa <_vfiprintf_r+0x70e>
  4036ee:	9b09      	ldr	r3, [sp, #36]	; 0x24
  4036f0:	2b00      	cmp	r3, #0
  4036f2:	f000 81f8 	beq.w	403ae6 <_vfiprintf_r+0x74a>
  4036f6:	3202      	adds	r2, #2
  4036f8:	a90e      	add	r1, sp, #56	; 0x38
  4036fa:	2302      	movs	r3, #2
  4036fc:	2807      	cmp	r0, #7
  4036fe:	9211      	str	r2, [sp, #68]	; 0x44
  403700:	9010      	str	r0, [sp, #64]	; 0x40
  403702:	e88a 000a 	stmia.w	sl, {r1, r3}
  403706:	f340 81ea 	ble.w	403ade <_vfiprintf_r+0x742>
  40370a:	2a00      	cmp	r2, #0
  40370c:	f040 838c 	bne.w	403e28 <_vfiprintf_r+0xa8c>
  403710:	9b0a      	ldr	r3, [sp, #40]	; 0x28
  403712:	2b80      	cmp	r3, #128	; 0x80
  403714:	f04f 0001 	mov.w	r0, #1
  403718:	4611      	mov	r1, r2
  40371a:	46ca      	mov	sl, r9
  40371c:	f040 81e7 	bne.w	403aee <_vfiprintf_r+0x752>
  403720:	9b08      	ldr	r3, [sp, #32]
  403722:	9d01      	ldr	r5, [sp, #4]
  403724:	1b5e      	subs	r6, r3, r5
  403726:	2e00      	cmp	r6, #0
  403728:	f340 81e1 	ble.w	403aee <_vfiprintf_r+0x752>
  40372c:	2e10      	cmp	r6, #16
  40372e:	4d9a      	ldr	r5, [pc, #616]	; (403998 <_vfiprintf_r+0x5fc>)
  403730:	f340 8450 	ble.w	403fd4 <_vfiprintf_r+0xc38>
  403734:	46d4      	mov	ip, sl
  403736:	2710      	movs	r7, #16
  403738:	46a2      	mov	sl, r4
  40373a:	9c06      	ldr	r4, [sp, #24]
  40373c:	e007      	b.n	40374e <_vfiprintf_r+0x3b2>
  40373e:	f101 0e02 	add.w	lr, r1, #2
  403742:	f10c 0c08 	add.w	ip, ip, #8
  403746:	4601      	mov	r1, r0
  403748:	3e10      	subs	r6, #16
  40374a:	2e10      	cmp	r6, #16
  40374c:	dd11      	ble.n	403772 <_vfiprintf_r+0x3d6>
  40374e:	1c48      	adds	r0, r1, #1
  403750:	3210      	adds	r2, #16
  403752:	2807      	cmp	r0, #7
  403754:	9211      	str	r2, [sp, #68]	; 0x44
  403756:	e88c 00a0 	stmia.w	ip, {r5, r7}
  40375a:	9010      	str	r0, [sp, #64]	; 0x40
  40375c:	ddef      	ble.n	40373e <_vfiprintf_r+0x3a2>
  40375e:	2a00      	cmp	r2, #0
  403760:	f040 829d 	bne.w	403c9e <_vfiprintf_r+0x902>
  403764:	3e10      	subs	r6, #16
  403766:	2e10      	cmp	r6, #16
  403768:	f04f 0e01 	mov.w	lr, #1
  40376c:	4611      	mov	r1, r2
  40376e:	46cc      	mov	ip, r9
  403770:	dced      	bgt.n	40374e <_vfiprintf_r+0x3b2>
  403772:	4654      	mov	r4, sl
  403774:	46e2      	mov	sl, ip
  403776:	4432      	add	r2, r6
  403778:	f1be 0f07 	cmp.w	lr, #7
  40377c:	9211      	str	r2, [sp, #68]	; 0x44
  40377e:	e88a 0060 	stmia.w	sl, {r5, r6}
  403782:	f8cd e040 	str.w	lr, [sp, #64]	; 0x40
  403786:	f300 8369 	bgt.w	403e5c <_vfiprintf_r+0xac0>
  40378a:	f10a 0a08 	add.w	sl, sl, #8
  40378e:	f10e 0001 	add.w	r0, lr, #1
  403792:	4671      	mov	r1, lr
  403794:	e1ab      	b.n	403aee <_vfiprintf_r+0x752>
  403796:	9608      	str	r6, [sp, #32]
  403798:	f013 0220 	ands.w	r2, r3, #32
  40379c:	f040 838c 	bne.w	403eb8 <_vfiprintf_r+0xb1c>
  4037a0:	f013 0110 	ands.w	r1, r3, #16
  4037a4:	f040 831a 	bne.w	403ddc <_vfiprintf_r+0xa40>
  4037a8:	f013 0240 	ands.w	r2, r3, #64	; 0x40
  4037ac:	f000 8316 	beq.w	403ddc <_vfiprintf_r+0xa40>
  4037b0:	9807      	ldr	r0, [sp, #28]
  4037b2:	460a      	mov	r2, r1
  4037b4:	4601      	mov	r1, r0
  4037b6:	3104      	adds	r1, #4
  4037b8:	8806      	ldrh	r6, [r0, #0]
  4037ba:	9107      	str	r1, [sp, #28]
  4037bc:	2700      	movs	r7, #0
  4037be:	e720      	b.n	403602 <_vfiprintf_r+0x266>
  4037c0:	9608      	str	r6, [sp, #32]
  4037c2:	f043 0310 	orr.w	r3, r3, #16
  4037c6:	e7e7      	b.n	403798 <_vfiprintf_r+0x3fc>
  4037c8:	9608      	str	r6, [sp, #32]
  4037ca:	f043 0310 	orr.w	r3, r3, #16
  4037ce:	e708      	b.n	4035e2 <_vfiprintf_r+0x246>
  4037d0:	f043 0380 	orr.w	r3, r3, #128	; 0x80
  4037d4:	f898 2000 	ldrb.w	r2, [r8]
  4037d8:	e652      	b.n	403480 <_vfiprintf_r+0xe4>
  4037da:	f1a2 0130 	sub.w	r1, r2, #48	; 0x30
  4037de:	2600      	movs	r6, #0
  4037e0:	f818 2b01 	ldrb.w	r2, [r8], #1
  4037e4:	eb06 0686 	add.w	r6, r6, r6, lsl #2
  4037e8:	eb01 0646 	add.w	r6, r1, r6, lsl #1
  4037ec:	f1a2 0130 	sub.w	r1, r2, #48	; 0x30
  4037f0:	2909      	cmp	r1, #9
  4037f2:	d9f5      	bls.n	4037e0 <_vfiprintf_r+0x444>
  4037f4:	e646      	b.n	403484 <_vfiprintf_r+0xe8>
  4037f6:	9608      	str	r6, [sp, #32]
  4037f8:	2800      	cmp	r0, #0
  4037fa:	f040 8408 	bne.w	40400e <_vfiprintf_r+0xc72>
  4037fe:	f043 0310 	orr.w	r3, r3, #16
  403802:	069e      	lsls	r6, r3, #26
  403804:	f100 834c 	bmi.w	403ea0 <_vfiprintf_r+0xb04>
  403808:	06dd      	lsls	r5, r3, #27
  40380a:	f100 82f3 	bmi.w	403df4 <_vfiprintf_r+0xa58>
  40380e:	0658      	lsls	r0, r3, #25
  403810:	f140 82f0 	bpl.w	403df4 <_vfiprintf_r+0xa58>
  403814:	9d07      	ldr	r5, [sp, #28]
  403816:	f9b5 6000 	ldrsh.w	r6, [r5]
  40381a:	462a      	mov	r2, r5
  40381c:	17f7      	asrs	r7, r6, #31
  40381e:	3204      	adds	r2, #4
  403820:	4630      	mov	r0, r6
  403822:	4639      	mov	r1, r7
  403824:	9207      	str	r2, [sp, #28]
  403826:	2800      	cmp	r0, #0
  403828:	f171 0200 	sbcs.w	r2, r1, #0
  40382c:	f2c0 835d 	blt.w	403eea <_vfiprintf_r+0xb4e>
  403830:	1c61      	adds	r1, r4, #1
  403832:	f89d 5037 	ldrb.w	r5, [sp, #55]	; 0x37
  403836:	f04f 0201 	mov.w	r2, #1
  40383a:	f47f aeea 	bne.w	403612 <_vfiprintf_r+0x276>
  40383e:	ea56 0107 	orrs.w	r1, r6, r7
  403842:	f000 824d 	beq.w	403ce0 <_vfiprintf_r+0x944>
  403846:	9302      	str	r3, [sp, #8]
  403848:	2a01      	cmp	r2, #1
  40384a:	f000 828c 	beq.w	403d66 <_vfiprintf_r+0x9ca>
  40384e:	2a02      	cmp	r2, #2
  403850:	f040 825c 	bne.w	403d0c <_vfiprintf_r+0x970>
  403854:	980b      	ldr	r0, [sp, #44]	; 0x2c
  403856:	46cb      	mov	fp, r9
  403858:	0933      	lsrs	r3, r6, #4
  40385a:	f006 010f 	and.w	r1, r6, #15
  40385e:	ea43 7307 	orr.w	r3, r3, r7, lsl #28
  403862:	093a      	lsrs	r2, r7, #4
  403864:	461e      	mov	r6, r3
  403866:	4617      	mov	r7, r2
  403868:	5c43      	ldrb	r3, [r0, r1]
  40386a:	f80b 3d01 	strb.w	r3, [fp, #-1]!
  40386e:	ea56 0307 	orrs.w	r3, r6, r7
  403872:	d1f1      	bne.n	403858 <_vfiprintf_r+0x4bc>
  403874:	eba9 030b 	sub.w	r3, r9, fp
  403878:	9305      	str	r3, [sp, #20]
  40387a:	e6e1      	b.n	403640 <_vfiprintf_r+0x2a4>
  40387c:	2800      	cmp	r0, #0
  40387e:	f040 83c0 	bne.w	404002 <_vfiprintf_r+0xc66>
  403882:	0699      	lsls	r1, r3, #26
  403884:	f100 8367 	bmi.w	403f56 <_vfiprintf_r+0xbba>
  403888:	06da      	lsls	r2, r3, #27
  40388a:	f100 80f1 	bmi.w	403a70 <_vfiprintf_r+0x6d4>
  40388e:	065b      	lsls	r3, r3, #25
  403890:	f140 80ee 	bpl.w	403a70 <_vfiprintf_r+0x6d4>
  403894:	9a07      	ldr	r2, [sp, #28]
  403896:	6813      	ldr	r3, [r2, #0]
  403898:	3204      	adds	r2, #4
  40389a:	9207      	str	r2, [sp, #28]
  40389c:	f8bd 200c 	ldrh.w	r2, [sp, #12]
  4038a0:	801a      	strh	r2, [r3, #0]
  4038a2:	e5b8      	b.n	403416 <_vfiprintf_r+0x7a>
  4038a4:	9807      	ldr	r0, [sp, #28]
  4038a6:	4a3d      	ldr	r2, [pc, #244]	; (40399c <_vfiprintf_r+0x600>)
  4038a8:	9608      	str	r6, [sp, #32]
  4038aa:	920b      	str	r2, [sp, #44]	; 0x2c
  4038ac:	6806      	ldr	r6, [r0, #0]
  4038ae:	2278      	movs	r2, #120	; 0x78
  4038b0:	2130      	movs	r1, #48	; 0x30
  4038b2:	3004      	adds	r0, #4
  4038b4:	f88d 2039 	strb.w	r2, [sp, #57]	; 0x39
  4038b8:	f043 0302 	orr.w	r3, r3, #2
  4038bc:	9007      	str	r0, [sp, #28]
  4038be:	2700      	movs	r7, #0
  4038c0:	f88d 1038 	strb.w	r1, [sp, #56]	; 0x38
  4038c4:	2202      	movs	r2, #2
  4038c6:	e69c      	b.n	403602 <_vfiprintf_r+0x266>
  4038c8:	9608      	str	r6, [sp, #32]
  4038ca:	2800      	cmp	r0, #0
  4038cc:	d099      	beq.n	403802 <_vfiprintf_r+0x466>
  4038ce:	f88d 5037 	strb.w	r5, [sp, #55]	; 0x37
  4038d2:	e796      	b.n	403802 <_vfiprintf_r+0x466>
  4038d4:	f898 2000 	ldrb.w	r2, [r8]
  4038d8:	2d00      	cmp	r5, #0
  4038da:	f47f add1 	bne.w	403480 <_vfiprintf_r+0xe4>
  4038de:	2001      	movs	r0, #1
  4038e0:	2520      	movs	r5, #32
  4038e2:	e5cd      	b.n	403480 <_vfiprintf_r+0xe4>
  4038e4:	f043 0301 	orr.w	r3, r3, #1
  4038e8:	f898 2000 	ldrb.w	r2, [r8]
  4038ec:	e5c8      	b.n	403480 <_vfiprintf_r+0xe4>
  4038ee:	9608      	str	r6, [sp, #32]
  4038f0:	2800      	cmp	r0, #0
  4038f2:	f040 8393 	bne.w	40401c <_vfiprintf_r+0xc80>
  4038f6:	4929      	ldr	r1, [pc, #164]	; (40399c <_vfiprintf_r+0x600>)
  4038f8:	910b      	str	r1, [sp, #44]	; 0x2c
  4038fa:	069f      	lsls	r7, r3, #26
  4038fc:	f100 82e8 	bmi.w	403ed0 <_vfiprintf_r+0xb34>
  403900:	9807      	ldr	r0, [sp, #28]
  403902:	06de      	lsls	r6, r3, #27
  403904:	4601      	mov	r1, r0
  403906:	f100 8270 	bmi.w	403dea <_vfiprintf_r+0xa4e>
  40390a:	065d      	lsls	r5, r3, #25
  40390c:	f140 826d 	bpl.w	403dea <_vfiprintf_r+0xa4e>
  403910:	3104      	adds	r1, #4
  403912:	8806      	ldrh	r6, [r0, #0]
  403914:	9107      	str	r1, [sp, #28]
  403916:	2700      	movs	r7, #0
  403918:	07d8      	lsls	r0, r3, #31
  40391a:	f140 8222 	bpl.w	403d62 <_vfiprintf_r+0x9c6>
  40391e:	ea56 0107 	orrs.w	r1, r6, r7
  403922:	f000 821e 	beq.w	403d62 <_vfiprintf_r+0x9c6>
  403926:	2130      	movs	r1, #48	; 0x30
  403928:	f88d 2039 	strb.w	r2, [sp, #57]	; 0x39
  40392c:	f043 0302 	orr.w	r3, r3, #2
  403930:	f88d 1038 	strb.w	r1, [sp, #56]	; 0x38
  403934:	2202      	movs	r2, #2
  403936:	e664      	b.n	403602 <_vfiprintf_r+0x266>
  403938:	9608      	str	r6, [sp, #32]
  40393a:	2800      	cmp	r0, #0
  40393c:	f040 836b 	bne.w	404016 <_vfiprintf_r+0xc7a>
  403940:	4917      	ldr	r1, [pc, #92]	; (4039a0 <_vfiprintf_r+0x604>)
  403942:	910b      	str	r1, [sp, #44]	; 0x2c
  403944:	e7d9      	b.n	4038fa <_vfiprintf_r+0x55e>
  403946:	9907      	ldr	r1, [sp, #28]
  403948:	9608      	str	r6, [sp, #32]
  40394a:	680a      	ldr	r2, [r1, #0]
  40394c:	f88d 2048 	strb.w	r2, [sp, #72]	; 0x48
  403950:	f04f 0000 	mov.w	r0, #0
  403954:	460a      	mov	r2, r1
  403956:	f88d 0037 	strb.w	r0, [sp, #55]	; 0x37
  40395a:	3204      	adds	r2, #4
  40395c:	2001      	movs	r0, #1
  40395e:	9001      	str	r0, [sp, #4]
  403960:	9207      	str	r2, [sp, #28]
  403962:	9005      	str	r0, [sp, #20]
  403964:	f10d 0b48 	add.w	fp, sp, #72	; 0x48
  403968:	9302      	str	r3, [sp, #8]
  40396a:	2400      	movs	r4, #0
  40396c:	e670      	b.n	403650 <_vfiprintf_r+0x2b4>
  40396e:	f043 0340 	orr.w	r3, r3, #64	; 0x40
  403972:	f898 2000 	ldrb.w	r2, [r8]
  403976:	e583      	b.n	403480 <_vfiprintf_r+0xe4>
  403978:	f898 2000 	ldrb.w	r2, [r8]
  40397c:	2a6c      	cmp	r2, #108	; 0x6c
  40397e:	bf03      	ittte	eq
  403980:	f898 2001 	ldrbeq.w	r2, [r8, #1]
  403984:	f043 0320 	orreq.w	r3, r3, #32
  403988:	f108 0801 	addeq.w	r8, r8, #1
  40398c:	f043 0310 	orrne.w	r3, r3, #16
  403990:	e576      	b.n	403480 <_vfiprintf_r+0xe4>
  403992:	bf00      	nop
  403994:	00405f18 	.word	0x00405f18
  403998:	00405f28 	.word	0x00405f28
  40399c:	00405efc 	.word	0x00405efc
  4039a0:	00405ee8 	.word	0x00405ee8
  4039a4:	9907      	ldr	r1, [sp, #28]
  4039a6:	680e      	ldr	r6, [r1, #0]
  4039a8:	460a      	mov	r2, r1
  4039aa:	2e00      	cmp	r6, #0
  4039ac:	f102 0204 	add.w	r2, r2, #4
  4039b0:	f6ff ae0f 	blt.w	4035d2 <_vfiprintf_r+0x236>
  4039b4:	9207      	str	r2, [sp, #28]
  4039b6:	f898 2000 	ldrb.w	r2, [r8]
  4039ba:	e561      	b.n	403480 <_vfiprintf_r+0xe4>
  4039bc:	f898 2000 	ldrb.w	r2, [r8]
  4039c0:	2001      	movs	r0, #1
  4039c2:	252b      	movs	r5, #43	; 0x2b
  4039c4:	e55c      	b.n	403480 <_vfiprintf_r+0xe4>
  4039c6:	9907      	ldr	r1, [sp, #28]
  4039c8:	9608      	str	r6, [sp, #32]
  4039ca:	f8d1 b000 	ldr.w	fp, [r1]
  4039ce:	f04f 0200 	mov.w	r2, #0
  4039d2:	f88d 2037 	strb.w	r2, [sp, #55]	; 0x37
  4039d6:	1d0e      	adds	r6, r1, #4
  4039d8:	f1bb 0f00 	cmp.w	fp, #0
  4039dc:	f000 82e5 	beq.w	403faa <_vfiprintf_r+0xc0e>
  4039e0:	1c67      	adds	r7, r4, #1
  4039e2:	f000 82c4 	beq.w	403f6e <_vfiprintf_r+0xbd2>
  4039e6:	4622      	mov	r2, r4
  4039e8:	2100      	movs	r1, #0
  4039ea:	4658      	mov	r0, fp
  4039ec:	9301      	str	r3, [sp, #4]
  4039ee:	f001 fbd7 	bl	4051a0 <memchr>
  4039f2:	9b01      	ldr	r3, [sp, #4]
  4039f4:	2800      	cmp	r0, #0
  4039f6:	f000 82e5 	beq.w	403fc4 <_vfiprintf_r+0xc28>
  4039fa:	eba0 020b 	sub.w	r2, r0, fp
  4039fe:	9205      	str	r2, [sp, #20]
  403a00:	9607      	str	r6, [sp, #28]
  403a02:	9302      	str	r3, [sp, #8]
  403a04:	f89d 5037 	ldrb.w	r5, [sp, #55]	; 0x37
  403a08:	2400      	movs	r4, #0
  403a0a:	e619      	b.n	403640 <_vfiprintf_r+0x2a4>
  403a0c:	f898 2000 	ldrb.w	r2, [r8]
  403a10:	2a2a      	cmp	r2, #42	; 0x2a
  403a12:	f108 0701 	add.w	r7, r8, #1
  403a16:	f000 82e9 	beq.w	403fec <_vfiprintf_r+0xc50>
  403a1a:	f1a2 0130 	sub.w	r1, r2, #48	; 0x30
  403a1e:	2909      	cmp	r1, #9
  403a20:	46b8      	mov	r8, r7
  403a22:	f04f 0400 	mov.w	r4, #0
  403a26:	f63f ad2d 	bhi.w	403484 <_vfiprintf_r+0xe8>
  403a2a:	f818 2b01 	ldrb.w	r2, [r8], #1
  403a2e:	eb04 0484 	add.w	r4, r4, r4, lsl #2
  403a32:	eb01 0444 	add.w	r4, r1, r4, lsl #1
  403a36:	f1a2 0130 	sub.w	r1, r2, #48	; 0x30
  403a3a:	2909      	cmp	r1, #9
  403a3c:	d9f5      	bls.n	403a2a <_vfiprintf_r+0x68e>
  403a3e:	e521      	b.n	403484 <_vfiprintf_r+0xe8>
  403a40:	f043 0320 	orr.w	r3, r3, #32
  403a44:	f898 2000 	ldrb.w	r2, [r8]
  403a48:	e51a      	b.n	403480 <_vfiprintf_r+0xe4>
  403a4a:	9608      	str	r6, [sp, #32]
  403a4c:	2800      	cmp	r0, #0
  403a4e:	f040 82db 	bne.w	404008 <_vfiprintf_r+0xc6c>
  403a52:	2a00      	cmp	r2, #0
  403a54:	f000 80e7 	beq.w	403c26 <_vfiprintf_r+0x88a>
  403a58:	2101      	movs	r1, #1
  403a5a:	f88d 2048 	strb.w	r2, [sp, #72]	; 0x48
  403a5e:	f04f 0200 	mov.w	r2, #0
  403a62:	9101      	str	r1, [sp, #4]
  403a64:	f88d 2037 	strb.w	r2, [sp, #55]	; 0x37
  403a68:	9105      	str	r1, [sp, #20]
  403a6a:	f10d 0b48 	add.w	fp, sp, #72	; 0x48
  403a6e:	e77b      	b.n	403968 <_vfiprintf_r+0x5cc>
  403a70:	9a07      	ldr	r2, [sp, #28]
  403a72:	6813      	ldr	r3, [r2, #0]
  403a74:	3204      	adds	r2, #4
  403a76:	9207      	str	r2, [sp, #28]
  403a78:	9a03      	ldr	r2, [sp, #12]
  403a7a:	601a      	str	r2, [r3, #0]
  403a7c:	e4cb      	b.n	403416 <_vfiprintf_r+0x7a>
  403a7e:	aa0f      	add	r2, sp, #60	; 0x3c
  403a80:	9904      	ldr	r1, [sp, #16]
  403a82:	4620      	mov	r0, r4
  403a84:	f7ff fc4a 	bl	40331c <__sprint_r.part.0>
  403a88:	2800      	cmp	r0, #0
  403a8a:	f040 8139 	bne.w	403d00 <_vfiprintf_r+0x964>
  403a8e:	9910      	ldr	r1, [sp, #64]	; 0x40
  403a90:	9a11      	ldr	r2, [sp, #68]	; 0x44
  403a92:	f101 0c01 	add.w	ip, r1, #1
  403a96:	46ce      	mov	lr, r9
  403a98:	e5ff      	b.n	40369a <_vfiprintf_r+0x2fe>
  403a9a:	9910      	ldr	r1, [sp, #64]	; 0x40
  403a9c:	9a11      	ldr	r2, [sp, #68]	; 0x44
  403a9e:	1c48      	adds	r0, r1, #1
  403aa0:	f89d 5037 	ldrb.w	r5, [sp, #55]	; 0x37
  403aa4:	2d00      	cmp	r5, #0
  403aa6:	f43f ae22 	beq.w	4036ee <_vfiprintf_r+0x352>
  403aaa:	3201      	adds	r2, #1
  403aac:	f10d 0537 	add.w	r5, sp, #55	; 0x37
  403ab0:	2101      	movs	r1, #1
  403ab2:	2807      	cmp	r0, #7
  403ab4:	9211      	str	r2, [sp, #68]	; 0x44
  403ab6:	9010      	str	r0, [sp, #64]	; 0x40
  403ab8:	f8ca 5000 	str.w	r5, [sl]
  403abc:	f8ca 1004 	str.w	r1, [sl, #4]
  403ac0:	f340 8108 	ble.w	403cd4 <_vfiprintf_r+0x938>
  403ac4:	2a00      	cmp	r2, #0
  403ac6:	f040 81bc 	bne.w	403e42 <_vfiprintf_r+0xaa6>
  403aca:	9b09      	ldr	r3, [sp, #36]	; 0x24
  403acc:	2b00      	cmp	r3, #0
  403ace:	f43f ae1f 	beq.w	403710 <_vfiprintf_r+0x374>
  403ad2:	ab0e      	add	r3, sp, #56	; 0x38
  403ad4:	2202      	movs	r2, #2
  403ad6:	4608      	mov	r0, r1
  403ad8:	931c      	str	r3, [sp, #112]	; 0x70
  403ada:	921d      	str	r2, [sp, #116]	; 0x74
  403adc:	46ca      	mov	sl, r9
  403ade:	4601      	mov	r1, r0
  403ae0:	f10a 0a08 	add.w	sl, sl, #8
  403ae4:	3001      	adds	r0, #1
  403ae6:	9b0a      	ldr	r3, [sp, #40]	; 0x28
  403ae8:	2b80      	cmp	r3, #128	; 0x80
  403aea:	f43f ae19 	beq.w	403720 <_vfiprintf_r+0x384>
  403aee:	9b05      	ldr	r3, [sp, #20]
  403af0:	1ae4      	subs	r4, r4, r3
  403af2:	2c00      	cmp	r4, #0
  403af4:	dd2e      	ble.n	403b54 <_vfiprintf_r+0x7b8>
  403af6:	2c10      	cmp	r4, #16
  403af8:	4db3      	ldr	r5, [pc, #716]	; (403dc8 <_vfiprintf_r+0xa2c>)
  403afa:	dd1e      	ble.n	403b3a <_vfiprintf_r+0x79e>
  403afc:	46d6      	mov	lr, sl
  403afe:	2610      	movs	r6, #16
  403b00:	9f06      	ldr	r7, [sp, #24]
  403b02:	f8dd a010 	ldr.w	sl, [sp, #16]
  403b06:	e006      	b.n	403b16 <_vfiprintf_r+0x77a>
  403b08:	1c88      	adds	r0, r1, #2
  403b0a:	f10e 0e08 	add.w	lr, lr, #8
  403b0e:	4619      	mov	r1, r3
  403b10:	3c10      	subs	r4, #16
  403b12:	2c10      	cmp	r4, #16
  403b14:	dd10      	ble.n	403b38 <_vfiprintf_r+0x79c>
  403b16:	1c4b      	adds	r3, r1, #1
  403b18:	3210      	adds	r2, #16
  403b1a:	2b07      	cmp	r3, #7
  403b1c:	9211      	str	r2, [sp, #68]	; 0x44
  403b1e:	e88e 0060 	stmia.w	lr, {r5, r6}
  403b22:	9310      	str	r3, [sp, #64]	; 0x40
  403b24:	ddf0      	ble.n	403b08 <_vfiprintf_r+0x76c>
  403b26:	2a00      	cmp	r2, #0
  403b28:	d165      	bne.n	403bf6 <_vfiprintf_r+0x85a>
  403b2a:	3c10      	subs	r4, #16
  403b2c:	2c10      	cmp	r4, #16
  403b2e:	f04f 0001 	mov.w	r0, #1
  403b32:	4611      	mov	r1, r2
  403b34:	46ce      	mov	lr, r9
  403b36:	dcee      	bgt.n	403b16 <_vfiprintf_r+0x77a>
  403b38:	46f2      	mov	sl, lr
  403b3a:	4422      	add	r2, r4
  403b3c:	2807      	cmp	r0, #7
  403b3e:	9211      	str	r2, [sp, #68]	; 0x44
  403b40:	f8ca 5000 	str.w	r5, [sl]
  403b44:	f8ca 4004 	str.w	r4, [sl, #4]
  403b48:	9010      	str	r0, [sp, #64]	; 0x40
  403b4a:	f300 8085 	bgt.w	403c58 <_vfiprintf_r+0x8bc>
  403b4e:	f10a 0a08 	add.w	sl, sl, #8
  403b52:	3001      	adds	r0, #1
  403b54:	9905      	ldr	r1, [sp, #20]
  403b56:	f8ca b000 	str.w	fp, [sl]
  403b5a:	440a      	add	r2, r1
  403b5c:	2807      	cmp	r0, #7
  403b5e:	9211      	str	r2, [sp, #68]	; 0x44
  403b60:	f8ca 1004 	str.w	r1, [sl, #4]
  403b64:	9010      	str	r0, [sp, #64]	; 0x40
  403b66:	f340 8082 	ble.w	403c6e <_vfiprintf_r+0x8d2>
  403b6a:	2a00      	cmp	r2, #0
  403b6c:	f040 8118 	bne.w	403da0 <_vfiprintf_r+0xa04>
  403b70:	9b02      	ldr	r3, [sp, #8]
  403b72:	9210      	str	r2, [sp, #64]	; 0x40
  403b74:	0758      	lsls	r0, r3, #29
  403b76:	d535      	bpl.n	403be4 <_vfiprintf_r+0x848>
  403b78:	9b08      	ldr	r3, [sp, #32]
  403b7a:	9901      	ldr	r1, [sp, #4]
  403b7c:	1a5c      	subs	r4, r3, r1
  403b7e:	2c00      	cmp	r4, #0
  403b80:	f340 80e7 	ble.w	403d52 <_vfiprintf_r+0x9b6>
  403b84:	46ca      	mov	sl, r9
  403b86:	2c10      	cmp	r4, #16
  403b88:	f340 8218 	ble.w	403fbc <_vfiprintf_r+0xc20>
  403b8c:	9910      	ldr	r1, [sp, #64]	; 0x40
  403b8e:	4e8f      	ldr	r6, [pc, #572]	; (403dcc <_vfiprintf_r+0xa30>)
  403b90:	9f06      	ldr	r7, [sp, #24]
  403b92:	f8dd b010 	ldr.w	fp, [sp, #16]
  403b96:	2510      	movs	r5, #16
  403b98:	e006      	b.n	403ba8 <_vfiprintf_r+0x80c>
  403b9a:	1c88      	adds	r0, r1, #2
  403b9c:	f10a 0a08 	add.w	sl, sl, #8
  403ba0:	4619      	mov	r1, r3
  403ba2:	3c10      	subs	r4, #16
  403ba4:	2c10      	cmp	r4, #16
  403ba6:	dd11      	ble.n	403bcc <_vfiprintf_r+0x830>
  403ba8:	1c4b      	adds	r3, r1, #1
  403baa:	3210      	adds	r2, #16
  403bac:	2b07      	cmp	r3, #7
  403bae:	9211      	str	r2, [sp, #68]	; 0x44
  403bb0:	f8ca 6000 	str.w	r6, [sl]
  403bb4:	f8ca 5004 	str.w	r5, [sl, #4]
  403bb8:	9310      	str	r3, [sp, #64]	; 0x40
  403bba:	ddee      	ble.n	403b9a <_vfiprintf_r+0x7fe>
  403bbc:	bb42      	cbnz	r2, 403c10 <_vfiprintf_r+0x874>
  403bbe:	3c10      	subs	r4, #16
  403bc0:	2c10      	cmp	r4, #16
  403bc2:	f04f 0001 	mov.w	r0, #1
  403bc6:	4611      	mov	r1, r2
  403bc8:	46ca      	mov	sl, r9
  403bca:	dced      	bgt.n	403ba8 <_vfiprintf_r+0x80c>
  403bcc:	4422      	add	r2, r4
  403bce:	2807      	cmp	r0, #7
  403bd0:	9211      	str	r2, [sp, #68]	; 0x44
  403bd2:	f8ca 6000 	str.w	r6, [sl]
  403bd6:	f8ca 4004 	str.w	r4, [sl, #4]
  403bda:	9010      	str	r0, [sp, #64]	; 0x40
  403bdc:	dd51      	ble.n	403c82 <_vfiprintf_r+0x8e6>
  403bde:	2a00      	cmp	r2, #0
  403be0:	f040 819b 	bne.w	403f1a <_vfiprintf_r+0xb7e>
  403be4:	9b03      	ldr	r3, [sp, #12]
  403be6:	9a08      	ldr	r2, [sp, #32]
  403be8:	9901      	ldr	r1, [sp, #4]
  403bea:	428a      	cmp	r2, r1
  403bec:	bfac      	ite	ge
  403bee:	189b      	addge	r3, r3, r2
  403bf0:	185b      	addlt	r3, r3, r1
  403bf2:	9303      	str	r3, [sp, #12]
  403bf4:	e04e      	b.n	403c94 <_vfiprintf_r+0x8f8>
  403bf6:	aa0f      	add	r2, sp, #60	; 0x3c
  403bf8:	4651      	mov	r1, sl
  403bfa:	4638      	mov	r0, r7
  403bfc:	f7ff fb8e 	bl	40331c <__sprint_r.part.0>
  403c00:	2800      	cmp	r0, #0
  403c02:	f040 813f 	bne.w	403e84 <_vfiprintf_r+0xae8>
  403c06:	9910      	ldr	r1, [sp, #64]	; 0x40
  403c08:	9a11      	ldr	r2, [sp, #68]	; 0x44
  403c0a:	1c48      	adds	r0, r1, #1
  403c0c:	46ce      	mov	lr, r9
  403c0e:	e77f      	b.n	403b10 <_vfiprintf_r+0x774>
  403c10:	aa0f      	add	r2, sp, #60	; 0x3c
  403c12:	4659      	mov	r1, fp
  403c14:	4638      	mov	r0, r7
  403c16:	f7ff fb81 	bl	40331c <__sprint_r.part.0>
  403c1a:	b960      	cbnz	r0, 403c36 <_vfiprintf_r+0x89a>
  403c1c:	9910      	ldr	r1, [sp, #64]	; 0x40
  403c1e:	9a11      	ldr	r2, [sp, #68]	; 0x44
  403c20:	1c48      	adds	r0, r1, #1
  403c22:	46ca      	mov	sl, r9
  403c24:	e7bd      	b.n	403ba2 <_vfiprintf_r+0x806>
  403c26:	9b11      	ldr	r3, [sp, #68]	; 0x44
  403c28:	f8dd b010 	ldr.w	fp, [sp, #16]
  403c2c:	2b00      	cmp	r3, #0
  403c2e:	f040 81d4 	bne.w	403fda <_vfiprintf_r+0xc3e>
  403c32:	2300      	movs	r3, #0
  403c34:	9310      	str	r3, [sp, #64]	; 0x40
  403c36:	f8db 3064 	ldr.w	r3, [fp, #100]	; 0x64
  403c3a:	f013 0f01 	tst.w	r3, #1
  403c3e:	f8bb 300c 	ldrh.w	r3, [fp, #12]
  403c42:	d102      	bne.n	403c4a <_vfiprintf_r+0x8ae>
  403c44:	059a      	lsls	r2, r3, #22
  403c46:	f140 80de 	bpl.w	403e06 <_vfiprintf_r+0xa6a>
  403c4a:	065b      	lsls	r3, r3, #25
  403c4c:	f53f acb2 	bmi.w	4035b4 <_vfiprintf_r+0x218>
  403c50:	9803      	ldr	r0, [sp, #12]
  403c52:	b02d      	add	sp, #180	; 0xb4
  403c54:	e8bd 8ff0 	ldmia.w	sp!, {r4, r5, r6, r7, r8, r9, sl, fp, pc}
  403c58:	2a00      	cmp	r2, #0
  403c5a:	f040 8106 	bne.w	403e6a <_vfiprintf_r+0xace>
  403c5e:	9a05      	ldr	r2, [sp, #20]
  403c60:	921d      	str	r2, [sp, #116]	; 0x74
  403c62:	2301      	movs	r3, #1
  403c64:	9211      	str	r2, [sp, #68]	; 0x44
  403c66:	f8cd b070 	str.w	fp, [sp, #112]	; 0x70
  403c6a:	9310      	str	r3, [sp, #64]	; 0x40
  403c6c:	46ca      	mov	sl, r9
  403c6e:	f10a 0a08 	add.w	sl, sl, #8
  403c72:	9b02      	ldr	r3, [sp, #8]
  403c74:	0759      	lsls	r1, r3, #29
  403c76:	d504      	bpl.n	403c82 <_vfiprintf_r+0x8e6>
  403c78:	9b08      	ldr	r3, [sp, #32]
  403c7a:	9901      	ldr	r1, [sp, #4]
  403c7c:	1a5c      	subs	r4, r3, r1
  403c7e:	2c00      	cmp	r4, #0
  403c80:	dc81      	bgt.n	403b86 <_vfiprintf_r+0x7ea>
  403c82:	9b03      	ldr	r3, [sp, #12]
  403c84:	9908      	ldr	r1, [sp, #32]
  403c86:	9801      	ldr	r0, [sp, #4]
  403c88:	4281      	cmp	r1, r0
  403c8a:	bfac      	ite	ge
  403c8c:	185b      	addge	r3, r3, r1
  403c8e:	181b      	addlt	r3, r3, r0
  403c90:	9303      	str	r3, [sp, #12]
  403c92:	bb72      	cbnz	r2, 403cf2 <_vfiprintf_r+0x956>
  403c94:	2300      	movs	r3, #0
  403c96:	9310      	str	r3, [sp, #64]	; 0x40
  403c98:	46ca      	mov	sl, r9
  403c9a:	f7ff bbbc 	b.w	403416 <_vfiprintf_r+0x7a>
  403c9e:	aa0f      	add	r2, sp, #60	; 0x3c
  403ca0:	9904      	ldr	r1, [sp, #16]
  403ca2:	4620      	mov	r0, r4
  403ca4:	f7ff fb3a 	bl	40331c <__sprint_r.part.0>
  403ca8:	bb50      	cbnz	r0, 403d00 <_vfiprintf_r+0x964>
  403caa:	9910      	ldr	r1, [sp, #64]	; 0x40
  403cac:	9a11      	ldr	r2, [sp, #68]	; 0x44
  403cae:	f101 0e01 	add.w	lr, r1, #1
  403cb2:	46cc      	mov	ip, r9
  403cb4:	e548      	b.n	403748 <_vfiprintf_r+0x3ac>
  403cb6:	2a00      	cmp	r2, #0
  403cb8:	f040 8140 	bne.w	403f3c <_vfiprintf_r+0xba0>
  403cbc:	f89d 1037 	ldrb.w	r1, [sp, #55]	; 0x37
  403cc0:	2900      	cmp	r1, #0
  403cc2:	f000 811b 	beq.w	403efc <_vfiprintf_r+0xb60>
  403cc6:	2201      	movs	r2, #1
  403cc8:	f10d 0137 	add.w	r1, sp, #55	; 0x37
  403ccc:	4610      	mov	r0, r2
  403cce:	921d      	str	r2, [sp, #116]	; 0x74
  403cd0:	911c      	str	r1, [sp, #112]	; 0x70
  403cd2:	46ca      	mov	sl, r9
  403cd4:	4601      	mov	r1, r0
  403cd6:	f10a 0a08 	add.w	sl, sl, #8
  403cda:	3001      	adds	r0, #1
  403cdc:	e507      	b.n	4036ee <_vfiprintf_r+0x352>
  403cde:	9b02      	ldr	r3, [sp, #8]
  403ce0:	2a01      	cmp	r2, #1
  403ce2:	f000 8098 	beq.w	403e16 <_vfiprintf_r+0xa7a>
  403ce6:	2a02      	cmp	r2, #2
  403ce8:	d10d      	bne.n	403d06 <_vfiprintf_r+0x96a>
  403cea:	9302      	str	r3, [sp, #8]
  403cec:	2600      	movs	r6, #0
  403cee:	2700      	movs	r7, #0
  403cf0:	e5b0      	b.n	403854 <_vfiprintf_r+0x4b8>
  403cf2:	aa0f      	add	r2, sp, #60	; 0x3c
  403cf4:	9904      	ldr	r1, [sp, #16]
  403cf6:	9806      	ldr	r0, [sp, #24]
  403cf8:	f7ff fb10 	bl	40331c <__sprint_r.part.0>
  403cfc:	2800      	cmp	r0, #0
  403cfe:	d0c9      	beq.n	403c94 <_vfiprintf_r+0x8f8>
  403d00:	f8dd b010 	ldr.w	fp, [sp, #16]
  403d04:	e797      	b.n	403c36 <_vfiprintf_r+0x89a>
  403d06:	9302      	str	r3, [sp, #8]
  403d08:	2600      	movs	r6, #0
  403d0a:	2700      	movs	r7, #0
  403d0c:	4649      	mov	r1, r9
  403d0e:	e000      	b.n	403d12 <_vfiprintf_r+0x976>
  403d10:	4659      	mov	r1, fp
  403d12:	08f2      	lsrs	r2, r6, #3
  403d14:	ea42 7247 	orr.w	r2, r2, r7, lsl #29
  403d18:	08f8      	lsrs	r0, r7, #3
  403d1a:	f006 0307 	and.w	r3, r6, #7
  403d1e:	4607      	mov	r7, r0
  403d20:	4616      	mov	r6, r2
  403d22:	3330      	adds	r3, #48	; 0x30
  403d24:	ea56 0207 	orrs.w	r2, r6, r7
  403d28:	f801 3c01 	strb.w	r3, [r1, #-1]
  403d2c:	f101 3bff 	add.w	fp, r1, #4294967295
  403d30:	d1ee      	bne.n	403d10 <_vfiprintf_r+0x974>
  403d32:	9a02      	ldr	r2, [sp, #8]
  403d34:	07d6      	lsls	r6, r2, #31
  403d36:	f57f ad9d 	bpl.w	403874 <_vfiprintf_r+0x4d8>
  403d3a:	2b30      	cmp	r3, #48	; 0x30
  403d3c:	f43f ad9a 	beq.w	403874 <_vfiprintf_r+0x4d8>
  403d40:	3902      	subs	r1, #2
  403d42:	2330      	movs	r3, #48	; 0x30
  403d44:	f80b 3c01 	strb.w	r3, [fp, #-1]
  403d48:	eba9 0301 	sub.w	r3, r9, r1
  403d4c:	9305      	str	r3, [sp, #20]
  403d4e:	468b      	mov	fp, r1
  403d50:	e476      	b.n	403640 <_vfiprintf_r+0x2a4>
  403d52:	9b03      	ldr	r3, [sp, #12]
  403d54:	9a08      	ldr	r2, [sp, #32]
  403d56:	428a      	cmp	r2, r1
  403d58:	bfac      	ite	ge
  403d5a:	189b      	addge	r3, r3, r2
  403d5c:	185b      	addlt	r3, r3, r1
  403d5e:	9303      	str	r3, [sp, #12]
  403d60:	e798      	b.n	403c94 <_vfiprintf_r+0x8f8>
  403d62:	2202      	movs	r2, #2
  403d64:	e44d      	b.n	403602 <_vfiprintf_r+0x266>
  403d66:	2f00      	cmp	r7, #0
  403d68:	bf08      	it	eq
  403d6a:	2e0a      	cmpeq	r6, #10
  403d6c:	d352      	bcc.n	403e14 <_vfiprintf_r+0xa78>
  403d6e:	46cb      	mov	fp, r9
  403d70:	4630      	mov	r0, r6
  403d72:	4639      	mov	r1, r7
  403d74:	220a      	movs	r2, #10
  403d76:	2300      	movs	r3, #0
  403d78:	f7fe fe7c 	bl	402a74 <__aeabi_uldivmod>
  403d7c:	3230      	adds	r2, #48	; 0x30
  403d7e:	f80b 2d01 	strb.w	r2, [fp, #-1]!
  403d82:	4630      	mov	r0, r6
  403d84:	4639      	mov	r1, r7
  403d86:	2300      	movs	r3, #0
  403d88:	220a      	movs	r2, #10
  403d8a:	f7fe fe73 	bl	402a74 <__aeabi_uldivmod>
  403d8e:	4606      	mov	r6, r0
  403d90:	460f      	mov	r7, r1
  403d92:	ea56 0307 	orrs.w	r3, r6, r7
  403d96:	d1eb      	bne.n	403d70 <_vfiprintf_r+0x9d4>
  403d98:	e56c      	b.n	403874 <_vfiprintf_r+0x4d8>
  403d9a:	9405      	str	r4, [sp, #20]
  403d9c:	46cb      	mov	fp, r9
  403d9e:	e44f      	b.n	403640 <_vfiprintf_r+0x2a4>
  403da0:	aa0f      	add	r2, sp, #60	; 0x3c
  403da2:	9904      	ldr	r1, [sp, #16]
  403da4:	9806      	ldr	r0, [sp, #24]
  403da6:	f7ff fab9 	bl	40331c <__sprint_r.part.0>
  403daa:	2800      	cmp	r0, #0
  403dac:	d1a8      	bne.n	403d00 <_vfiprintf_r+0x964>
  403dae:	9a11      	ldr	r2, [sp, #68]	; 0x44
  403db0:	46ca      	mov	sl, r9
  403db2:	e75e      	b.n	403c72 <_vfiprintf_r+0x8d6>
  403db4:	aa0f      	add	r2, sp, #60	; 0x3c
  403db6:	9904      	ldr	r1, [sp, #16]
  403db8:	9806      	ldr	r0, [sp, #24]
  403dba:	f7ff faaf 	bl	40331c <__sprint_r.part.0>
  403dbe:	2800      	cmp	r0, #0
  403dc0:	d19e      	bne.n	403d00 <_vfiprintf_r+0x964>
  403dc2:	46ca      	mov	sl, r9
  403dc4:	f7ff bbc0 	b.w	403548 <_vfiprintf_r+0x1ac>
  403dc8:	00405f28 	.word	0x00405f28
  403dcc:	00405f18 	.word	0x00405f18
  403dd0:	3104      	adds	r1, #4
  403dd2:	6816      	ldr	r6, [r2, #0]
  403dd4:	9107      	str	r1, [sp, #28]
  403dd6:	2201      	movs	r2, #1
  403dd8:	2700      	movs	r7, #0
  403dda:	e412      	b.n	403602 <_vfiprintf_r+0x266>
  403ddc:	9807      	ldr	r0, [sp, #28]
  403dde:	4601      	mov	r1, r0
  403de0:	3104      	adds	r1, #4
  403de2:	6806      	ldr	r6, [r0, #0]
  403de4:	9107      	str	r1, [sp, #28]
  403de6:	2700      	movs	r7, #0
  403de8:	e40b      	b.n	403602 <_vfiprintf_r+0x266>
  403dea:	680e      	ldr	r6, [r1, #0]
  403dec:	3104      	adds	r1, #4
  403dee:	9107      	str	r1, [sp, #28]
  403df0:	2700      	movs	r7, #0
  403df2:	e591      	b.n	403918 <_vfiprintf_r+0x57c>
  403df4:	9907      	ldr	r1, [sp, #28]
  403df6:	680e      	ldr	r6, [r1, #0]
  403df8:	460a      	mov	r2, r1
  403dfa:	17f7      	asrs	r7, r6, #31
  403dfc:	3204      	adds	r2, #4
  403dfe:	9207      	str	r2, [sp, #28]
  403e00:	4630      	mov	r0, r6
  403e02:	4639      	mov	r1, r7
  403e04:	e50f      	b.n	403826 <_vfiprintf_r+0x48a>
  403e06:	f8db 0058 	ldr.w	r0, [fp, #88]	; 0x58
  403e0a:	f000 fe7f 	bl	404b0c <__retarget_lock_release_recursive>
  403e0e:	f8bb 300c 	ldrh.w	r3, [fp, #12]
  403e12:	e71a      	b.n	403c4a <_vfiprintf_r+0x8ae>
  403e14:	9b02      	ldr	r3, [sp, #8]
  403e16:	9302      	str	r3, [sp, #8]
  403e18:	f10d 0bb0 	add.w	fp, sp, #176	; 0xb0
  403e1c:	3630      	adds	r6, #48	; 0x30
  403e1e:	2301      	movs	r3, #1
  403e20:	f80b 6d41 	strb.w	r6, [fp, #-65]!
  403e24:	9305      	str	r3, [sp, #20]
  403e26:	e40b      	b.n	403640 <_vfiprintf_r+0x2a4>
  403e28:	aa0f      	add	r2, sp, #60	; 0x3c
  403e2a:	9904      	ldr	r1, [sp, #16]
  403e2c:	9806      	ldr	r0, [sp, #24]
  403e2e:	f7ff fa75 	bl	40331c <__sprint_r.part.0>
  403e32:	2800      	cmp	r0, #0
  403e34:	f47f af64 	bne.w	403d00 <_vfiprintf_r+0x964>
  403e38:	9910      	ldr	r1, [sp, #64]	; 0x40
  403e3a:	9a11      	ldr	r2, [sp, #68]	; 0x44
  403e3c:	1c48      	adds	r0, r1, #1
  403e3e:	46ca      	mov	sl, r9
  403e40:	e651      	b.n	403ae6 <_vfiprintf_r+0x74a>
  403e42:	aa0f      	add	r2, sp, #60	; 0x3c
  403e44:	9904      	ldr	r1, [sp, #16]
  403e46:	9806      	ldr	r0, [sp, #24]
  403e48:	f7ff fa68 	bl	40331c <__sprint_r.part.0>
  403e4c:	2800      	cmp	r0, #0
  403e4e:	f47f af57 	bne.w	403d00 <_vfiprintf_r+0x964>
  403e52:	9910      	ldr	r1, [sp, #64]	; 0x40
  403e54:	9a11      	ldr	r2, [sp, #68]	; 0x44
  403e56:	1c48      	adds	r0, r1, #1
  403e58:	46ca      	mov	sl, r9
  403e5a:	e448      	b.n	4036ee <_vfiprintf_r+0x352>
  403e5c:	2a00      	cmp	r2, #0
  403e5e:	f040 8091 	bne.w	403f84 <_vfiprintf_r+0xbe8>
  403e62:	2001      	movs	r0, #1
  403e64:	4611      	mov	r1, r2
  403e66:	46ca      	mov	sl, r9
  403e68:	e641      	b.n	403aee <_vfiprintf_r+0x752>
  403e6a:	aa0f      	add	r2, sp, #60	; 0x3c
  403e6c:	9904      	ldr	r1, [sp, #16]
  403e6e:	9806      	ldr	r0, [sp, #24]
  403e70:	f7ff fa54 	bl	40331c <__sprint_r.part.0>
  403e74:	2800      	cmp	r0, #0
  403e76:	f47f af43 	bne.w	403d00 <_vfiprintf_r+0x964>
  403e7a:	9810      	ldr	r0, [sp, #64]	; 0x40
  403e7c:	9a11      	ldr	r2, [sp, #68]	; 0x44
  403e7e:	3001      	adds	r0, #1
  403e80:	46ca      	mov	sl, r9
  403e82:	e667      	b.n	403b54 <_vfiprintf_r+0x7b8>
  403e84:	46d3      	mov	fp, sl
  403e86:	e6d6      	b.n	403c36 <_vfiprintf_r+0x89a>
  403e88:	9e07      	ldr	r6, [sp, #28]
  403e8a:	3607      	adds	r6, #7
  403e8c:	f026 0207 	bic.w	r2, r6, #7
  403e90:	f102 0108 	add.w	r1, r2, #8
  403e94:	e9d2 6700 	ldrd	r6, r7, [r2]
  403e98:	9107      	str	r1, [sp, #28]
  403e9a:	2201      	movs	r2, #1
  403e9c:	f7ff bbb1 	b.w	403602 <_vfiprintf_r+0x266>
  403ea0:	9e07      	ldr	r6, [sp, #28]
  403ea2:	3607      	adds	r6, #7
  403ea4:	f026 0607 	bic.w	r6, r6, #7
  403ea8:	e9d6 0100 	ldrd	r0, r1, [r6]
  403eac:	f106 0208 	add.w	r2, r6, #8
  403eb0:	9207      	str	r2, [sp, #28]
  403eb2:	4606      	mov	r6, r0
  403eb4:	460f      	mov	r7, r1
  403eb6:	e4b6      	b.n	403826 <_vfiprintf_r+0x48a>
  403eb8:	9e07      	ldr	r6, [sp, #28]
  403eba:	3607      	adds	r6, #7
  403ebc:	f026 0207 	bic.w	r2, r6, #7
  403ec0:	f102 0108 	add.w	r1, r2, #8
  403ec4:	e9d2 6700 	ldrd	r6, r7, [r2]
  403ec8:	9107      	str	r1, [sp, #28]
  403eca:	2200      	movs	r2, #0
  403ecc:	f7ff bb99 	b.w	403602 <_vfiprintf_r+0x266>
  403ed0:	9e07      	ldr	r6, [sp, #28]
  403ed2:	3607      	adds	r6, #7
  403ed4:	f026 0107 	bic.w	r1, r6, #7
  403ed8:	f101 0008 	add.w	r0, r1, #8
  403edc:	9007      	str	r0, [sp, #28]
  403ede:	e9d1 6700 	ldrd	r6, r7, [r1]
  403ee2:	e519      	b.n	403918 <_vfiprintf_r+0x57c>
  403ee4:	46cb      	mov	fp, r9
  403ee6:	f7ff bbab 	b.w	403640 <_vfiprintf_r+0x2a4>
  403eea:	252d      	movs	r5, #45	; 0x2d
  403eec:	4276      	negs	r6, r6
  403eee:	eb67 0747 	sbc.w	r7, r7, r7, lsl #1
  403ef2:	f88d 5037 	strb.w	r5, [sp, #55]	; 0x37
  403ef6:	2201      	movs	r2, #1
  403ef8:	f7ff bb88 	b.w	40360c <_vfiprintf_r+0x270>
  403efc:	9b09      	ldr	r3, [sp, #36]	; 0x24
  403efe:	b9b3      	cbnz	r3, 403f2e <_vfiprintf_r+0xb92>
  403f00:	4611      	mov	r1, r2
  403f02:	2001      	movs	r0, #1
  403f04:	46ca      	mov	sl, r9
  403f06:	e5f2      	b.n	403aee <_vfiprintf_r+0x752>
  403f08:	f8db 0058 	ldr.w	r0, [fp, #88]	; 0x58
  403f0c:	f000 fdfe 	bl	404b0c <__retarget_lock_release_recursive>
  403f10:	f04f 33ff 	mov.w	r3, #4294967295
  403f14:	9303      	str	r3, [sp, #12]
  403f16:	f7ff bb50 	b.w	4035ba <_vfiprintf_r+0x21e>
  403f1a:	aa0f      	add	r2, sp, #60	; 0x3c
  403f1c:	9904      	ldr	r1, [sp, #16]
  403f1e:	9806      	ldr	r0, [sp, #24]
  403f20:	f7ff f9fc 	bl	40331c <__sprint_r.part.0>
  403f24:	2800      	cmp	r0, #0
  403f26:	f47f aeeb 	bne.w	403d00 <_vfiprintf_r+0x964>
  403f2a:	9a11      	ldr	r2, [sp, #68]	; 0x44
  403f2c:	e6a9      	b.n	403c82 <_vfiprintf_r+0x8e6>
  403f2e:	ab0e      	add	r3, sp, #56	; 0x38
  403f30:	2202      	movs	r2, #2
  403f32:	931c      	str	r3, [sp, #112]	; 0x70
  403f34:	921d      	str	r2, [sp, #116]	; 0x74
  403f36:	2001      	movs	r0, #1
  403f38:	46ca      	mov	sl, r9
  403f3a:	e5d0      	b.n	403ade <_vfiprintf_r+0x742>
  403f3c:	aa0f      	add	r2, sp, #60	; 0x3c
  403f3e:	9904      	ldr	r1, [sp, #16]
  403f40:	9806      	ldr	r0, [sp, #24]
  403f42:	f7ff f9eb 	bl	40331c <__sprint_r.part.0>
  403f46:	2800      	cmp	r0, #0
  403f48:	f47f aeda 	bne.w	403d00 <_vfiprintf_r+0x964>
  403f4c:	9910      	ldr	r1, [sp, #64]	; 0x40
  403f4e:	9a11      	ldr	r2, [sp, #68]	; 0x44
  403f50:	1c48      	adds	r0, r1, #1
  403f52:	46ca      	mov	sl, r9
  403f54:	e5a4      	b.n	403aa0 <_vfiprintf_r+0x704>
  403f56:	9a07      	ldr	r2, [sp, #28]
  403f58:	9903      	ldr	r1, [sp, #12]
  403f5a:	6813      	ldr	r3, [r2, #0]
  403f5c:	17cd      	asrs	r5, r1, #31
  403f5e:	4608      	mov	r0, r1
  403f60:	3204      	adds	r2, #4
  403f62:	4629      	mov	r1, r5
  403f64:	9207      	str	r2, [sp, #28]
  403f66:	e9c3 0100 	strd	r0, r1, [r3]
  403f6a:	f7ff ba54 	b.w	403416 <_vfiprintf_r+0x7a>
  403f6e:	4658      	mov	r0, fp
  403f70:	9607      	str	r6, [sp, #28]
  403f72:	9302      	str	r3, [sp, #8]
  403f74:	f7ff f964 	bl	403240 <strlen>
  403f78:	2400      	movs	r4, #0
  403f7a:	9005      	str	r0, [sp, #20]
  403f7c:	f89d 5037 	ldrb.w	r5, [sp, #55]	; 0x37
  403f80:	f7ff bb5e 	b.w	403640 <_vfiprintf_r+0x2a4>
  403f84:	aa0f      	add	r2, sp, #60	; 0x3c
  403f86:	9904      	ldr	r1, [sp, #16]
  403f88:	9806      	ldr	r0, [sp, #24]
  403f8a:	f7ff f9c7 	bl	40331c <__sprint_r.part.0>
  403f8e:	2800      	cmp	r0, #0
  403f90:	f47f aeb6 	bne.w	403d00 <_vfiprintf_r+0x964>
  403f94:	9910      	ldr	r1, [sp, #64]	; 0x40
  403f96:	9a11      	ldr	r2, [sp, #68]	; 0x44
  403f98:	1c48      	adds	r0, r1, #1
  403f9a:	46ca      	mov	sl, r9
  403f9c:	e5a7      	b.n	403aee <_vfiprintf_r+0x752>
  403f9e:	9910      	ldr	r1, [sp, #64]	; 0x40
  403fa0:	9a11      	ldr	r2, [sp, #68]	; 0x44
  403fa2:	4e20      	ldr	r6, [pc, #128]	; (404024 <_vfiprintf_r+0xc88>)
  403fa4:	3101      	adds	r1, #1
  403fa6:	f7ff bb90 	b.w	4036ca <_vfiprintf_r+0x32e>
  403faa:	2c06      	cmp	r4, #6
  403fac:	bf28      	it	cs
  403fae:	2406      	movcs	r4, #6
  403fb0:	9405      	str	r4, [sp, #20]
  403fb2:	9607      	str	r6, [sp, #28]
  403fb4:	9401      	str	r4, [sp, #4]
  403fb6:	f8df b070 	ldr.w	fp, [pc, #112]	; 404028 <_vfiprintf_r+0xc8c>
  403fba:	e4d5      	b.n	403968 <_vfiprintf_r+0x5cc>
  403fbc:	9810      	ldr	r0, [sp, #64]	; 0x40
  403fbe:	4e19      	ldr	r6, [pc, #100]	; (404024 <_vfiprintf_r+0xc88>)
  403fc0:	3001      	adds	r0, #1
  403fc2:	e603      	b.n	403bcc <_vfiprintf_r+0x830>
  403fc4:	9405      	str	r4, [sp, #20]
  403fc6:	f89d 5037 	ldrb.w	r5, [sp, #55]	; 0x37
  403fca:	9607      	str	r6, [sp, #28]
  403fcc:	9302      	str	r3, [sp, #8]
  403fce:	4604      	mov	r4, r0
  403fd0:	f7ff bb36 	b.w	403640 <_vfiprintf_r+0x2a4>
  403fd4:	4686      	mov	lr, r0
  403fd6:	f7ff bbce 	b.w	403776 <_vfiprintf_r+0x3da>
  403fda:	9806      	ldr	r0, [sp, #24]
  403fdc:	aa0f      	add	r2, sp, #60	; 0x3c
  403fde:	4659      	mov	r1, fp
  403fe0:	f7ff f99c 	bl	40331c <__sprint_r.part.0>
  403fe4:	2800      	cmp	r0, #0
  403fe6:	f43f ae24 	beq.w	403c32 <_vfiprintf_r+0x896>
  403fea:	e624      	b.n	403c36 <_vfiprintf_r+0x89a>
  403fec:	9907      	ldr	r1, [sp, #28]
  403fee:	f898 2001 	ldrb.w	r2, [r8, #1]
  403ff2:	680c      	ldr	r4, [r1, #0]
  403ff4:	3104      	adds	r1, #4
  403ff6:	ea44 74e4 	orr.w	r4, r4, r4, asr #31
  403ffa:	46b8      	mov	r8, r7
  403ffc:	9107      	str	r1, [sp, #28]
  403ffe:	f7ff ba3f 	b.w	403480 <_vfiprintf_r+0xe4>
  404002:	f88d 5037 	strb.w	r5, [sp, #55]	; 0x37
  404006:	e43c      	b.n	403882 <_vfiprintf_r+0x4e6>
  404008:	f88d 5037 	strb.w	r5, [sp, #55]	; 0x37
  40400c:	e521      	b.n	403a52 <_vfiprintf_r+0x6b6>
  40400e:	f88d 5037 	strb.w	r5, [sp, #55]	; 0x37
  404012:	f7ff bbf4 	b.w	4037fe <_vfiprintf_r+0x462>
  404016:	f88d 5037 	strb.w	r5, [sp, #55]	; 0x37
  40401a:	e491      	b.n	403940 <_vfiprintf_r+0x5a4>
  40401c:	f88d 5037 	strb.w	r5, [sp, #55]	; 0x37
  404020:	e469      	b.n	4038f6 <_vfiprintf_r+0x55a>
  404022:	bf00      	nop
  404024:	00405f18 	.word	0x00405f18
  404028:	00405f10 	.word	0x00405f10

0040402c <__sbprintf>:
  40402c:	e92d 41f0 	stmdb	sp!, {r4, r5, r6, r7, r8, lr}
  404030:	460c      	mov	r4, r1
  404032:	f5ad 6d8d 	sub.w	sp, sp, #1128	; 0x468
  404036:	8989      	ldrh	r1, [r1, #12]
  404038:	6e66      	ldr	r6, [r4, #100]	; 0x64
  40403a:	89e5      	ldrh	r5, [r4, #14]
  40403c:	9619      	str	r6, [sp, #100]	; 0x64
  40403e:	f021 0102 	bic.w	r1, r1, #2
  404042:	4606      	mov	r6, r0
  404044:	69e0      	ldr	r0, [r4, #28]
  404046:	f8ad 100c 	strh.w	r1, [sp, #12]
  40404a:	4617      	mov	r7, r2
  40404c:	f44f 6180 	mov.w	r1, #1024	; 0x400
  404050:	6a62      	ldr	r2, [r4, #36]	; 0x24
  404052:	f8ad 500e 	strh.w	r5, [sp, #14]
  404056:	4698      	mov	r8, r3
  404058:	ad1a      	add	r5, sp, #104	; 0x68
  40405a:	2300      	movs	r3, #0
  40405c:	9007      	str	r0, [sp, #28]
  40405e:	a816      	add	r0, sp, #88	; 0x58
  404060:	9209      	str	r2, [sp, #36]	; 0x24
  404062:	9306      	str	r3, [sp, #24]
  404064:	9500      	str	r5, [sp, #0]
  404066:	9504      	str	r5, [sp, #16]
  404068:	9102      	str	r1, [sp, #8]
  40406a:	9105      	str	r1, [sp, #20]
  40406c:	f000 fd48 	bl	404b00 <__retarget_lock_init_recursive>
  404070:	4643      	mov	r3, r8
  404072:	463a      	mov	r2, r7
  404074:	4669      	mov	r1, sp
  404076:	4630      	mov	r0, r6
  404078:	f7ff f990 	bl	40339c <_vfiprintf_r>
  40407c:	1e05      	subs	r5, r0, #0
  40407e:	db07      	blt.n	404090 <__sbprintf+0x64>
  404080:	4630      	mov	r0, r6
  404082:	4669      	mov	r1, sp
  404084:	f000 f928 	bl	4042d8 <_fflush_r>
  404088:	2800      	cmp	r0, #0
  40408a:	bf18      	it	ne
  40408c:	f04f 35ff 	movne.w	r5, #4294967295
  404090:	f8bd 300c 	ldrh.w	r3, [sp, #12]
  404094:	065b      	lsls	r3, r3, #25
  404096:	d503      	bpl.n	4040a0 <__sbprintf+0x74>
  404098:	89a3      	ldrh	r3, [r4, #12]
  40409a:	f043 0340 	orr.w	r3, r3, #64	; 0x40
  40409e:	81a3      	strh	r3, [r4, #12]
  4040a0:	9816      	ldr	r0, [sp, #88]	; 0x58
  4040a2:	f000 fd2f 	bl	404b04 <__retarget_lock_close_recursive>
  4040a6:	4628      	mov	r0, r5
  4040a8:	f50d 6d8d 	add.w	sp, sp, #1128	; 0x468
  4040ac:	e8bd 81f0 	ldmia.w	sp!, {r4, r5, r6, r7, r8, pc}

004040b0 <__swsetup_r>:
  4040b0:	b538      	push	{r3, r4, r5, lr}
  4040b2:	4b30      	ldr	r3, [pc, #192]	; (404174 <__swsetup_r+0xc4>)
  4040b4:	681b      	ldr	r3, [r3, #0]
  4040b6:	4605      	mov	r5, r0
  4040b8:	460c      	mov	r4, r1
  4040ba:	b113      	cbz	r3, 4040c2 <__swsetup_r+0x12>
  4040bc:	6b9a      	ldr	r2, [r3, #56]	; 0x38
  4040be:	2a00      	cmp	r2, #0
  4040c0:	d038      	beq.n	404134 <__swsetup_r+0x84>
  4040c2:	f9b4 200c 	ldrsh.w	r2, [r4, #12]
  4040c6:	b293      	uxth	r3, r2
  4040c8:	0718      	lsls	r0, r3, #28
  4040ca:	d50c      	bpl.n	4040e6 <__swsetup_r+0x36>
  4040cc:	6920      	ldr	r0, [r4, #16]
  4040ce:	b1a8      	cbz	r0, 4040fc <__swsetup_r+0x4c>
  4040d0:	f013 0201 	ands.w	r2, r3, #1
  4040d4:	d01e      	beq.n	404114 <__swsetup_r+0x64>
  4040d6:	6963      	ldr	r3, [r4, #20]
  4040d8:	2200      	movs	r2, #0
  4040da:	425b      	negs	r3, r3
  4040dc:	61a3      	str	r3, [r4, #24]
  4040de:	60a2      	str	r2, [r4, #8]
  4040e0:	b1f0      	cbz	r0, 404120 <__swsetup_r+0x70>
  4040e2:	2000      	movs	r0, #0
  4040e4:	bd38      	pop	{r3, r4, r5, pc}
  4040e6:	06d9      	lsls	r1, r3, #27
  4040e8:	d53c      	bpl.n	404164 <__swsetup_r+0xb4>
  4040ea:	0758      	lsls	r0, r3, #29
  4040ec:	d426      	bmi.n	40413c <__swsetup_r+0x8c>
  4040ee:	6920      	ldr	r0, [r4, #16]
  4040f0:	f042 0308 	orr.w	r3, r2, #8
  4040f4:	81a3      	strh	r3, [r4, #12]
  4040f6:	b29b      	uxth	r3, r3
  4040f8:	2800      	cmp	r0, #0
  4040fa:	d1e9      	bne.n	4040d0 <__swsetup_r+0x20>
  4040fc:	f403 7220 	and.w	r2, r3, #640	; 0x280
  404100:	f5b2 7f00 	cmp.w	r2, #512	; 0x200
  404104:	d0e4      	beq.n	4040d0 <__swsetup_r+0x20>
  404106:	4628      	mov	r0, r5
  404108:	4621      	mov	r1, r4
  40410a:	f000 fd2f 	bl	404b6c <__smakebuf_r>
  40410e:	89a3      	ldrh	r3, [r4, #12]
  404110:	6920      	ldr	r0, [r4, #16]
  404112:	e7dd      	b.n	4040d0 <__swsetup_r+0x20>
  404114:	0799      	lsls	r1, r3, #30
  404116:	bf58      	it	pl
  404118:	6962      	ldrpl	r2, [r4, #20]
  40411a:	60a2      	str	r2, [r4, #8]
  40411c:	2800      	cmp	r0, #0
  40411e:	d1e0      	bne.n	4040e2 <__swsetup_r+0x32>
  404120:	f9b4 300c 	ldrsh.w	r3, [r4, #12]
  404124:	061a      	lsls	r2, r3, #24
  404126:	d5dd      	bpl.n	4040e4 <__swsetup_r+0x34>
  404128:	f043 0340 	orr.w	r3, r3, #64	; 0x40
  40412c:	81a3      	strh	r3, [r4, #12]
  40412e:	f04f 30ff 	mov.w	r0, #4294967295
  404132:	bd38      	pop	{r3, r4, r5, pc}
  404134:	4618      	mov	r0, r3
  404136:	f000 f927 	bl	404388 <__sinit>
  40413a:	e7c2      	b.n	4040c2 <__swsetup_r+0x12>
  40413c:	6b21      	ldr	r1, [r4, #48]	; 0x30
  40413e:	b151      	cbz	r1, 404156 <__swsetup_r+0xa6>
  404140:	f104 0340 	add.w	r3, r4, #64	; 0x40
  404144:	4299      	cmp	r1, r3
  404146:	d004      	beq.n	404152 <__swsetup_r+0xa2>
  404148:	4628      	mov	r0, r5
  40414a:	f000 fa43 	bl	4045d4 <_free_r>
  40414e:	f9b4 200c 	ldrsh.w	r2, [r4, #12]
  404152:	2300      	movs	r3, #0
  404154:	6323      	str	r3, [r4, #48]	; 0x30
  404156:	2300      	movs	r3, #0
  404158:	6920      	ldr	r0, [r4, #16]
  40415a:	6063      	str	r3, [r4, #4]
  40415c:	f022 0224 	bic.w	r2, r2, #36	; 0x24
  404160:	6020      	str	r0, [r4, #0]
  404162:	e7c5      	b.n	4040f0 <__swsetup_r+0x40>
  404164:	f042 0240 	orr.w	r2, r2, #64	; 0x40
  404168:	2309      	movs	r3, #9
  40416a:	602b      	str	r3, [r5, #0]
  40416c:	f04f 30ff 	mov.w	r0, #4294967295
  404170:	81a2      	strh	r2, [r4, #12]
  404172:	bd38      	pop	{r3, r4, r5, pc}
  404174:	2040002c 	.word	0x2040002c

00404178 <register_fini>:
  404178:	4b02      	ldr	r3, [pc, #8]	; (404184 <register_fini+0xc>)
  40417a:	b113      	cbz	r3, 404182 <register_fini+0xa>
  40417c:	4802      	ldr	r0, [pc, #8]	; (404188 <register_fini+0x10>)
  40417e:	f000 b805 	b.w	40418c <atexit>
  404182:	4770      	bx	lr
  404184:	00000000 	.word	0x00000000
  404188:	004043f9 	.word	0x004043f9

0040418c <atexit>:
  40418c:	2300      	movs	r3, #0
  40418e:	4601      	mov	r1, r0
  404190:	461a      	mov	r2, r3
  404192:	4618      	mov	r0, r3
  404194:	f001 bb66 	b.w	405864 <__register_exitproc>

00404198 <__sflush_r>:
  404198:	f9b1 300c 	ldrsh.w	r3, [r1, #12]
  40419c:	b29a      	uxth	r2, r3
  40419e:	e92d 41f0 	stmdb	sp!, {r4, r5, r6, r7, r8, lr}
  4041a2:	460d      	mov	r5, r1
  4041a4:	0711      	lsls	r1, r2, #28
  4041a6:	4680      	mov	r8, r0
  4041a8:	d43a      	bmi.n	404220 <__sflush_r+0x88>
  4041aa:	686a      	ldr	r2, [r5, #4]
  4041ac:	f443 6300 	orr.w	r3, r3, #2048	; 0x800
  4041b0:	2a00      	cmp	r2, #0
  4041b2:	81ab      	strh	r3, [r5, #12]
  4041b4:	dd6f      	ble.n	404296 <__sflush_r+0xfe>
  4041b6:	6aac      	ldr	r4, [r5, #40]	; 0x28
  4041b8:	2c00      	cmp	r4, #0
  4041ba:	d049      	beq.n	404250 <__sflush_r+0xb8>
  4041bc:	2200      	movs	r2, #0
  4041be:	b29b      	uxth	r3, r3
  4041c0:	f8d8 6000 	ldr.w	r6, [r8]
  4041c4:	f8c8 2000 	str.w	r2, [r8]
  4041c8:	f413 5280 	ands.w	r2, r3, #4096	; 0x1000
  4041cc:	d067      	beq.n	40429e <__sflush_r+0x106>
  4041ce:	6d2a      	ldr	r2, [r5, #80]	; 0x50
  4041d0:	075f      	lsls	r7, r3, #29
  4041d2:	d505      	bpl.n	4041e0 <__sflush_r+0x48>
  4041d4:	6869      	ldr	r1, [r5, #4]
  4041d6:	6b2b      	ldr	r3, [r5, #48]	; 0x30
  4041d8:	1a52      	subs	r2, r2, r1
  4041da:	b10b      	cbz	r3, 4041e0 <__sflush_r+0x48>
  4041dc:	6beb      	ldr	r3, [r5, #60]	; 0x3c
  4041de:	1ad2      	subs	r2, r2, r3
  4041e0:	2300      	movs	r3, #0
  4041e2:	69e9      	ldr	r1, [r5, #28]
  4041e4:	4640      	mov	r0, r8
  4041e6:	47a0      	blx	r4
  4041e8:	1c44      	adds	r4, r0, #1
  4041ea:	d03c      	beq.n	404266 <__sflush_r+0xce>
  4041ec:	f9b5 300c 	ldrsh.w	r3, [r5, #12]
  4041f0:	692a      	ldr	r2, [r5, #16]
  4041f2:	602a      	str	r2, [r5, #0]
  4041f4:	f423 6300 	bic.w	r3, r3, #2048	; 0x800
  4041f8:	2200      	movs	r2, #0
  4041fa:	81ab      	strh	r3, [r5, #12]
  4041fc:	04db      	lsls	r3, r3, #19
  4041fe:	606a      	str	r2, [r5, #4]
  404200:	d447      	bmi.n	404292 <__sflush_r+0xfa>
  404202:	6b29      	ldr	r1, [r5, #48]	; 0x30
  404204:	f8c8 6000 	str.w	r6, [r8]
  404208:	b311      	cbz	r1, 404250 <__sflush_r+0xb8>
  40420a:	f105 0340 	add.w	r3, r5, #64	; 0x40
  40420e:	4299      	cmp	r1, r3
  404210:	d002      	beq.n	404218 <__sflush_r+0x80>
  404212:	4640      	mov	r0, r8
  404214:	f000 f9de 	bl	4045d4 <_free_r>
  404218:	2000      	movs	r0, #0
  40421a:	6328      	str	r0, [r5, #48]	; 0x30
  40421c:	e8bd 81f0 	ldmia.w	sp!, {r4, r5, r6, r7, r8, pc}
  404220:	692e      	ldr	r6, [r5, #16]
  404222:	b1ae      	cbz	r6, 404250 <__sflush_r+0xb8>
  404224:	682c      	ldr	r4, [r5, #0]
  404226:	602e      	str	r6, [r5, #0]
  404228:	0791      	lsls	r1, r2, #30
  40422a:	bf0c      	ite	eq
  40422c:	696b      	ldreq	r3, [r5, #20]
  40422e:	2300      	movne	r3, #0
  404230:	1ba4      	subs	r4, r4, r6
  404232:	60ab      	str	r3, [r5, #8]
  404234:	e00a      	b.n	40424c <__sflush_r+0xb4>
  404236:	4623      	mov	r3, r4
  404238:	4632      	mov	r2, r6
  40423a:	6a6f      	ldr	r7, [r5, #36]	; 0x24
  40423c:	69e9      	ldr	r1, [r5, #28]
  40423e:	4640      	mov	r0, r8
  404240:	47b8      	blx	r7
  404242:	2800      	cmp	r0, #0
  404244:	eba4 0400 	sub.w	r4, r4, r0
  404248:	4406      	add	r6, r0
  40424a:	dd04      	ble.n	404256 <__sflush_r+0xbe>
  40424c:	2c00      	cmp	r4, #0
  40424e:	dcf2      	bgt.n	404236 <__sflush_r+0x9e>
  404250:	2000      	movs	r0, #0
  404252:	e8bd 81f0 	ldmia.w	sp!, {r4, r5, r6, r7, r8, pc}
  404256:	89ab      	ldrh	r3, [r5, #12]
  404258:	f043 0340 	orr.w	r3, r3, #64	; 0x40
  40425c:	81ab      	strh	r3, [r5, #12]
  40425e:	f04f 30ff 	mov.w	r0, #4294967295
  404262:	e8bd 81f0 	ldmia.w	sp!, {r4, r5, r6, r7, r8, pc}
  404266:	f8d8 4000 	ldr.w	r4, [r8]
  40426a:	2c1d      	cmp	r4, #29
  40426c:	d8f3      	bhi.n	404256 <__sflush_r+0xbe>
  40426e:	4b19      	ldr	r3, [pc, #100]	; (4042d4 <__sflush_r+0x13c>)
  404270:	40e3      	lsrs	r3, r4
  404272:	43db      	mvns	r3, r3
  404274:	f013 0301 	ands.w	r3, r3, #1
  404278:	d1ed      	bne.n	404256 <__sflush_r+0xbe>
  40427a:	f9b5 200c 	ldrsh.w	r2, [r5, #12]
  40427e:	606b      	str	r3, [r5, #4]
  404280:	f422 6300 	bic.w	r3, r2, #2048	; 0x800
  404284:	6929      	ldr	r1, [r5, #16]
  404286:	81ab      	strh	r3, [r5, #12]
  404288:	04da      	lsls	r2, r3, #19
  40428a:	6029      	str	r1, [r5, #0]
  40428c:	d5b9      	bpl.n	404202 <__sflush_r+0x6a>
  40428e:	2c00      	cmp	r4, #0
  404290:	d1b7      	bne.n	404202 <__sflush_r+0x6a>
  404292:	6528      	str	r0, [r5, #80]	; 0x50
  404294:	e7b5      	b.n	404202 <__sflush_r+0x6a>
  404296:	6bea      	ldr	r2, [r5, #60]	; 0x3c
  404298:	2a00      	cmp	r2, #0
  40429a:	dc8c      	bgt.n	4041b6 <__sflush_r+0x1e>
  40429c:	e7d8      	b.n	404250 <__sflush_r+0xb8>
  40429e:	2301      	movs	r3, #1
  4042a0:	69e9      	ldr	r1, [r5, #28]
  4042a2:	4640      	mov	r0, r8
  4042a4:	47a0      	blx	r4
  4042a6:	1c43      	adds	r3, r0, #1
  4042a8:	4602      	mov	r2, r0
  4042aa:	d002      	beq.n	4042b2 <__sflush_r+0x11a>
  4042ac:	89ab      	ldrh	r3, [r5, #12]
  4042ae:	6aac      	ldr	r4, [r5, #40]	; 0x28
  4042b0:	e78e      	b.n	4041d0 <__sflush_r+0x38>
  4042b2:	f8d8 3000 	ldr.w	r3, [r8]
  4042b6:	2b00      	cmp	r3, #0
  4042b8:	d0f8      	beq.n	4042ac <__sflush_r+0x114>
  4042ba:	2b1d      	cmp	r3, #29
  4042bc:	d001      	beq.n	4042c2 <__sflush_r+0x12a>
  4042be:	2b16      	cmp	r3, #22
  4042c0:	d102      	bne.n	4042c8 <__sflush_r+0x130>
  4042c2:	f8c8 6000 	str.w	r6, [r8]
  4042c6:	e7c3      	b.n	404250 <__sflush_r+0xb8>
  4042c8:	89ab      	ldrh	r3, [r5, #12]
  4042ca:	f043 0340 	orr.w	r3, r3, #64	; 0x40
  4042ce:	81ab      	strh	r3, [r5, #12]
  4042d0:	e8bd 81f0 	ldmia.w	sp!, {r4, r5, r6, r7, r8, pc}
  4042d4:	20400001 	.word	0x20400001

004042d8 <_fflush_r>:
  4042d8:	b538      	push	{r3, r4, r5, lr}
  4042da:	460d      	mov	r5, r1
  4042dc:	4604      	mov	r4, r0
  4042de:	b108      	cbz	r0, 4042e4 <_fflush_r+0xc>
  4042e0:	6b83      	ldr	r3, [r0, #56]	; 0x38
  4042e2:	b1bb      	cbz	r3, 404314 <_fflush_r+0x3c>
  4042e4:	f9b5 000c 	ldrsh.w	r0, [r5, #12]
  4042e8:	b188      	cbz	r0, 40430e <_fflush_r+0x36>
  4042ea:	6e6b      	ldr	r3, [r5, #100]	; 0x64
  4042ec:	07db      	lsls	r3, r3, #31
  4042ee:	d401      	bmi.n	4042f4 <_fflush_r+0x1c>
  4042f0:	0581      	lsls	r1, r0, #22
  4042f2:	d517      	bpl.n	404324 <_fflush_r+0x4c>
  4042f4:	4620      	mov	r0, r4
  4042f6:	4629      	mov	r1, r5
  4042f8:	f7ff ff4e 	bl	404198 <__sflush_r>
  4042fc:	6e6b      	ldr	r3, [r5, #100]	; 0x64
  4042fe:	07da      	lsls	r2, r3, #31
  404300:	4604      	mov	r4, r0
  404302:	d402      	bmi.n	40430a <_fflush_r+0x32>
  404304:	89ab      	ldrh	r3, [r5, #12]
  404306:	059b      	lsls	r3, r3, #22
  404308:	d507      	bpl.n	40431a <_fflush_r+0x42>
  40430a:	4620      	mov	r0, r4
  40430c:	bd38      	pop	{r3, r4, r5, pc}
  40430e:	4604      	mov	r4, r0
  404310:	4620      	mov	r0, r4
  404312:	bd38      	pop	{r3, r4, r5, pc}
  404314:	f000 f838 	bl	404388 <__sinit>
  404318:	e7e4      	b.n	4042e4 <_fflush_r+0xc>
  40431a:	6da8      	ldr	r0, [r5, #88]	; 0x58
  40431c:	f000 fbf6 	bl	404b0c <__retarget_lock_release_recursive>
  404320:	4620      	mov	r0, r4
  404322:	bd38      	pop	{r3, r4, r5, pc}
  404324:	6da8      	ldr	r0, [r5, #88]	; 0x58
  404326:	f000 fbef 	bl	404b08 <__retarget_lock_acquire_recursive>
  40432a:	e7e3      	b.n	4042f4 <_fflush_r+0x1c>

0040432c <_cleanup_r>:
  40432c:	4901      	ldr	r1, [pc, #4]	; (404334 <_cleanup_r+0x8>)
  40432e:	f000 bbaf 	b.w	404a90 <_fwalk_reent>
  404332:	bf00      	nop
  404334:	0040594d 	.word	0x0040594d

00404338 <std.isra.0>:
  404338:	b510      	push	{r4, lr}
  40433a:	2300      	movs	r3, #0
  40433c:	4604      	mov	r4, r0
  40433e:	8181      	strh	r1, [r0, #12]
  404340:	81c2      	strh	r2, [r0, #14]
  404342:	6003      	str	r3, [r0, #0]
  404344:	6043      	str	r3, [r0, #4]
  404346:	6083      	str	r3, [r0, #8]
  404348:	6643      	str	r3, [r0, #100]	; 0x64
  40434a:	6103      	str	r3, [r0, #16]
  40434c:	6143      	str	r3, [r0, #20]
  40434e:	6183      	str	r3, [r0, #24]
  404350:	4619      	mov	r1, r3
  404352:	2208      	movs	r2, #8
  404354:	305c      	adds	r0, #92	; 0x5c
  404356:	f7fe fdeb 	bl	402f30 <memset>
  40435a:	4807      	ldr	r0, [pc, #28]	; (404378 <std.isra.0+0x40>)
  40435c:	4907      	ldr	r1, [pc, #28]	; (40437c <std.isra.0+0x44>)
  40435e:	4a08      	ldr	r2, [pc, #32]	; (404380 <std.isra.0+0x48>)
  404360:	4b08      	ldr	r3, [pc, #32]	; (404384 <std.isra.0+0x4c>)
  404362:	6220      	str	r0, [r4, #32]
  404364:	61e4      	str	r4, [r4, #28]
  404366:	6261      	str	r1, [r4, #36]	; 0x24
  404368:	62a2      	str	r2, [r4, #40]	; 0x28
  40436a:	62e3      	str	r3, [r4, #44]	; 0x2c
  40436c:	f104 0058 	add.w	r0, r4, #88	; 0x58
  404370:	e8bd 4010 	ldmia.w	sp!, {r4, lr}
  404374:	f000 bbc4 	b.w	404b00 <__retarget_lock_init_recursive>
  404378:	00405691 	.word	0x00405691
  40437c:	004056b5 	.word	0x004056b5
  404380:	004056f1 	.word	0x004056f1
  404384:	00405711 	.word	0x00405711

00404388 <__sinit>:
  404388:	b510      	push	{r4, lr}
  40438a:	4604      	mov	r4, r0
  40438c:	4812      	ldr	r0, [pc, #72]	; (4043d8 <__sinit+0x50>)
  40438e:	f000 fbbb 	bl	404b08 <__retarget_lock_acquire_recursive>
  404392:	6ba2      	ldr	r2, [r4, #56]	; 0x38
  404394:	b9d2      	cbnz	r2, 4043cc <__sinit+0x44>
  404396:	f504 733b 	add.w	r3, r4, #748	; 0x2ec
  40439a:	4810      	ldr	r0, [pc, #64]	; (4043dc <__sinit+0x54>)
  40439c:	f8c4 32e8 	str.w	r3, [r4, #744]	; 0x2e8
  4043a0:	2103      	movs	r1, #3
  4043a2:	f8c4 22e0 	str.w	r2, [r4, #736]	; 0x2e0
  4043a6:	63e0      	str	r0, [r4, #60]	; 0x3c
  4043a8:	f8c4 12e4 	str.w	r1, [r4, #740]	; 0x2e4
  4043ac:	6860      	ldr	r0, [r4, #4]
  4043ae:	2104      	movs	r1, #4
  4043b0:	f7ff ffc2 	bl	404338 <std.isra.0>
  4043b4:	2201      	movs	r2, #1
  4043b6:	2109      	movs	r1, #9
  4043b8:	68a0      	ldr	r0, [r4, #8]
  4043ba:	f7ff ffbd 	bl	404338 <std.isra.0>
  4043be:	2202      	movs	r2, #2
  4043c0:	2112      	movs	r1, #18
  4043c2:	68e0      	ldr	r0, [r4, #12]
  4043c4:	f7ff ffb8 	bl	404338 <std.isra.0>
  4043c8:	2301      	movs	r3, #1
  4043ca:	63a3      	str	r3, [r4, #56]	; 0x38
  4043cc:	4802      	ldr	r0, [pc, #8]	; (4043d8 <__sinit+0x50>)
  4043ce:	e8bd 4010 	ldmia.w	sp!, {r4, lr}
  4043d2:	f000 bb9b 	b.w	404b0c <__retarget_lock_release_recursive>
  4043d6:	bf00      	nop
  4043d8:	20408310 	.word	0x20408310
  4043dc:	0040432d 	.word	0x0040432d

004043e0 <__sfp_lock_acquire>:
  4043e0:	4801      	ldr	r0, [pc, #4]	; (4043e8 <__sfp_lock_acquire+0x8>)
  4043e2:	f000 bb91 	b.w	404b08 <__retarget_lock_acquire_recursive>
  4043e6:	bf00      	nop
  4043e8:	20408324 	.word	0x20408324

004043ec <__sfp_lock_release>:
  4043ec:	4801      	ldr	r0, [pc, #4]	; (4043f4 <__sfp_lock_release+0x8>)
  4043ee:	f000 bb8d 	b.w	404b0c <__retarget_lock_release_recursive>
  4043f2:	bf00      	nop
  4043f4:	20408324 	.word	0x20408324

004043f8 <__libc_fini_array>:
  4043f8:	b538      	push	{r3, r4, r5, lr}
  4043fa:	4c0a      	ldr	r4, [pc, #40]	; (404424 <__libc_fini_array+0x2c>)
  4043fc:	4d0a      	ldr	r5, [pc, #40]	; (404428 <__libc_fini_array+0x30>)
  4043fe:	1b64      	subs	r4, r4, r5
  404400:	10a4      	asrs	r4, r4, #2
  404402:	d00a      	beq.n	40441a <__libc_fini_array+0x22>
  404404:	f104 4380 	add.w	r3, r4, #1073741824	; 0x40000000
  404408:	3b01      	subs	r3, #1
  40440a:	eb05 0583 	add.w	r5, r5, r3, lsl #2
  40440e:	3c01      	subs	r4, #1
  404410:	f855 3904 	ldr.w	r3, [r5], #-4
  404414:	4798      	blx	r3
  404416:	2c00      	cmp	r4, #0
  404418:	d1f9      	bne.n	40440e <__libc_fini_array+0x16>
  40441a:	e8bd 4038 	ldmia.w	sp!, {r3, r4, r5, lr}
  40441e:	f001 be1f 	b.w	406060 <_fini>
  404422:	bf00      	nop
  404424:	00406070 	.word	0x00406070
  404428:	0040606c 	.word	0x0040606c

0040442c <__fputwc>:
  40442c:	e92d 47f0 	stmdb	sp!, {r4, r5, r6, r7, r8, r9, sl, lr}
  404430:	b082      	sub	sp, #8
  404432:	4680      	mov	r8, r0
  404434:	4689      	mov	r9, r1
  404436:	4614      	mov	r4, r2
  404438:	f000 fb54 	bl	404ae4 <__locale_mb_cur_max>
  40443c:	2801      	cmp	r0, #1
  40443e:	d036      	beq.n	4044ae <__fputwc+0x82>
  404440:	464a      	mov	r2, r9
  404442:	f104 035c 	add.w	r3, r4, #92	; 0x5c
  404446:	a901      	add	r1, sp, #4
  404448:	4640      	mov	r0, r8
  40444a:	f001 f9bd 	bl	4057c8 <_wcrtomb_r>
  40444e:	1c42      	adds	r2, r0, #1
  404450:	4606      	mov	r6, r0
  404452:	d025      	beq.n	4044a0 <__fputwc+0x74>
  404454:	b3a8      	cbz	r0, 4044c2 <__fputwc+0x96>
  404456:	f89d e004 	ldrb.w	lr, [sp, #4]
  40445a:	2500      	movs	r5, #0
  40445c:	f10d 0a04 	add.w	sl, sp, #4
  404460:	e009      	b.n	404476 <__fputwc+0x4a>
  404462:	6823      	ldr	r3, [r4, #0]
  404464:	1c5a      	adds	r2, r3, #1
  404466:	6022      	str	r2, [r4, #0]
  404468:	f883 e000 	strb.w	lr, [r3]
  40446c:	3501      	adds	r5, #1
  40446e:	42b5      	cmp	r5, r6
  404470:	d227      	bcs.n	4044c2 <__fputwc+0x96>
  404472:	f815 e00a 	ldrb.w	lr, [r5, sl]
  404476:	68a3      	ldr	r3, [r4, #8]
  404478:	3b01      	subs	r3, #1
  40447a:	2b00      	cmp	r3, #0
  40447c:	60a3      	str	r3, [r4, #8]
  40447e:	daf0      	bge.n	404462 <__fputwc+0x36>
  404480:	69a7      	ldr	r7, [r4, #24]
  404482:	42bb      	cmp	r3, r7
  404484:	4671      	mov	r1, lr
  404486:	4622      	mov	r2, r4
  404488:	4640      	mov	r0, r8
  40448a:	db02      	blt.n	404492 <__fputwc+0x66>
  40448c:	f1be 0f0a 	cmp.w	lr, #10
  404490:	d1e7      	bne.n	404462 <__fputwc+0x36>
  404492:	f001 f941 	bl	405718 <__swbuf_r>
  404496:	1c43      	adds	r3, r0, #1
  404498:	d1e8      	bne.n	40446c <__fputwc+0x40>
  40449a:	b002      	add	sp, #8
  40449c:	e8bd 87f0 	ldmia.w	sp!, {r4, r5, r6, r7, r8, r9, sl, pc}
  4044a0:	89a3      	ldrh	r3, [r4, #12]
  4044a2:	f043 0340 	orr.w	r3, r3, #64	; 0x40
  4044a6:	81a3      	strh	r3, [r4, #12]
  4044a8:	b002      	add	sp, #8
  4044aa:	e8bd 87f0 	ldmia.w	sp!, {r4, r5, r6, r7, r8, r9, sl, pc}
  4044ae:	f109 33ff 	add.w	r3, r9, #4294967295
  4044b2:	2bfe      	cmp	r3, #254	; 0xfe
  4044b4:	d8c4      	bhi.n	404440 <__fputwc+0x14>
  4044b6:	fa5f fe89 	uxtb.w	lr, r9
  4044ba:	4606      	mov	r6, r0
  4044bc:	f88d e004 	strb.w	lr, [sp, #4]
  4044c0:	e7cb      	b.n	40445a <__fputwc+0x2e>
  4044c2:	4648      	mov	r0, r9
  4044c4:	b002      	add	sp, #8
  4044c6:	e8bd 87f0 	ldmia.w	sp!, {r4, r5, r6, r7, r8, r9, sl, pc}
  4044ca:	bf00      	nop

004044cc <_fputwc_r>:
  4044cc:	b530      	push	{r4, r5, lr}
  4044ce:	6e53      	ldr	r3, [r2, #100]	; 0x64
  4044d0:	f013 0f01 	tst.w	r3, #1
  4044d4:	f9b2 300c 	ldrsh.w	r3, [r2, #12]
  4044d8:	4614      	mov	r4, r2
  4044da:	b083      	sub	sp, #12
  4044dc:	4605      	mov	r5, r0
  4044de:	b29a      	uxth	r2, r3
  4044e0:	d101      	bne.n	4044e6 <_fputwc_r+0x1a>
  4044e2:	0590      	lsls	r0, r2, #22
  4044e4:	d51c      	bpl.n	404520 <_fputwc_r+0x54>
  4044e6:	0490      	lsls	r0, r2, #18
  4044e8:	d406      	bmi.n	4044f8 <_fputwc_r+0x2c>
  4044ea:	6e62      	ldr	r2, [r4, #100]	; 0x64
  4044ec:	f443 5300 	orr.w	r3, r3, #8192	; 0x2000
  4044f0:	f442 5200 	orr.w	r2, r2, #8192	; 0x2000
  4044f4:	81a3      	strh	r3, [r4, #12]
  4044f6:	6662      	str	r2, [r4, #100]	; 0x64
  4044f8:	4628      	mov	r0, r5
  4044fa:	4622      	mov	r2, r4
  4044fc:	f7ff ff96 	bl	40442c <__fputwc>
  404500:	6e63      	ldr	r3, [r4, #100]	; 0x64
  404502:	07da      	lsls	r2, r3, #31
  404504:	4605      	mov	r5, r0
  404506:	d402      	bmi.n	40450e <_fputwc_r+0x42>
  404508:	89a3      	ldrh	r3, [r4, #12]
  40450a:	059b      	lsls	r3, r3, #22
  40450c:	d502      	bpl.n	404514 <_fputwc_r+0x48>
  40450e:	4628      	mov	r0, r5
  404510:	b003      	add	sp, #12
  404512:	bd30      	pop	{r4, r5, pc}
  404514:	6da0      	ldr	r0, [r4, #88]	; 0x58
  404516:	f000 faf9 	bl	404b0c <__retarget_lock_release_recursive>
  40451a:	4628      	mov	r0, r5
  40451c:	b003      	add	sp, #12
  40451e:	bd30      	pop	{r4, r5, pc}
  404520:	6da0      	ldr	r0, [r4, #88]	; 0x58
  404522:	9101      	str	r1, [sp, #4]
  404524:	f000 faf0 	bl	404b08 <__retarget_lock_acquire_recursive>
  404528:	f9b4 300c 	ldrsh.w	r3, [r4, #12]
  40452c:	9901      	ldr	r1, [sp, #4]
  40452e:	b29a      	uxth	r2, r3
  404530:	e7d9      	b.n	4044e6 <_fputwc_r+0x1a>
  404532:	bf00      	nop

00404534 <_malloc_trim_r>:
  404534:	b5f8      	push	{r3, r4, r5, r6, r7, lr}
  404536:	4f24      	ldr	r7, [pc, #144]	; (4045c8 <_malloc_trim_r+0x94>)
  404538:	460c      	mov	r4, r1
  40453a:	4606      	mov	r6, r0
  40453c:	f000 fee4 	bl	405308 <__malloc_lock>
  404540:	68bb      	ldr	r3, [r7, #8]
  404542:	685d      	ldr	r5, [r3, #4]
  404544:	f5c4 617e 	rsb	r1, r4, #4064	; 0xfe0
  404548:	310f      	adds	r1, #15
  40454a:	f025 0503 	bic.w	r5, r5, #3
  40454e:	4429      	add	r1, r5
  404550:	f421 617f 	bic.w	r1, r1, #4080	; 0xff0
  404554:	f021 010f 	bic.w	r1, r1, #15
  404558:	f5a1 5480 	sub.w	r4, r1, #4096	; 0x1000
  40455c:	f5b4 5f80 	cmp.w	r4, #4096	; 0x1000
  404560:	db07      	blt.n	404572 <_malloc_trim_r+0x3e>
  404562:	2100      	movs	r1, #0
  404564:	4630      	mov	r0, r6
  404566:	f001 f881 	bl	40566c <_sbrk_r>
  40456a:	68bb      	ldr	r3, [r7, #8]
  40456c:	442b      	add	r3, r5
  40456e:	4298      	cmp	r0, r3
  404570:	d004      	beq.n	40457c <_malloc_trim_r+0x48>
  404572:	4630      	mov	r0, r6
  404574:	f000 fece 	bl	405314 <__malloc_unlock>
  404578:	2000      	movs	r0, #0
  40457a:	bdf8      	pop	{r3, r4, r5, r6, r7, pc}
  40457c:	4261      	negs	r1, r4
  40457e:	4630      	mov	r0, r6
  404580:	f001 f874 	bl	40566c <_sbrk_r>
  404584:	3001      	adds	r0, #1
  404586:	d00d      	beq.n	4045a4 <_malloc_trim_r+0x70>
  404588:	4b10      	ldr	r3, [pc, #64]	; (4045cc <_malloc_trim_r+0x98>)
  40458a:	68ba      	ldr	r2, [r7, #8]
  40458c:	6819      	ldr	r1, [r3, #0]
  40458e:	1b2d      	subs	r5, r5, r4
  404590:	f045 0501 	orr.w	r5, r5, #1
  404594:	4630      	mov	r0, r6
  404596:	1b09      	subs	r1, r1, r4
  404598:	6055      	str	r5, [r2, #4]
  40459a:	6019      	str	r1, [r3, #0]
  40459c:	f000 feba 	bl	405314 <__malloc_unlock>
  4045a0:	2001      	movs	r0, #1
  4045a2:	bdf8      	pop	{r3, r4, r5, r6, r7, pc}
  4045a4:	2100      	movs	r1, #0
  4045a6:	4630      	mov	r0, r6
  4045a8:	f001 f860 	bl	40566c <_sbrk_r>
  4045ac:	68ba      	ldr	r2, [r7, #8]
  4045ae:	1a83      	subs	r3, r0, r2
  4045b0:	2b0f      	cmp	r3, #15
  4045b2:	ddde      	ble.n	404572 <_malloc_trim_r+0x3e>
  4045b4:	4c06      	ldr	r4, [pc, #24]	; (4045d0 <_malloc_trim_r+0x9c>)
  4045b6:	4905      	ldr	r1, [pc, #20]	; (4045cc <_malloc_trim_r+0x98>)
  4045b8:	6824      	ldr	r4, [r4, #0]
  4045ba:	f043 0301 	orr.w	r3, r3, #1
  4045be:	1b00      	subs	r0, r0, r4
  4045c0:	6053      	str	r3, [r2, #4]
  4045c2:	6008      	str	r0, [r1, #0]
  4045c4:	e7d5      	b.n	404572 <_malloc_trim_r+0x3e>
  4045c6:	bf00      	nop
  4045c8:	204005c8 	.word	0x204005c8
  4045cc:	204072a4 	.word	0x204072a4
  4045d0:	204009d0 	.word	0x204009d0

004045d4 <_free_r>:
  4045d4:	2900      	cmp	r1, #0
  4045d6:	d044      	beq.n	404662 <_free_r+0x8e>
  4045d8:	e92d 41f0 	stmdb	sp!, {r4, r5, r6, r7, r8, lr}
  4045dc:	460d      	mov	r5, r1
  4045de:	4680      	mov	r8, r0
  4045e0:	f000 fe92 	bl	405308 <__malloc_lock>
  4045e4:	f855 7c04 	ldr.w	r7, [r5, #-4]
  4045e8:	4969      	ldr	r1, [pc, #420]	; (404790 <_free_r+0x1bc>)
  4045ea:	f027 0301 	bic.w	r3, r7, #1
  4045ee:	f1a5 0408 	sub.w	r4, r5, #8
  4045f2:	18e2      	adds	r2, r4, r3
  4045f4:	688e      	ldr	r6, [r1, #8]
  4045f6:	6850      	ldr	r0, [r2, #4]
  4045f8:	42b2      	cmp	r2, r6
  4045fa:	f020 0003 	bic.w	r0, r0, #3
  4045fe:	d05e      	beq.n	4046be <_free_r+0xea>
  404600:	07fe      	lsls	r6, r7, #31
  404602:	6050      	str	r0, [r2, #4]
  404604:	d40b      	bmi.n	40461e <_free_r+0x4a>
  404606:	f855 7c08 	ldr.w	r7, [r5, #-8]
  40460a:	1be4      	subs	r4, r4, r7
  40460c:	f101 0e08 	add.w	lr, r1, #8
  404610:	68a5      	ldr	r5, [r4, #8]
  404612:	4575      	cmp	r5, lr
  404614:	443b      	add	r3, r7
  404616:	d06d      	beq.n	4046f4 <_free_r+0x120>
  404618:	68e7      	ldr	r7, [r4, #12]
  40461a:	60ef      	str	r7, [r5, #12]
  40461c:	60bd      	str	r5, [r7, #8]
  40461e:	1815      	adds	r5, r2, r0
  404620:	686d      	ldr	r5, [r5, #4]
  404622:	07ed      	lsls	r5, r5, #31
  404624:	d53e      	bpl.n	4046a4 <_free_r+0xd0>
  404626:	f043 0201 	orr.w	r2, r3, #1
  40462a:	6062      	str	r2, [r4, #4]
  40462c:	50e3      	str	r3, [r4, r3]
  40462e:	f5b3 7f00 	cmp.w	r3, #512	; 0x200
  404632:	d217      	bcs.n	404664 <_free_r+0x90>
  404634:	08db      	lsrs	r3, r3, #3
  404636:	1c58      	adds	r0, r3, #1
  404638:	109a      	asrs	r2, r3, #2
  40463a:	684d      	ldr	r5, [r1, #4]
  40463c:	f851 7030 	ldr.w	r7, [r1, r0, lsl #3]
  404640:	60a7      	str	r7, [r4, #8]
  404642:	2301      	movs	r3, #1
  404644:	4093      	lsls	r3, r2
  404646:	eb01 02c0 	add.w	r2, r1, r0, lsl #3
  40464a:	432b      	orrs	r3, r5
  40464c:	3a08      	subs	r2, #8
  40464e:	60e2      	str	r2, [r4, #12]
  404650:	604b      	str	r3, [r1, #4]
  404652:	f841 4030 	str.w	r4, [r1, r0, lsl #3]
  404656:	60fc      	str	r4, [r7, #12]
  404658:	4640      	mov	r0, r8
  40465a:	e8bd 41f0 	ldmia.w	sp!, {r4, r5, r6, r7, r8, lr}
  40465e:	f000 be59 	b.w	405314 <__malloc_unlock>
  404662:	4770      	bx	lr
  404664:	0a5a      	lsrs	r2, r3, #9
  404666:	2a04      	cmp	r2, #4
  404668:	d852      	bhi.n	404710 <_free_r+0x13c>
  40466a:	099a      	lsrs	r2, r3, #6
  40466c:	f102 0739 	add.w	r7, r2, #57	; 0x39
  404670:	00ff      	lsls	r7, r7, #3
  404672:	f102 0538 	add.w	r5, r2, #56	; 0x38
  404676:	19c8      	adds	r0, r1, r7
  404678:	59ca      	ldr	r2, [r1, r7]
  40467a:	3808      	subs	r0, #8
  40467c:	4290      	cmp	r0, r2
  40467e:	d04f      	beq.n	404720 <_free_r+0x14c>
  404680:	6851      	ldr	r1, [r2, #4]
  404682:	f021 0103 	bic.w	r1, r1, #3
  404686:	428b      	cmp	r3, r1
  404688:	d232      	bcs.n	4046f0 <_free_r+0x11c>
  40468a:	6892      	ldr	r2, [r2, #8]
  40468c:	4290      	cmp	r0, r2
  40468e:	d1f7      	bne.n	404680 <_free_r+0xac>
  404690:	68c3      	ldr	r3, [r0, #12]
  404692:	60a0      	str	r0, [r4, #8]
  404694:	60e3      	str	r3, [r4, #12]
  404696:	609c      	str	r4, [r3, #8]
  404698:	60c4      	str	r4, [r0, #12]
  40469a:	4640      	mov	r0, r8
  40469c:	e8bd 41f0 	ldmia.w	sp!, {r4, r5, r6, r7, r8, lr}
  4046a0:	f000 be38 	b.w	405314 <__malloc_unlock>
  4046a4:	6895      	ldr	r5, [r2, #8]
  4046a6:	4f3b      	ldr	r7, [pc, #236]	; (404794 <_free_r+0x1c0>)
  4046a8:	42bd      	cmp	r5, r7
  4046aa:	4403      	add	r3, r0
  4046ac:	d040      	beq.n	404730 <_free_r+0x15c>
  4046ae:	68d0      	ldr	r0, [r2, #12]
  4046b0:	60e8      	str	r0, [r5, #12]
  4046b2:	f043 0201 	orr.w	r2, r3, #1
  4046b6:	6085      	str	r5, [r0, #8]
  4046b8:	6062      	str	r2, [r4, #4]
  4046ba:	50e3      	str	r3, [r4, r3]
  4046bc:	e7b7      	b.n	40462e <_free_r+0x5a>
  4046be:	07ff      	lsls	r7, r7, #31
  4046c0:	4403      	add	r3, r0
  4046c2:	d407      	bmi.n	4046d4 <_free_r+0x100>
  4046c4:	f855 2c08 	ldr.w	r2, [r5, #-8]
  4046c8:	1aa4      	subs	r4, r4, r2
  4046ca:	4413      	add	r3, r2
  4046cc:	68a0      	ldr	r0, [r4, #8]
  4046ce:	68e2      	ldr	r2, [r4, #12]
  4046d0:	60c2      	str	r2, [r0, #12]
  4046d2:	6090      	str	r0, [r2, #8]
  4046d4:	4a30      	ldr	r2, [pc, #192]	; (404798 <_free_r+0x1c4>)
  4046d6:	6812      	ldr	r2, [r2, #0]
  4046d8:	f043 0001 	orr.w	r0, r3, #1
  4046dc:	4293      	cmp	r3, r2
  4046de:	6060      	str	r0, [r4, #4]
  4046e0:	608c      	str	r4, [r1, #8]
  4046e2:	d3b9      	bcc.n	404658 <_free_r+0x84>
  4046e4:	4b2d      	ldr	r3, [pc, #180]	; (40479c <_free_r+0x1c8>)
  4046e6:	4640      	mov	r0, r8
  4046e8:	6819      	ldr	r1, [r3, #0]
  4046ea:	f7ff ff23 	bl	404534 <_malloc_trim_r>
  4046ee:	e7b3      	b.n	404658 <_free_r+0x84>
  4046f0:	4610      	mov	r0, r2
  4046f2:	e7cd      	b.n	404690 <_free_r+0xbc>
  4046f4:	1811      	adds	r1, r2, r0
  4046f6:	6849      	ldr	r1, [r1, #4]
  4046f8:	07c9      	lsls	r1, r1, #31
  4046fa:	d444      	bmi.n	404786 <_free_r+0x1b2>
  4046fc:	6891      	ldr	r1, [r2, #8]
  4046fe:	68d2      	ldr	r2, [r2, #12]
  404700:	60ca      	str	r2, [r1, #12]
  404702:	4403      	add	r3, r0
  404704:	f043 0001 	orr.w	r0, r3, #1
  404708:	6091      	str	r1, [r2, #8]
  40470a:	6060      	str	r0, [r4, #4]
  40470c:	50e3      	str	r3, [r4, r3]
  40470e:	e7a3      	b.n	404658 <_free_r+0x84>
  404710:	2a14      	cmp	r2, #20
  404712:	d816      	bhi.n	404742 <_free_r+0x16e>
  404714:	f102 075c 	add.w	r7, r2, #92	; 0x5c
  404718:	00ff      	lsls	r7, r7, #3
  40471a:	f102 055b 	add.w	r5, r2, #91	; 0x5b
  40471e:	e7aa      	b.n	404676 <_free_r+0xa2>
  404720:	10aa      	asrs	r2, r5, #2
  404722:	2301      	movs	r3, #1
  404724:	684d      	ldr	r5, [r1, #4]
  404726:	4093      	lsls	r3, r2
  404728:	432b      	orrs	r3, r5
  40472a:	604b      	str	r3, [r1, #4]
  40472c:	4603      	mov	r3, r0
  40472e:	e7b0      	b.n	404692 <_free_r+0xbe>
  404730:	f043 0201 	orr.w	r2, r3, #1
  404734:	614c      	str	r4, [r1, #20]
  404736:	610c      	str	r4, [r1, #16]
  404738:	60e5      	str	r5, [r4, #12]
  40473a:	60a5      	str	r5, [r4, #8]
  40473c:	6062      	str	r2, [r4, #4]
  40473e:	50e3      	str	r3, [r4, r3]
  404740:	e78a      	b.n	404658 <_free_r+0x84>
  404742:	2a54      	cmp	r2, #84	; 0x54
  404744:	d806      	bhi.n	404754 <_free_r+0x180>
  404746:	0b1a      	lsrs	r2, r3, #12
  404748:	f102 076f 	add.w	r7, r2, #111	; 0x6f
  40474c:	00ff      	lsls	r7, r7, #3
  40474e:	f102 056e 	add.w	r5, r2, #110	; 0x6e
  404752:	e790      	b.n	404676 <_free_r+0xa2>
  404754:	f5b2 7faa 	cmp.w	r2, #340	; 0x154
  404758:	d806      	bhi.n	404768 <_free_r+0x194>
  40475a:	0bda      	lsrs	r2, r3, #15
  40475c:	f102 0778 	add.w	r7, r2, #120	; 0x78
  404760:	00ff      	lsls	r7, r7, #3
  404762:	f102 0577 	add.w	r5, r2, #119	; 0x77
  404766:	e786      	b.n	404676 <_free_r+0xa2>
  404768:	f240 5054 	movw	r0, #1364	; 0x554
  40476c:	4282      	cmp	r2, r0
  40476e:	d806      	bhi.n	40477e <_free_r+0x1aa>
  404770:	0c9a      	lsrs	r2, r3, #18
  404772:	f102 077d 	add.w	r7, r2, #125	; 0x7d
  404776:	00ff      	lsls	r7, r7, #3
  404778:	f102 057c 	add.w	r5, r2, #124	; 0x7c
  40477c:	e77b      	b.n	404676 <_free_r+0xa2>
  40477e:	f44f 777e 	mov.w	r7, #1016	; 0x3f8
  404782:	257e      	movs	r5, #126	; 0x7e
  404784:	e777      	b.n	404676 <_free_r+0xa2>
  404786:	f043 0101 	orr.w	r1, r3, #1
  40478a:	6061      	str	r1, [r4, #4]
  40478c:	6013      	str	r3, [r2, #0]
  40478e:	e763      	b.n	404658 <_free_r+0x84>
  404790:	204005c8 	.word	0x204005c8
  404794:	204005d0 	.word	0x204005d0
  404798:	204009d4 	.word	0x204009d4
  40479c:	204072d4 	.word	0x204072d4

004047a0 <__sfvwrite_r>:
  4047a0:	6893      	ldr	r3, [r2, #8]
  4047a2:	2b00      	cmp	r3, #0
  4047a4:	d073      	beq.n	40488e <__sfvwrite_r+0xee>
  4047a6:	e92d 4ff0 	stmdb	sp!, {r4, r5, r6, r7, r8, r9, sl, fp, lr}
  4047aa:	898b      	ldrh	r3, [r1, #12]
  4047ac:	b083      	sub	sp, #12
  4047ae:	460c      	mov	r4, r1
  4047b0:	0719      	lsls	r1, r3, #28
  4047b2:	9000      	str	r0, [sp, #0]
  4047b4:	4616      	mov	r6, r2
  4047b6:	d526      	bpl.n	404806 <__sfvwrite_r+0x66>
  4047b8:	6922      	ldr	r2, [r4, #16]
  4047ba:	b322      	cbz	r2, 404806 <__sfvwrite_r+0x66>
  4047bc:	f013 0002 	ands.w	r0, r3, #2
  4047c0:	6835      	ldr	r5, [r6, #0]
  4047c2:	d02c      	beq.n	40481e <__sfvwrite_r+0x7e>
  4047c4:	f04f 0900 	mov.w	r9, #0
  4047c8:	4fb0      	ldr	r7, [pc, #704]	; (404a8c <__sfvwrite_r+0x2ec>)
  4047ca:	46c8      	mov	r8, r9
  4047cc:	46b2      	mov	sl, r6
  4047ce:	45b8      	cmp	r8, r7
  4047d0:	4643      	mov	r3, r8
  4047d2:	464a      	mov	r2, r9
  4047d4:	bf28      	it	cs
  4047d6:	463b      	movcs	r3, r7
  4047d8:	9800      	ldr	r0, [sp, #0]
  4047da:	f1b8 0f00 	cmp.w	r8, #0
  4047de:	d050      	beq.n	404882 <__sfvwrite_r+0xe2>
  4047e0:	69e1      	ldr	r1, [r4, #28]
  4047e2:	6a66      	ldr	r6, [r4, #36]	; 0x24
  4047e4:	47b0      	blx	r6
  4047e6:	2800      	cmp	r0, #0
  4047e8:	dd58      	ble.n	40489c <__sfvwrite_r+0xfc>
  4047ea:	f8da 3008 	ldr.w	r3, [sl, #8]
  4047ee:	1a1b      	subs	r3, r3, r0
  4047f0:	4481      	add	r9, r0
  4047f2:	eba8 0800 	sub.w	r8, r8, r0
  4047f6:	f8ca 3008 	str.w	r3, [sl, #8]
  4047fa:	2b00      	cmp	r3, #0
  4047fc:	d1e7      	bne.n	4047ce <__sfvwrite_r+0x2e>
  4047fe:	2000      	movs	r0, #0
  404800:	b003      	add	sp, #12
  404802:	e8bd 8ff0 	ldmia.w	sp!, {r4, r5, r6, r7, r8, r9, sl, fp, pc}
  404806:	4621      	mov	r1, r4
  404808:	9800      	ldr	r0, [sp, #0]
  40480a:	f7ff fc51 	bl	4040b0 <__swsetup_r>
  40480e:	2800      	cmp	r0, #0
  404810:	f040 8133 	bne.w	404a7a <__sfvwrite_r+0x2da>
  404814:	89a3      	ldrh	r3, [r4, #12]
  404816:	6835      	ldr	r5, [r6, #0]
  404818:	f013 0002 	ands.w	r0, r3, #2
  40481c:	d1d2      	bne.n	4047c4 <__sfvwrite_r+0x24>
  40481e:	f013 0901 	ands.w	r9, r3, #1
  404822:	d145      	bne.n	4048b0 <__sfvwrite_r+0x110>
  404824:	464f      	mov	r7, r9
  404826:	9601      	str	r6, [sp, #4]
  404828:	b337      	cbz	r7, 404878 <__sfvwrite_r+0xd8>
  40482a:	059a      	lsls	r2, r3, #22
  40482c:	f8d4 8008 	ldr.w	r8, [r4, #8]
  404830:	f140 8083 	bpl.w	40493a <__sfvwrite_r+0x19a>
  404834:	4547      	cmp	r7, r8
  404836:	46c3      	mov	fp, r8
  404838:	f0c0 80ab 	bcc.w	404992 <__sfvwrite_r+0x1f2>
  40483c:	f413 6f90 	tst.w	r3, #1152	; 0x480
  404840:	f040 80ac 	bne.w	40499c <__sfvwrite_r+0x1fc>
  404844:	6820      	ldr	r0, [r4, #0]
  404846:	46ba      	mov	sl, r7
  404848:	465a      	mov	r2, fp
  40484a:	4649      	mov	r1, r9
  40484c:	f000 fcf8 	bl	405240 <memmove>
  404850:	68a2      	ldr	r2, [r4, #8]
  404852:	6823      	ldr	r3, [r4, #0]
  404854:	eba2 0208 	sub.w	r2, r2, r8
  404858:	445b      	add	r3, fp
  40485a:	60a2      	str	r2, [r4, #8]
  40485c:	6023      	str	r3, [r4, #0]
  40485e:	9a01      	ldr	r2, [sp, #4]
  404860:	6893      	ldr	r3, [r2, #8]
  404862:	eba3 030a 	sub.w	r3, r3, sl
  404866:	44d1      	add	r9, sl
  404868:	eba7 070a 	sub.w	r7, r7, sl
  40486c:	6093      	str	r3, [r2, #8]
  40486e:	2b00      	cmp	r3, #0
  404870:	d0c5      	beq.n	4047fe <__sfvwrite_r+0x5e>
  404872:	89a3      	ldrh	r3, [r4, #12]
  404874:	2f00      	cmp	r7, #0
  404876:	d1d8      	bne.n	40482a <__sfvwrite_r+0x8a>
  404878:	f8d5 9000 	ldr.w	r9, [r5]
  40487c:	686f      	ldr	r7, [r5, #4]
  40487e:	3508      	adds	r5, #8
  404880:	e7d2      	b.n	404828 <__sfvwrite_r+0x88>
  404882:	f8d5 9000 	ldr.w	r9, [r5]
  404886:	f8d5 8004 	ldr.w	r8, [r5, #4]
  40488a:	3508      	adds	r5, #8
  40488c:	e79f      	b.n	4047ce <__sfvwrite_r+0x2e>
  40488e:	2000      	movs	r0, #0
  404890:	4770      	bx	lr
  404892:	4621      	mov	r1, r4
  404894:	9800      	ldr	r0, [sp, #0]
  404896:	f7ff fd1f 	bl	4042d8 <_fflush_r>
  40489a:	b370      	cbz	r0, 4048fa <__sfvwrite_r+0x15a>
  40489c:	f9b4 300c 	ldrsh.w	r3, [r4, #12]
  4048a0:	f043 0340 	orr.w	r3, r3, #64	; 0x40
  4048a4:	f04f 30ff 	mov.w	r0, #4294967295
  4048a8:	81a3      	strh	r3, [r4, #12]
  4048aa:	b003      	add	sp, #12
  4048ac:	e8bd 8ff0 	ldmia.w	sp!, {r4, r5, r6, r7, r8, r9, sl, fp, pc}
  4048b0:	4681      	mov	r9, r0
  4048b2:	4633      	mov	r3, r6
  4048b4:	464e      	mov	r6, r9
  4048b6:	46a8      	mov	r8, r5
  4048b8:	469a      	mov	sl, r3
  4048ba:	464d      	mov	r5, r9
  4048bc:	b34e      	cbz	r6, 404912 <__sfvwrite_r+0x172>
  4048be:	b380      	cbz	r0, 404922 <__sfvwrite_r+0x182>
  4048c0:	6820      	ldr	r0, [r4, #0]
  4048c2:	6923      	ldr	r3, [r4, #16]
  4048c4:	6962      	ldr	r2, [r4, #20]
  4048c6:	45b1      	cmp	r9, r6
  4048c8:	46cb      	mov	fp, r9
  4048ca:	bf28      	it	cs
  4048cc:	46b3      	movcs	fp, r6
  4048ce:	4298      	cmp	r0, r3
  4048d0:	465f      	mov	r7, fp
  4048d2:	d904      	bls.n	4048de <__sfvwrite_r+0x13e>
  4048d4:	68a3      	ldr	r3, [r4, #8]
  4048d6:	4413      	add	r3, r2
  4048d8:	459b      	cmp	fp, r3
  4048da:	f300 80a6 	bgt.w	404a2a <__sfvwrite_r+0x28a>
  4048de:	4593      	cmp	fp, r2
  4048e0:	db4b      	blt.n	40497a <__sfvwrite_r+0x1da>
  4048e2:	4613      	mov	r3, r2
  4048e4:	6a67      	ldr	r7, [r4, #36]	; 0x24
  4048e6:	69e1      	ldr	r1, [r4, #28]
  4048e8:	9800      	ldr	r0, [sp, #0]
  4048ea:	462a      	mov	r2, r5
  4048ec:	47b8      	blx	r7
  4048ee:	1e07      	subs	r7, r0, #0
  4048f0:	ddd4      	ble.n	40489c <__sfvwrite_r+0xfc>
  4048f2:	ebb9 0907 	subs.w	r9, r9, r7
  4048f6:	d0cc      	beq.n	404892 <__sfvwrite_r+0xf2>
  4048f8:	2001      	movs	r0, #1
  4048fa:	f8da 3008 	ldr.w	r3, [sl, #8]
  4048fe:	1bdb      	subs	r3, r3, r7
  404900:	443d      	add	r5, r7
  404902:	1bf6      	subs	r6, r6, r7
  404904:	f8ca 3008 	str.w	r3, [sl, #8]
  404908:	2b00      	cmp	r3, #0
  40490a:	f43f af78 	beq.w	4047fe <__sfvwrite_r+0x5e>
  40490e:	2e00      	cmp	r6, #0
  404910:	d1d5      	bne.n	4048be <__sfvwrite_r+0x11e>
  404912:	f108 0308 	add.w	r3, r8, #8
  404916:	e913 0060 	ldmdb	r3, {r5, r6}
  40491a:	4698      	mov	r8, r3
  40491c:	3308      	adds	r3, #8
  40491e:	2e00      	cmp	r6, #0
  404920:	d0f9      	beq.n	404916 <__sfvwrite_r+0x176>
  404922:	4632      	mov	r2, r6
  404924:	210a      	movs	r1, #10
  404926:	4628      	mov	r0, r5
  404928:	f000 fc3a 	bl	4051a0 <memchr>
  40492c:	2800      	cmp	r0, #0
  40492e:	f000 80a1 	beq.w	404a74 <__sfvwrite_r+0x2d4>
  404932:	3001      	adds	r0, #1
  404934:	eba0 0905 	sub.w	r9, r0, r5
  404938:	e7c2      	b.n	4048c0 <__sfvwrite_r+0x120>
  40493a:	6820      	ldr	r0, [r4, #0]
  40493c:	6923      	ldr	r3, [r4, #16]
  40493e:	4298      	cmp	r0, r3
  404940:	d802      	bhi.n	404948 <__sfvwrite_r+0x1a8>
  404942:	6963      	ldr	r3, [r4, #20]
  404944:	429f      	cmp	r7, r3
  404946:	d25d      	bcs.n	404a04 <__sfvwrite_r+0x264>
  404948:	45b8      	cmp	r8, r7
  40494a:	bf28      	it	cs
  40494c:	46b8      	movcs	r8, r7
  40494e:	4642      	mov	r2, r8
  404950:	4649      	mov	r1, r9
  404952:	f000 fc75 	bl	405240 <memmove>
  404956:	68a3      	ldr	r3, [r4, #8]
  404958:	6822      	ldr	r2, [r4, #0]
  40495a:	eba3 0308 	sub.w	r3, r3, r8
  40495e:	4442      	add	r2, r8
  404960:	60a3      	str	r3, [r4, #8]
  404962:	6022      	str	r2, [r4, #0]
  404964:	b10b      	cbz	r3, 40496a <__sfvwrite_r+0x1ca>
  404966:	46c2      	mov	sl, r8
  404968:	e779      	b.n	40485e <__sfvwrite_r+0xbe>
  40496a:	4621      	mov	r1, r4
  40496c:	9800      	ldr	r0, [sp, #0]
  40496e:	f7ff fcb3 	bl	4042d8 <_fflush_r>
  404972:	2800      	cmp	r0, #0
  404974:	d192      	bne.n	40489c <__sfvwrite_r+0xfc>
  404976:	46c2      	mov	sl, r8
  404978:	e771      	b.n	40485e <__sfvwrite_r+0xbe>
  40497a:	465a      	mov	r2, fp
  40497c:	4629      	mov	r1, r5
  40497e:	f000 fc5f 	bl	405240 <memmove>
  404982:	68a2      	ldr	r2, [r4, #8]
  404984:	6823      	ldr	r3, [r4, #0]
  404986:	eba2 020b 	sub.w	r2, r2, fp
  40498a:	445b      	add	r3, fp
  40498c:	60a2      	str	r2, [r4, #8]
  40498e:	6023      	str	r3, [r4, #0]
  404990:	e7af      	b.n	4048f2 <__sfvwrite_r+0x152>
  404992:	6820      	ldr	r0, [r4, #0]
  404994:	46b8      	mov	r8, r7
  404996:	46ba      	mov	sl, r7
  404998:	46bb      	mov	fp, r7
  40499a:	e755      	b.n	404848 <__sfvwrite_r+0xa8>
  40499c:	6962      	ldr	r2, [r4, #20]
  40499e:	6820      	ldr	r0, [r4, #0]
  4049a0:	6921      	ldr	r1, [r4, #16]
  4049a2:	eb02 0842 	add.w	r8, r2, r2, lsl #1
  4049a6:	eba0 0a01 	sub.w	sl, r0, r1
  4049aa:	eb08 78d8 	add.w	r8, r8, r8, lsr #31
  4049ae:	f10a 0001 	add.w	r0, sl, #1
  4049b2:	ea4f 0868 	mov.w	r8, r8, asr #1
  4049b6:	4438      	add	r0, r7
  4049b8:	4540      	cmp	r0, r8
  4049ba:	4642      	mov	r2, r8
  4049bc:	bf84      	itt	hi
  4049be:	4680      	movhi	r8, r0
  4049c0:	4642      	movhi	r2, r8
  4049c2:	055b      	lsls	r3, r3, #21
  4049c4:	d544      	bpl.n	404a50 <__sfvwrite_r+0x2b0>
  4049c6:	4611      	mov	r1, r2
  4049c8:	9800      	ldr	r0, [sp, #0]
  4049ca:	f000 f921 	bl	404c10 <_malloc_r>
  4049ce:	4683      	mov	fp, r0
  4049d0:	2800      	cmp	r0, #0
  4049d2:	d055      	beq.n	404a80 <__sfvwrite_r+0x2e0>
  4049d4:	4652      	mov	r2, sl
  4049d6:	6921      	ldr	r1, [r4, #16]
  4049d8:	f7fe fa10 	bl	402dfc <memcpy>
  4049dc:	89a3      	ldrh	r3, [r4, #12]
  4049de:	f423 6390 	bic.w	r3, r3, #1152	; 0x480
  4049e2:	f043 0380 	orr.w	r3, r3, #128	; 0x80
  4049e6:	81a3      	strh	r3, [r4, #12]
  4049e8:	eb0b 000a 	add.w	r0, fp, sl
  4049ec:	eba8 030a 	sub.w	r3, r8, sl
  4049f0:	f8c4 b010 	str.w	fp, [r4, #16]
  4049f4:	f8c4 8014 	str.w	r8, [r4, #20]
  4049f8:	6020      	str	r0, [r4, #0]
  4049fa:	60a3      	str	r3, [r4, #8]
  4049fc:	46b8      	mov	r8, r7
  4049fe:	46ba      	mov	sl, r7
  404a00:	46bb      	mov	fp, r7
  404a02:	e721      	b.n	404848 <__sfvwrite_r+0xa8>
  404a04:	f06f 4100 	mvn.w	r1, #2147483648	; 0x80000000
  404a08:	42b9      	cmp	r1, r7
  404a0a:	bf28      	it	cs
  404a0c:	4639      	movcs	r1, r7
  404a0e:	464a      	mov	r2, r9
  404a10:	fb91 f1f3 	sdiv	r1, r1, r3
  404a14:	9800      	ldr	r0, [sp, #0]
  404a16:	6a66      	ldr	r6, [r4, #36]	; 0x24
  404a18:	fb03 f301 	mul.w	r3, r3, r1
  404a1c:	69e1      	ldr	r1, [r4, #28]
  404a1e:	47b0      	blx	r6
  404a20:	f1b0 0a00 	subs.w	sl, r0, #0
  404a24:	f73f af1b 	bgt.w	40485e <__sfvwrite_r+0xbe>
  404a28:	e738      	b.n	40489c <__sfvwrite_r+0xfc>
  404a2a:	461a      	mov	r2, r3
  404a2c:	4629      	mov	r1, r5
  404a2e:	9301      	str	r3, [sp, #4]
  404a30:	f000 fc06 	bl	405240 <memmove>
  404a34:	6822      	ldr	r2, [r4, #0]
  404a36:	9b01      	ldr	r3, [sp, #4]
  404a38:	9800      	ldr	r0, [sp, #0]
  404a3a:	441a      	add	r2, r3
  404a3c:	6022      	str	r2, [r4, #0]
  404a3e:	4621      	mov	r1, r4
  404a40:	f7ff fc4a 	bl	4042d8 <_fflush_r>
  404a44:	9b01      	ldr	r3, [sp, #4]
  404a46:	2800      	cmp	r0, #0
  404a48:	f47f af28 	bne.w	40489c <__sfvwrite_r+0xfc>
  404a4c:	461f      	mov	r7, r3
  404a4e:	e750      	b.n	4048f2 <__sfvwrite_r+0x152>
  404a50:	9800      	ldr	r0, [sp, #0]
  404a52:	f000 fc65 	bl	405320 <_realloc_r>
  404a56:	4683      	mov	fp, r0
  404a58:	2800      	cmp	r0, #0
  404a5a:	d1c5      	bne.n	4049e8 <__sfvwrite_r+0x248>
  404a5c:	9d00      	ldr	r5, [sp, #0]
  404a5e:	6921      	ldr	r1, [r4, #16]
  404a60:	4628      	mov	r0, r5
  404a62:	f7ff fdb7 	bl	4045d4 <_free_r>
  404a66:	f9b4 300c 	ldrsh.w	r3, [r4, #12]
  404a6a:	220c      	movs	r2, #12
  404a6c:	f023 0380 	bic.w	r3, r3, #128	; 0x80
  404a70:	602a      	str	r2, [r5, #0]
  404a72:	e715      	b.n	4048a0 <__sfvwrite_r+0x100>
  404a74:	f106 0901 	add.w	r9, r6, #1
  404a78:	e722      	b.n	4048c0 <__sfvwrite_r+0x120>
  404a7a:	f04f 30ff 	mov.w	r0, #4294967295
  404a7e:	e6bf      	b.n	404800 <__sfvwrite_r+0x60>
  404a80:	9a00      	ldr	r2, [sp, #0]
  404a82:	230c      	movs	r3, #12
  404a84:	6013      	str	r3, [r2, #0]
  404a86:	f9b4 300c 	ldrsh.w	r3, [r4, #12]
  404a8a:	e709      	b.n	4048a0 <__sfvwrite_r+0x100>
  404a8c:	7ffffc00 	.word	0x7ffffc00

00404a90 <_fwalk_reent>:
  404a90:	e92d 43f8 	stmdb	sp!, {r3, r4, r5, r6, r7, r8, r9, lr}
  404a94:	f510 7738 	adds.w	r7, r0, #736	; 0x2e0
  404a98:	d01f      	beq.n	404ada <_fwalk_reent+0x4a>
  404a9a:	4688      	mov	r8, r1
  404a9c:	4606      	mov	r6, r0
  404a9e:	f04f 0900 	mov.w	r9, #0
  404aa2:	687d      	ldr	r5, [r7, #4]
  404aa4:	68bc      	ldr	r4, [r7, #8]
  404aa6:	3d01      	subs	r5, #1
  404aa8:	d411      	bmi.n	404ace <_fwalk_reent+0x3e>
  404aaa:	89a3      	ldrh	r3, [r4, #12]
  404aac:	2b01      	cmp	r3, #1
  404aae:	f105 35ff 	add.w	r5, r5, #4294967295
  404ab2:	d908      	bls.n	404ac6 <_fwalk_reent+0x36>
  404ab4:	f9b4 300e 	ldrsh.w	r3, [r4, #14]
  404ab8:	3301      	adds	r3, #1
  404aba:	4621      	mov	r1, r4
  404abc:	4630      	mov	r0, r6
  404abe:	d002      	beq.n	404ac6 <_fwalk_reent+0x36>
  404ac0:	47c0      	blx	r8
  404ac2:	ea49 0900 	orr.w	r9, r9, r0
  404ac6:	1c6b      	adds	r3, r5, #1
  404ac8:	f104 0468 	add.w	r4, r4, #104	; 0x68
  404acc:	d1ed      	bne.n	404aaa <_fwalk_reent+0x1a>
  404ace:	683f      	ldr	r7, [r7, #0]
  404ad0:	2f00      	cmp	r7, #0
  404ad2:	d1e6      	bne.n	404aa2 <_fwalk_reent+0x12>
  404ad4:	4648      	mov	r0, r9
  404ad6:	e8bd 83f8 	ldmia.w	sp!, {r3, r4, r5, r6, r7, r8, r9, pc}
  404ada:	46b9      	mov	r9, r7
  404adc:	4648      	mov	r0, r9
  404ade:	e8bd 83f8 	ldmia.w	sp!, {r3, r4, r5, r6, r7, r8, r9, pc}
  404ae2:	bf00      	nop

00404ae4 <__locale_mb_cur_max>:
  404ae4:	4b04      	ldr	r3, [pc, #16]	; (404af8 <__locale_mb_cur_max+0x14>)
  404ae6:	4a05      	ldr	r2, [pc, #20]	; (404afc <__locale_mb_cur_max+0x18>)
  404ae8:	681b      	ldr	r3, [r3, #0]
  404aea:	6b5b      	ldr	r3, [r3, #52]	; 0x34
  404aec:	2b00      	cmp	r3, #0
  404aee:	bf08      	it	eq
  404af0:	4613      	moveq	r3, r2
  404af2:	f893 0128 	ldrb.w	r0, [r3, #296]	; 0x128
  404af6:	4770      	bx	lr
  404af8:	2040002c 	.word	0x2040002c
  404afc:	2040045c 	.word	0x2040045c

00404b00 <__retarget_lock_init_recursive>:
  404b00:	4770      	bx	lr
  404b02:	bf00      	nop

00404b04 <__retarget_lock_close_recursive>:
  404b04:	4770      	bx	lr
  404b06:	bf00      	nop

00404b08 <__retarget_lock_acquire_recursive>:
  404b08:	4770      	bx	lr
  404b0a:	bf00      	nop

00404b0c <__retarget_lock_release_recursive>:
  404b0c:	4770      	bx	lr
  404b0e:	bf00      	nop

00404b10 <__swhatbuf_r>:
  404b10:	b570      	push	{r4, r5, r6, lr}
  404b12:	460c      	mov	r4, r1
  404b14:	f9b1 100e 	ldrsh.w	r1, [r1, #14]
  404b18:	2900      	cmp	r1, #0
  404b1a:	b090      	sub	sp, #64	; 0x40
  404b1c:	4615      	mov	r5, r2
  404b1e:	461e      	mov	r6, r3
  404b20:	db14      	blt.n	404b4c <__swhatbuf_r+0x3c>
  404b22:	aa01      	add	r2, sp, #4
  404b24:	f000 ff74 	bl	405a10 <_fstat_r>
  404b28:	2800      	cmp	r0, #0
  404b2a:	db0f      	blt.n	404b4c <__swhatbuf_r+0x3c>
  404b2c:	9a02      	ldr	r2, [sp, #8]
  404b2e:	f402 4270 	and.w	r2, r2, #61440	; 0xf000
  404b32:	f5a2 5200 	sub.w	r2, r2, #8192	; 0x2000
  404b36:	fab2 f282 	clz	r2, r2
  404b3a:	0952      	lsrs	r2, r2, #5
  404b3c:	f44f 6380 	mov.w	r3, #1024	; 0x400
  404b40:	f44f 6000 	mov.w	r0, #2048	; 0x800
  404b44:	6032      	str	r2, [r6, #0]
  404b46:	602b      	str	r3, [r5, #0]
  404b48:	b010      	add	sp, #64	; 0x40
  404b4a:	bd70      	pop	{r4, r5, r6, pc}
  404b4c:	89a2      	ldrh	r2, [r4, #12]
  404b4e:	2300      	movs	r3, #0
  404b50:	f012 0080 	ands.w	r0, r2, #128	; 0x80
  404b54:	6033      	str	r3, [r6, #0]
  404b56:	d004      	beq.n	404b62 <__swhatbuf_r+0x52>
  404b58:	2240      	movs	r2, #64	; 0x40
  404b5a:	4618      	mov	r0, r3
  404b5c:	602a      	str	r2, [r5, #0]
  404b5e:	b010      	add	sp, #64	; 0x40
  404b60:	bd70      	pop	{r4, r5, r6, pc}
  404b62:	f44f 6380 	mov.w	r3, #1024	; 0x400
  404b66:	602b      	str	r3, [r5, #0]
  404b68:	b010      	add	sp, #64	; 0x40
  404b6a:	bd70      	pop	{r4, r5, r6, pc}

00404b6c <__smakebuf_r>:
  404b6c:	898a      	ldrh	r2, [r1, #12]
  404b6e:	0792      	lsls	r2, r2, #30
  404b70:	460b      	mov	r3, r1
  404b72:	d506      	bpl.n	404b82 <__smakebuf_r+0x16>
  404b74:	f101 0243 	add.w	r2, r1, #67	; 0x43
  404b78:	2101      	movs	r1, #1
  404b7a:	601a      	str	r2, [r3, #0]
  404b7c:	611a      	str	r2, [r3, #16]
  404b7e:	6159      	str	r1, [r3, #20]
  404b80:	4770      	bx	lr
  404b82:	b5f0      	push	{r4, r5, r6, r7, lr}
  404b84:	b083      	sub	sp, #12
  404b86:	ab01      	add	r3, sp, #4
  404b88:	466a      	mov	r2, sp
  404b8a:	460c      	mov	r4, r1
  404b8c:	4606      	mov	r6, r0
  404b8e:	f7ff ffbf 	bl	404b10 <__swhatbuf_r>
  404b92:	9900      	ldr	r1, [sp, #0]
  404b94:	4605      	mov	r5, r0
  404b96:	4630      	mov	r0, r6
  404b98:	f000 f83a 	bl	404c10 <_malloc_r>
  404b9c:	f9b4 300c 	ldrsh.w	r3, [r4, #12]
  404ba0:	b1d8      	cbz	r0, 404bda <__smakebuf_r+0x6e>
  404ba2:	9a01      	ldr	r2, [sp, #4]
  404ba4:	4f15      	ldr	r7, [pc, #84]	; (404bfc <__smakebuf_r+0x90>)
  404ba6:	9900      	ldr	r1, [sp, #0]
  404ba8:	63f7      	str	r7, [r6, #60]	; 0x3c
  404baa:	f043 0380 	orr.w	r3, r3, #128	; 0x80
  404bae:	81a3      	strh	r3, [r4, #12]
  404bb0:	6020      	str	r0, [r4, #0]
  404bb2:	6120      	str	r0, [r4, #16]
  404bb4:	6161      	str	r1, [r4, #20]
  404bb6:	b91a      	cbnz	r2, 404bc0 <__smakebuf_r+0x54>
  404bb8:	432b      	orrs	r3, r5
  404bba:	81a3      	strh	r3, [r4, #12]
  404bbc:	b003      	add	sp, #12
  404bbe:	bdf0      	pop	{r4, r5, r6, r7, pc}
  404bc0:	4630      	mov	r0, r6
  404bc2:	f9b4 100e 	ldrsh.w	r1, [r4, #14]
  404bc6:	f000 ff37 	bl	405a38 <_isatty_r>
  404bca:	b1a0      	cbz	r0, 404bf6 <__smakebuf_r+0x8a>
  404bcc:	89a3      	ldrh	r3, [r4, #12]
  404bce:	f023 0303 	bic.w	r3, r3, #3
  404bd2:	f043 0301 	orr.w	r3, r3, #1
  404bd6:	b21b      	sxth	r3, r3
  404bd8:	e7ee      	b.n	404bb8 <__smakebuf_r+0x4c>
  404bda:	059a      	lsls	r2, r3, #22
  404bdc:	d4ee      	bmi.n	404bbc <__smakebuf_r+0x50>
  404bde:	f023 0303 	bic.w	r3, r3, #3
  404be2:	f104 0243 	add.w	r2, r4, #67	; 0x43
  404be6:	f043 0302 	orr.w	r3, r3, #2
  404bea:	2101      	movs	r1, #1
  404bec:	81a3      	strh	r3, [r4, #12]
  404bee:	6022      	str	r2, [r4, #0]
  404bf0:	6122      	str	r2, [r4, #16]
  404bf2:	6161      	str	r1, [r4, #20]
  404bf4:	e7e2      	b.n	404bbc <__smakebuf_r+0x50>
  404bf6:	f9b4 300c 	ldrsh.w	r3, [r4, #12]
  404bfa:	e7dd      	b.n	404bb8 <__smakebuf_r+0x4c>
  404bfc:	0040432d 	.word	0x0040432d

00404c00 <malloc>:
  404c00:	4b02      	ldr	r3, [pc, #8]	; (404c0c <malloc+0xc>)
  404c02:	4601      	mov	r1, r0
  404c04:	6818      	ldr	r0, [r3, #0]
  404c06:	f000 b803 	b.w	404c10 <_malloc_r>
  404c0a:	bf00      	nop
  404c0c:	2040002c 	.word	0x2040002c

00404c10 <_malloc_r>:
  404c10:	e92d 4ff0 	stmdb	sp!, {r4, r5, r6, r7, r8, r9, sl, fp, lr}
  404c14:	f101 060b 	add.w	r6, r1, #11
  404c18:	2e16      	cmp	r6, #22
  404c1a:	b083      	sub	sp, #12
  404c1c:	4605      	mov	r5, r0
  404c1e:	f240 809e 	bls.w	404d5e <_malloc_r+0x14e>
  404c22:	f036 0607 	bics.w	r6, r6, #7
  404c26:	f100 80bd 	bmi.w	404da4 <_malloc_r+0x194>
  404c2a:	42b1      	cmp	r1, r6
  404c2c:	f200 80ba 	bhi.w	404da4 <_malloc_r+0x194>
  404c30:	f000 fb6a 	bl	405308 <__malloc_lock>
  404c34:	f5b6 7ffc 	cmp.w	r6, #504	; 0x1f8
  404c38:	f0c0 8293 	bcc.w	405162 <_malloc_r+0x552>
  404c3c:	0a73      	lsrs	r3, r6, #9
  404c3e:	f000 80b8 	beq.w	404db2 <_malloc_r+0x1a2>
  404c42:	2b04      	cmp	r3, #4
  404c44:	f200 8179 	bhi.w	404f3a <_malloc_r+0x32a>
  404c48:	09b3      	lsrs	r3, r6, #6
  404c4a:	f103 0039 	add.w	r0, r3, #57	; 0x39
  404c4e:	f103 0e38 	add.w	lr, r3, #56	; 0x38
  404c52:	00c3      	lsls	r3, r0, #3
  404c54:	4fbf      	ldr	r7, [pc, #764]	; (404f54 <_malloc_r+0x344>)
  404c56:	443b      	add	r3, r7
  404c58:	f1a3 0108 	sub.w	r1, r3, #8
  404c5c:	685c      	ldr	r4, [r3, #4]
  404c5e:	42a1      	cmp	r1, r4
  404c60:	d106      	bne.n	404c70 <_malloc_r+0x60>
  404c62:	e00c      	b.n	404c7e <_malloc_r+0x6e>
  404c64:	2a00      	cmp	r2, #0
  404c66:	f280 80aa 	bge.w	404dbe <_malloc_r+0x1ae>
  404c6a:	68e4      	ldr	r4, [r4, #12]
  404c6c:	42a1      	cmp	r1, r4
  404c6e:	d006      	beq.n	404c7e <_malloc_r+0x6e>
  404c70:	6863      	ldr	r3, [r4, #4]
  404c72:	f023 0303 	bic.w	r3, r3, #3
  404c76:	1b9a      	subs	r2, r3, r6
  404c78:	2a0f      	cmp	r2, #15
  404c7a:	ddf3      	ble.n	404c64 <_malloc_r+0x54>
  404c7c:	4670      	mov	r0, lr
  404c7e:	693c      	ldr	r4, [r7, #16]
  404c80:	f8df e2e4 	ldr.w	lr, [pc, #740]	; 404f68 <_malloc_r+0x358>
  404c84:	4574      	cmp	r4, lr
  404c86:	f000 81ab 	beq.w	404fe0 <_malloc_r+0x3d0>
  404c8a:	6863      	ldr	r3, [r4, #4]
  404c8c:	f023 0303 	bic.w	r3, r3, #3
  404c90:	1b9a      	subs	r2, r3, r6
  404c92:	2a0f      	cmp	r2, #15
  404c94:	f300 8190 	bgt.w	404fb8 <_malloc_r+0x3a8>
  404c98:	2a00      	cmp	r2, #0
  404c9a:	f8c7 e014 	str.w	lr, [r7, #20]
  404c9e:	f8c7 e010 	str.w	lr, [r7, #16]
  404ca2:	f280 809d 	bge.w	404de0 <_malloc_r+0x1d0>
  404ca6:	f5b3 7f00 	cmp.w	r3, #512	; 0x200
  404caa:	f080 8161 	bcs.w	404f70 <_malloc_r+0x360>
  404cae:	08db      	lsrs	r3, r3, #3
  404cb0:	f103 0c01 	add.w	ip, r3, #1
  404cb4:	1099      	asrs	r1, r3, #2
  404cb6:	687a      	ldr	r2, [r7, #4]
  404cb8:	f857 803c 	ldr.w	r8, [r7, ip, lsl #3]
  404cbc:	f8c4 8008 	str.w	r8, [r4, #8]
  404cc0:	2301      	movs	r3, #1
  404cc2:	408b      	lsls	r3, r1
  404cc4:	eb07 01cc 	add.w	r1, r7, ip, lsl #3
  404cc8:	4313      	orrs	r3, r2
  404cca:	3908      	subs	r1, #8
  404ccc:	60e1      	str	r1, [r4, #12]
  404cce:	607b      	str	r3, [r7, #4]
  404cd0:	f847 403c 	str.w	r4, [r7, ip, lsl #3]
  404cd4:	f8c8 400c 	str.w	r4, [r8, #12]
  404cd8:	1082      	asrs	r2, r0, #2
  404cda:	2401      	movs	r4, #1
  404cdc:	4094      	lsls	r4, r2
  404cde:	429c      	cmp	r4, r3
  404ce0:	f200 808b 	bhi.w	404dfa <_malloc_r+0x1ea>
  404ce4:	421c      	tst	r4, r3
  404ce6:	d106      	bne.n	404cf6 <_malloc_r+0xe6>
  404ce8:	f020 0003 	bic.w	r0, r0, #3
  404cec:	0064      	lsls	r4, r4, #1
  404cee:	421c      	tst	r4, r3
  404cf0:	f100 0004 	add.w	r0, r0, #4
  404cf4:	d0fa      	beq.n	404cec <_malloc_r+0xdc>
  404cf6:	eb07 09c0 	add.w	r9, r7, r0, lsl #3
  404cfa:	46cc      	mov	ip, r9
  404cfc:	4680      	mov	r8, r0
  404cfe:	f8dc 300c 	ldr.w	r3, [ip, #12]
  404d02:	459c      	cmp	ip, r3
  404d04:	d107      	bne.n	404d16 <_malloc_r+0x106>
  404d06:	e16d      	b.n	404fe4 <_malloc_r+0x3d4>
  404d08:	2a00      	cmp	r2, #0
  404d0a:	f280 817b 	bge.w	405004 <_malloc_r+0x3f4>
  404d0e:	68db      	ldr	r3, [r3, #12]
  404d10:	459c      	cmp	ip, r3
  404d12:	f000 8167 	beq.w	404fe4 <_malloc_r+0x3d4>
  404d16:	6859      	ldr	r1, [r3, #4]
  404d18:	f021 0103 	bic.w	r1, r1, #3
  404d1c:	1b8a      	subs	r2, r1, r6
  404d1e:	2a0f      	cmp	r2, #15
  404d20:	ddf2      	ble.n	404d08 <_malloc_r+0xf8>
  404d22:	f8d3 c00c 	ldr.w	ip, [r3, #12]
  404d26:	f8d3 8008 	ldr.w	r8, [r3, #8]
  404d2a:	9300      	str	r3, [sp, #0]
  404d2c:	199c      	adds	r4, r3, r6
  404d2e:	4628      	mov	r0, r5
  404d30:	f046 0601 	orr.w	r6, r6, #1
  404d34:	f042 0501 	orr.w	r5, r2, #1
  404d38:	605e      	str	r6, [r3, #4]
  404d3a:	f8c8 c00c 	str.w	ip, [r8, #12]
  404d3e:	f8cc 8008 	str.w	r8, [ip, #8]
  404d42:	617c      	str	r4, [r7, #20]
  404d44:	613c      	str	r4, [r7, #16]
  404d46:	f8c4 e00c 	str.w	lr, [r4, #12]
  404d4a:	f8c4 e008 	str.w	lr, [r4, #8]
  404d4e:	6065      	str	r5, [r4, #4]
  404d50:	505a      	str	r2, [r3, r1]
  404d52:	f000 fadf 	bl	405314 <__malloc_unlock>
  404d56:	9b00      	ldr	r3, [sp, #0]
  404d58:	f103 0408 	add.w	r4, r3, #8
  404d5c:	e01e      	b.n	404d9c <_malloc_r+0x18c>
  404d5e:	2910      	cmp	r1, #16
  404d60:	d820      	bhi.n	404da4 <_malloc_r+0x194>
  404d62:	f000 fad1 	bl	405308 <__malloc_lock>
  404d66:	2610      	movs	r6, #16
  404d68:	2318      	movs	r3, #24
  404d6a:	2002      	movs	r0, #2
  404d6c:	4f79      	ldr	r7, [pc, #484]	; (404f54 <_malloc_r+0x344>)
  404d6e:	443b      	add	r3, r7
  404d70:	f1a3 0208 	sub.w	r2, r3, #8
  404d74:	685c      	ldr	r4, [r3, #4]
  404d76:	4294      	cmp	r4, r2
  404d78:	f000 813d 	beq.w	404ff6 <_malloc_r+0x3e6>
  404d7c:	6863      	ldr	r3, [r4, #4]
  404d7e:	68e1      	ldr	r1, [r4, #12]
  404d80:	68a6      	ldr	r6, [r4, #8]
  404d82:	f023 0303 	bic.w	r3, r3, #3
  404d86:	4423      	add	r3, r4
  404d88:	4628      	mov	r0, r5
  404d8a:	685a      	ldr	r2, [r3, #4]
  404d8c:	60f1      	str	r1, [r6, #12]
  404d8e:	f042 0201 	orr.w	r2, r2, #1
  404d92:	608e      	str	r6, [r1, #8]
  404d94:	605a      	str	r2, [r3, #4]
  404d96:	f000 fabd 	bl	405314 <__malloc_unlock>
  404d9a:	3408      	adds	r4, #8
  404d9c:	4620      	mov	r0, r4
  404d9e:	b003      	add	sp, #12
  404da0:	e8bd 8ff0 	ldmia.w	sp!, {r4, r5, r6, r7, r8, r9, sl, fp, pc}
  404da4:	2400      	movs	r4, #0
  404da6:	230c      	movs	r3, #12
  404da8:	4620      	mov	r0, r4
  404daa:	602b      	str	r3, [r5, #0]
  404dac:	b003      	add	sp, #12
  404dae:	e8bd 8ff0 	ldmia.w	sp!, {r4, r5, r6, r7, r8, r9, sl, fp, pc}
  404db2:	2040      	movs	r0, #64	; 0x40
  404db4:	f44f 7300 	mov.w	r3, #512	; 0x200
  404db8:	f04f 0e3f 	mov.w	lr, #63	; 0x3f
  404dbc:	e74a      	b.n	404c54 <_malloc_r+0x44>
  404dbe:	4423      	add	r3, r4
  404dc0:	68e1      	ldr	r1, [r4, #12]
  404dc2:	685a      	ldr	r2, [r3, #4]
  404dc4:	68a6      	ldr	r6, [r4, #8]
  404dc6:	f042 0201 	orr.w	r2, r2, #1
  404dca:	60f1      	str	r1, [r6, #12]
  404dcc:	4628      	mov	r0, r5
  404dce:	608e      	str	r6, [r1, #8]
  404dd0:	605a      	str	r2, [r3, #4]
  404dd2:	f000 fa9f 	bl	405314 <__malloc_unlock>
  404dd6:	3408      	adds	r4, #8
  404dd8:	4620      	mov	r0, r4
  404dda:	b003      	add	sp, #12
  404ddc:	e8bd 8ff0 	ldmia.w	sp!, {r4, r5, r6, r7, r8, r9, sl, fp, pc}
  404de0:	4423      	add	r3, r4
  404de2:	4628      	mov	r0, r5
  404de4:	685a      	ldr	r2, [r3, #4]
  404de6:	f042 0201 	orr.w	r2, r2, #1
  404dea:	605a      	str	r2, [r3, #4]
  404dec:	f000 fa92 	bl	405314 <__malloc_unlock>
  404df0:	3408      	adds	r4, #8
  404df2:	4620      	mov	r0, r4
  404df4:	b003      	add	sp, #12
  404df6:	e8bd 8ff0 	ldmia.w	sp!, {r4, r5, r6, r7, r8, r9, sl, fp, pc}
  404dfa:	68bc      	ldr	r4, [r7, #8]
  404dfc:	6863      	ldr	r3, [r4, #4]
  404dfe:	f023 0803 	bic.w	r8, r3, #3
  404e02:	45b0      	cmp	r8, r6
  404e04:	d304      	bcc.n	404e10 <_malloc_r+0x200>
  404e06:	eba8 0306 	sub.w	r3, r8, r6
  404e0a:	2b0f      	cmp	r3, #15
  404e0c:	f300 8085 	bgt.w	404f1a <_malloc_r+0x30a>
  404e10:	f8df 9158 	ldr.w	r9, [pc, #344]	; 404f6c <_malloc_r+0x35c>
  404e14:	4b50      	ldr	r3, [pc, #320]	; (404f58 <_malloc_r+0x348>)
  404e16:	f8d9 2000 	ldr.w	r2, [r9]
  404e1a:	681b      	ldr	r3, [r3, #0]
  404e1c:	3201      	adds	r2, #1
  404e1e:	4433      	add	r3, r6
  404e20:	eb04 0a08 	add.w	sl, r4, r8
  404e24:	f000 8155 	beq.w	4050d2 <_malloc_r+0x4c2>
  404e28:	f503 5380 	add.w	r3, r3, #4096	; 0x1000
  404e2c:	330f      	adds	r3, #15
  404e2e:	f423 6b7f 	bic.w	fp, r3, #4080	; 0xff0
  404e32:	f02b 0b0f 	bic.w	fp, fp, #15
  404e36:	4659      	mov	r1, fp
  404e38:	4628      	mov	r0, r5
  404e3a:	f000 fc17 	bl	40566c <_sbrk_r>
  404e3e:	1c41      	adds	r1, r0, #1
  404e40:	4602      	mov	r2, r0
  404e42:	f000 80fc 	beq.w	40503e <_malloc_r+0x42e>
  404e46:	4582      	cmp	sl, r0
  404e48:	f200 80f7 	bhi.w	40503a <_malloc_r+0x42a>
  404e4c:	4b43      	ldr	r3, [pc, #268]	; (404f5c <_malloc_r+0x34c>)
  404e4e:	6819      	ldr	r1, [r3, #0]
  404e50:	4459      	add	r1, fp
  404e52:	6019      	str	r1, [r3, #0]
  404e54:	f000 814d 	beq.w	4050f2 <_malloc_r+0x4e2>
  404e58:	f8d9 0000 	ldr.w	r0, [r9]
  404e5c:	3001      	adds	r0, #1
  404e5e:	bf1b      	ittet	ne
  404e60:	eba2 0a0a 	subne.w	sl, r2, sl
  404e64:	4451      	addne	r1, sl
  404e66:	f8c9 2000 	streq.w	r2, [r9]
  404e6a:	6019      	strne	r1, [r3, #0]
  404e6c:	f012 0107 	ands.w	r1, r2, #7
  404e70:	f000 8115 	beq.w	40509e <_malloc_r+0x48e>
  404e74:	f1c1 0008 	rsb	r0, r1, #8
  404e78:	f5c1 5180 	rsb	r1, r1, #4096	; 0x1000
  404e7c:	4402      	add	r2, r0
  404e7e:	3108      	adds	r1, #8
  404e80:	eb02 090b 	add.w	r9, r2, fp
  404e84:	f3c9 090b 	ubfx	r9, r9, #0, #12
  404e88:	eba1 0909 	sub.w	r9, r1, r9
  404e8c:	4649      	mov	r1, r9
  404e8e:	4628      	mov	r0, r5
  404e90:	9301      	str	r3, [sp, #4]
  404e92:	9200      	str	r2, [sp, #0]
  404e94:	f000 fbea 	bl	40566c <_sbrk_r>
  404e98:	1c43      	adds	r3, r0, #1
  404e9a:	e89d 000c 	ldmia.w	sp, {r2, r3}
  404e9e:	f000 8143 	beq.w	405128 <_malloc_r+0x518>
  404ea2:	1a80      	subs	r0, r0, r2
  404ea4:	4448      	add	r0, r9
  404ea6:	f040 0001 	orr.w	r0, r0, #1
  404eaa:	6819      	ldr	r1, [r3, #0]
  404eac:	60ba      	str	r2, [r7, #8]
  404eae:	4449      	add	r1, r9
  404eb0:	42bc      	cmp	r4, r7
  404eb2:	6050      	str	r0, [r2, #4]
  404eb4:	6019      	str	r1, [r3, #0]
  404eb6:	d017      	beq.n	404ee8 <_malloc_r+0x2d8>
  404eb8:	f1b8 0f0f 	cmp.w	r8, #15
  404ebc:	f240 80fb 	bls.w	4050b6 <_malloc_r+0x4a6>
  404ec0:	6860      	ldr	r0, [r4, #4]
  404ec2:	f1a8 020c 	sub.w	r2, r8, #12
  404ec6:	f022 0207 	bic.w	r2, r2, #7
  404eca:	eb04 0e02 	add.w	lr, r4, r2
  404ece:	f000 0001 	and.w	r0, r0, #1
  404ed2:	f04f 0c05 	mov.w	ip, #5
  404ed6:	4310      	orrs	r0, r2
  404ed8:	2a0f      	cmp	r2, #15
  404eda:	6060      	str	r0, [r4, #4]
  404edc:	f8ce c004 	str.w	ip, [lr, #4]
  404ee0:	f8ce c008 	str.w	ip, [lr, #8]
  404ee4:	f200 8117 	bhi.w	405116 <_malloc_r+0x506>
  404ee8:	4b1d      	ldr	r3, [pc, #116]	; (404f60 <_malloc_r+0x350>)
  404eea:	68bc      	ldr	r4, [r7, #8]
  404eec:	681a      	ldr	r2, [r3, #0]
  404eee:	4291      	cmp	r1, r2
  404ef0:	bf88      	it	hi
  404ef2:	6019      	strhi	r1, [r3, #0]
  404ef4:	4b1b      	ldr	r3, [pc, #108]	; (404f64 <_malloc_r+0x354>)
  404ef6:	681a      	ldr	r2, [r3, #0]
  404ef8:	4291      	cmp	r1, r2
  404efa:	6862      	ldr	r2, [r4, #4]
  404efc:	bf88      	it	hi
  404efe:	6019      	strhi	r1, [r3, #0]
  404f00:	f022 0203 	bic.w	r2, r2, #3
  404f04:	4296      	cmp	r6, r2
  404f06:	eba2 0306 	sub.w	r3, r2, r6
  404f0a:	d801      	bhi.n	404f10 <_malloc_r+0x300>
  404f0c:	2b0f      	cmp	r3, #15
  404f0e:	dc04      	bgt.n	404f1a <_malloc_r+0x30a>
  404f10:	4628      	mov	r0, r5
  404f12:	f000 f9ff 	bl	405314 <__malloc_unlock>
  404f16:	2400      	movs	r4, #0
  404f18:	e740      	b.n	404d9c <_malloc_r+0x18c>
  404f1a:	19a2      	adds	r2, r4, r6
  404f1c:	f043 0301 	orr.w	r3, r3, #1
  404f20:	f046 0601 	orr.w	r6, r6, #1
  404f24:	6066      	str	r6, [r4, #4]
  404f26:	4628      	mov	r0, r5
  404f28:	60ba      	str	r2, [r7, #8]
  404f2a:	6053      	str	r3, [r2, #4]
  404f2c:	f000 f9f2 	bl	405314 <__malloc_unlock>
  404f30:	3408      	adds	r4, #8
  404f32:	4620      	mov	r0, r4
  404f34:	b003      	add	sp, #12
  404f36:	e8bd 8ff0 	ldmia.w	sp!, {r4, r5, r6, r7, r8, r9, sl, fp, pc}
  404f3a:	2b14      	cmp	r3, #20
  404f3c:	d971      	bls.n	405022 <_malloc_r+0x412>
  404f3e:	2b54      	cmp	r3, #84	; 0x54
  404f40:	f200 80a3 	bhi.w	40508a <_malloc_r+0x47a>
  404f44:	0b33      	lsrs	r3, r6, #12
  404f46:	f103 006f 	add.w	r0, r3, #111	; 0x6f
  404f4a:	f103 0e6e 	add.w	lr, r3, #110	; 0x6e
  404f4e:	00c3      	lsls	r3, r0, #3
  404f50:	e680      	b.n	404c54 <_malloc_r+0x44>
  404f52:	bf00      	nop
  404f54:	204005c8 	.word	0x204005c8
  404f58:	204072d4 	.word	0x204072d4
  404f5c:	204072a4 	.word	0x204072a4
  404f60:	204072cc 	.word	0x204072cc
  404f64:	204072d0 	.word	0x204072d0
  404f68:	204005d0 	.word	0x204005d0
  404f6c:	204009d0 	.word	0x204009d0
  404f70:	0a5a      	lsrs	r2, r3, #9
  404f72:	2a04      	cmp	r2, #4
  404f74:	d95b      	bls.n	40502e <_malloc_r+0x41e>
  404f76:	2a14      	cmp	r2, #20
  404f78:	f200 80ae 	bhi.w	4050d8 <_malloc_r+0x4c8>
  404f7c:	f102 015c 	add.w	r1, r2, #92	; 0x5c
  404f80:	00c9      	lsls	r1, r1, #3
  404f82:	325b      	adds	r2, #91	; 0x5b
  404f84:	eb07 0c01 	add.w	ip, r7, r1
  404f88:	5879      	ldr	r1, [r7, r1]
  404f8a:	f1ac 0c08 	sub.w	ip, ip, #8
  404f8e:	458c      	cmp	ip, r1
  404f90:	f000 8088 	beq.w	4050a4 <_malloc_r+0x494>
  404f94:	684a      	ldr	r2, [r1, #4]
  404f96:	f022 0203 	bic.w	r2, r2, #3
  404f9a:	4293      	cmp	r3, r2
  404f9c:	d273      	bcs.n	405086 <_malloc_r+0x476>
  404f9e:	6889      	ldr	r1, [r1, #8]
  404fa0:	458c      	cmp	ip, r1
  404fa2:	d1f7      	bne.n	404f94 <_malloc_r+0x384>
  404fa4:	f8dc 200c 	ldr.w	r2, [ip, #12]
  404fa8:	687b      	ldr	r3, [r7, #4]
  404faa:	60e2      	str	r2, [r4, #12]
  404fac:	f8c4 c008 	str.w	ip, [r4, #8]
  404fb0:	6094      	str	r4, [r2, #8]
  404fb2:	f8cc 400c 	str.w	r4, [ip, #12]
  404fb6:	e68f      	b.n	404cd8 <_malloc_r+0xc8>
  404fb8:	19a1      	adds	r1, r4, r6
  404fba:	f046 0c01 	orr.w	ip, r6, #1
  404fbe:	f042 0601 	orr.w	r6, r2, #1
  404fc2:	f8c4 c004 	str.w	ip, [r4, #4]
  404fc6:	4628      	mov	r0, r5
  404fc8:	6179      	str	r1, [r7, #20]
  404fca:	6139      	str	r1, [r7, #16]
  404fcc:	f8c1 e00c 	str.w	lr, [r1, #12]
  404fd0:	f8c1 e008 	str.w	lr, [r1, #8]
  404fd4:	604e      	str	r6, [r1, #4]
  404fd6:	50e2      	str	r2, [r4, r3]
  404fd8:	f000 f99c 	bl	405314 <__malloc_unlock>
  404fdc:	3408      	adds	r4, #8
  404fde:	e6dd      	b.n	404d9c <_malloc_r+0x18c>
  404fe0:	687b      	ldr	r3, [r7, #4]
  404fe2:	e679      	b.n	404cd8 <_malloc_r+0xc8>
  404fe4:	f108 0801 	add.w	r8, r8, #1
  404fe8:	f018 0f03 	tst.w	r8, #3
  404fec:	f10c 0c08 	add.w	ip, ip, #8
  404ff0:	f47f ae85 	bne.w	404cfe <_malloc_r+0xee>
  404ff4:	e02d      	b.n	405052 <_malloc_r+0x442>
  404ff6:	68dc      	ldr	r4, [r3, #12]
  404ff8:	42a3      	cmp	r3, r4
  404ffa:	bf08      	it	eq
  404ffc:	3002      	addeq	r0, #2
  404ffe:	f43f ae3e 	beq.w	404c7e <_malloc_r+0x6e>
  405002:	e6bb      	b.n	404d7c <_malloc_r+0x16c>
  405004:	4419      	add	r1, r3
  405006:	461c      	mov	r4, r3
  405008:	684a      	ldr	r2, [r1, #4]
  40500a:	68db      	ldr	r3, [r3, #12]
  40500c:	f854 6f08 	ldr.w	r6, [r4, #8]!
  405010:	f042 0201 	orr.w	r2, r2, #1
  405014:	604a      	str	r2, [r1, #4]
  405016:	4628      	mov	r0, r5
  405018:	60f3      	str	r3, [r6, #12]
  40501a:	609e      	str	r6, [r3, #8]
  40501c:	f000 f97a 	bl	405314 <__malloc_unlock>
  405020:	e6bc      	b.n	404d9c <_malloc_r+0x18c>
  405022:	f103 005c 	add.w	r0, r3, #92	; 0x5c
  405026:	f103 0e5b 	add.w	lr, r3, #91	; 0x5b
  40502a:	00c3      	lsls	r3, r0, #3
  40502c:	e612      	b.n	404c54 <_malloc_r+0x44>
  40502e:	099a      	lsrs	r2, r3, #6
  405030:	f102 0139 	add.w	r1, r2, #57	; 0x39
  405034:	00c9      	lsls	r1, r1, #3
  405036:	3238      	adds	r2, #56	; 0x38
  405038:	e7a4      	b.n	404f84 <_malloc_r+0x374>
  40503a:	42bc      	cmp	r4, r7
  40503c:	d054      	beq.n	4050e8 <_malloc_r+0x4d8>
  40503e:	68bc      	ldr	r4, [r7, #8]
  405040:	6862      	ldr	r2, [r4, #4]
  405042:	f022 0203 	bic.w	r2, r2, #3
  405046:	e75d      	b.n	404f04 <_malloc_r+0x2f4>
  405048:	f859 3908 	ldr.w	r3, [r9], #-8
  40504c:	4599      	cmp	r9, r3
  40504e:	f040 8086 	bne.w	40515e <_malloc_r+0x54e>
  405052:	f010 0f03 	tst.w	r0, #3
  405056:	f100 30ff 	add.w	r0, r0, #4294967295
  40505a:	d1f5      	bne.n	405048 <_malloc_r+0x438>
  40505c:	687b      	ldr	r3, [r7, #4]
  40505e:	ea23 0304 	bic.w	r3, r3, r4
  405062:	607b      	str	r3, [r7, #4]
  405064:	0064      	lsls	r4, r4, #1
  405066:	429c      	cmp	r4, r3
  405068:	f63f aec7 	bhi.w	404dfa <_malloc_r+0x1ea>
  40506c:	2c00      	cmp	r4, #0
  40506e:	f43f aec4 	beq.w	404dfa <_malloc_r+0x1ea>
  405072:	421c      	tst	r4, r3
  405074:	4640      	mov	r0, r8
  405076:	f47f ae3e 	bne.w	404cf6 <_malloc_r+0xe6>
  40507a:	0064      	lsls	r4, r4, #1
  40507c:	421c      	tst	r4, r3
  40507e:	f100 0004 	add.w	r0, r0, #4
  405082:	d0fa      	beq.n	40507a <_malloc_r+0x46a>
  405084:	e637      	b.n	404cf6 <_malloc_r+0xe6>
  405086:	468c      	mov	ip, r1
  405088:	e78c      	b.n	404fa4 <_malloc_r+0x394>
  40508a:	f5b3 7faa 	cmp.w	r3, #340	; 0x154
  40508e:	d815      	bhi.n	4050bc <_malloc_r+0x4ac>
  405090:	0bf3      	lsrs	r3, r6, #15
  405092:	f103 0078 	add.w	r0, r3, #120	; 0x78
  405096:	f103 0e77 	add.w	lr, r3, #119	; 0x77
  40509a:	00c3      	lsls	r3, r0, #3
  40509c:	e5da      	b.n	404c54 <_malloc_r+0x44>
  40509e:	f44f 5180 	mov.w	r1, #4096	; 0x1000
  4050a2:	e6ed      	b.n	404e80 <_malloc_r+0x270>
  4050a4:	687b      	ldr	r3, [r7, #4]
  4050a6:	1092      	asrs	r2, r2, #2
  4050a8:	2101      	movs	r1, #1
  4050aa:	fa01 f202 	lsl.w	r2, r1, r2
  4050ae:	4313      	orrs	r3, r2
  4050b0:	607b      	str	r3, [r7, #4]
  4050b2:	4662      	mov	r2, ip
  4050b4:	e779      	b.n	404faa <_malloc_r+0x39a>
  4050b6:	2301      	movs	r3, #1
  4050b8:	6053      	str	r3, [r2, #4]
  4050ba:	e729      	b.n	404f10 <_malloc_r+0x300>
  4050bc:	f240 5254 	movw	r2, #1364	; 0x554
  4050c0:	4293      	cmp	r3, r2
  4050c2:	d822      	bhi.n	40510a <_malloc_r+0x4fa>
  4050c4:	0cb3      	lsrs	r3, r6, #18
  4050c6:	f103 007d 	add.w	r0, r3, #125	; 0x7d
  4050ca:	f103 0e7c 	add.w	lr, r3, #124	; 0x7c
  4050ce:	00c3      	lsls	r3, r0, #3
  4050d0:	e5c0      	b.n	404c54 <_malloc_r+0x44>
  4050d2:	f103 0b10 	add.w	fp, r3, #16
  4050d6:	e6ae      	b.n	404e36 <_malloc_r+0x226>
  4050d8:	2a54      	cmp	r2, #84	; 0x54
  4050da:	d829      	bhi.n	405130 <_malloc_r+0x520>
  4050dc:	0b1a      	lsrs	r2, r3, #12
  4050de:	f102 016f 	add.w	r1, r2, #111	; 0x6f
  4050e2:	00c9      	lsls	r1, r1, #3
  4050e4:	326e      	adds	r2, #110	; 0x6e
  4050e6:	e74d      	b.n	404f84 <_malloc_r+0x374>
  4050e8:	4b20      	ldr	r3, [pc, #128]	; (40516c <_malloc_r+0x55c>)
  4050ea:	6819      	ldr	r1, [r3, #0]
  4050ec:	4459      	add	r1, fp
  4050ee:	6019      	str	r1, [r3, #0]
  4050f0:	e6b2      	b.n	404e58 <_malloc_r+0x248>
  4050f2:	f3ca 000b 	ubfx	r0, sl, #0, #12
  4050f6:	2800      	cmp	r0, #0
  4050f8:	f47f aeae 	bne.w	404e58 <_malloc_r+0x248>
  4050fc:	eb08 030b 	add.w	r3, r8, fp
  405100:	68ba      	ldr	r2, [r7, #8]
  405102:	f043 0301 	orr.w	r3, r3, #1
  405106:	6053      	str	r3, [r2, #4]
  405108:	e6ee      	b.n	404ee8 <_malloc_r+0x2d8>
  40510a:	207f      	movs	r0, #127	; 0x7f
  40510c:	f44f 737e 	mov.w	r3, #1016	; 0x3f8
  405110:	f04f 0e7e 	mov.w	lr, #126	; 0x7e
  405114:	e59e      	b.n	404c54 <_malloc_r+0x44>
  405116:	f104 0108 	add.w	r1, r4, #8
  40511a:	4628      	mov	r0, r5
  40511c:	9300      	str	r3, [sp, #0]
  40511e:	f7ff fa59 	bl	4045d4 <_free_r>
  405122:	9b00      	ldr	r3, [sp, #0]
  405124:	6819      	ldr	r1, [r3, #0]
  405126:	e6df      	b.n	404ee8 <_malloc_r+0x2d8>
  405128:	2001      	movs	r0, #1
  40512a:	f04f 0900 	mov.w	r9, #0
  40512e:	e6bc      	b.n	404eaa <_malloc_r+0x29a>
  405130:	f5b2 7faa 	cmp.w	r2, #340	; 0x154
  405134:	d805      	bhi.n	405142 <_malloc_r+0x532>
  405136:	0bda      	lsrs	r2, r3, #15
  405138:	f102 0178 	add.w	r1, r2, #120	; 0x78
  40513c:	00c9      	lsls	r1, r1, #3
  40513e:	3277      	adds	r2, #119	; 0x77
  405140:	e720      	b.n	404f84 <_malloc_r+0x374>
  405142:	f240 5154 	movw	r1, #1364	; 0x554
  405146:	428a      	cmp	r2, r1
  405148:	d805      	bhi.n	405156 <_malloc_r+0x546>
  40514a:	0c9a      	lsrs	r2, r3, #18
  40514c:	f102 017d 	add.w	r1, r2, #125	; 0x7d
  405150:	00c9      	lsls	r1, r1, #3
  405152:	327c      	adds	r2, #124	; 0x7c
  405154:	e716      	b.n	404f84 <_malloc_r+0x374>
  405156:	f44f 717e 	mov.w	r1, #1016	; 0x3f8
  40515a:	227e      	movs	r2, #126	; 0x7e
  40515c:	e712      	b.n	404f84 <_malloc_r+0x374>
  40515e:	687b      	ldr	r3, [r7, #4]
  405160:	e780      	b.n	405064 <_malloc_r+0x454>
  405162:	08f0      	lsrs	r0, r6, #3
  405164:	f106 0308 	add.w	r3, r6, #8
  405168:	e600      	b.n	404d6c <_malloc_r+0x15c>
  40516a:	bf00      	nop
  40516c:	204072a4 	.word	0x204072a4

00405170 <__ascii_mbtowc>:
  405170:	b082      	sub	sp, #8
  405172:	b149      	cbz	r1, 405188 <__ascii_mbtowc+0x18>
  405174:	b15a      	cbz	r2, 40518e <__ascii_mbtowc+0x1e>
  405176:	b16b      	cbz	r3, 405194 <__ascii_mbtowc+0x24>
  405178:	7813      	ldrb	r3, [r2, #0]
  40517a:	600b      	str	r3, [r1, #0]
  40517c:	7812      	ldrb	r2, [r2, #0]
  40517e:	1c10      	adds	r0, r2, #0
  405180:	bf18      	it	ne
  405182:	2001      	movne	r0, #1
  405184:	b002      	add	sp, #8
  405186:	4770      	bx	lr
  405188:	a901      	add	r1, sp, #4
  40518a:	2a00      	cmp	r2, #0
  40518c:	d1f3      	bne.n	405176 <__ascii_mbtowc+0x6>
  40518e:	4610      	mov	r0, r2
  405190:	b002      	add	sp, #8
  405192:	4770      	bx	lr
  405194:	f06f 0001 	mvn.w	r0, #1
  405198:	e7f4      	b.n	405184 <__ascii_mbtowc+0x14>
  40519a:	bf00      	nop
  40519c:	0000      	movs	r0, r0
	...

004051a0 <memchr>:
  4051a0:	f001 01ff 	and.w	r1, r1, #255	; 0xff
  4051a4:	2a10      	cmp	r2, #16
  4051a6:	db2b      	blt.n	405200 <memchr+0x60>
  4051a8:	f010 0f07 	tst.w	r0, #7
  4051ac:	d008      	beq.n	4051c0 <memchr+0x20>
  4051ae:	f810 3b01 	ldrb.w	r3, [r0], #1
  4051b2:	3a01      	subs	r2, #1
  4051b4:	428b      	cmp	r3, r1
  4051b6:	d02d      	beq.n	405214 <memchr+0x74>
  4051b8:	f010 0f07 	tst.w	r0, #7
  4051bc:	b342      	cbz	r2, 405210 <memchr+0x70>
  4051be:	d1f6      	bne.n	4051ae <memchr+0xe>
  4051c0:	b4f0      	push	{r4, r5, r6, r7}
  4051c2:	ea41 2101 	orr.w	r1, r1, r1, lsl #8
  4051c6:	ea41 4101 	orr.w	r1, r1, r1, lsl #16
  4051ca:	f022 0407 	bic.w	r4, r2, #7
  4051ce:	f07f 0700 	mvns.w	r7, #0
  4051d2:	2300      	movs	r3, #0
  4051d4:	e8f0 5602 	ldrd	r5, r6, [r0], #8
  4051d8:	3c08      	subs	r4, #8
  4051da:	ea85 0501 	eor.w	r5, r5, r1
  4051de:	ea86 0601 	eor.w	r6, r6, r1
  4051e2:	fa85 f547 	uadd8	r5, r5, r7
  4051e6:	faa3 f587 	sel	r5, r3, r7
  4051ea:	fa86 f647 	uadd8	r6, r6, r7
  4051ee:	faa5 f687 	sel	r6, r5, r7
  4051f2:	b98e      	cbnz	r6, 405218 <memchr+0x78>
  4051f4:	d1ee      	bne.n	4051d4 <memchr+0x34>
  4051f6:	bcf0      	pop	{r4, r5, r6, r7}
  4051f8:	f001 01ff 	and.w	r1, r1, #255	; 0xff
  4051fc:	f002 0207 	and.w	r2, r2, #7
  405200:	b132      	cbz	r2, 405210 <memchr+0x70>
  405202:	f810 3b01 	ldrb.w	r3, [r0], #1
  405206:	3a01      	subs	r2, #1
  405208:	ea83 0301 	eor.w	r3, r3, r1
  40520c:	b113      	cbz	r3, 405214 <memchr+0x74>
  40520e:	d1f8      	bne.n	405202 <memchr+0x62>
  405210:	2000      	movs	r0, #0
  405212:	4770      	bx	lr
  405214:	3801      	subs	r0, #1
  405216:	4770      	bx	lr
  405218:	2d00      	cmp	r5, #0
  40521a:	bf06      	itte	eq
  40521c:	4635      	moveq	r5, r6
  40521e:	3803      	subeq	r0, #3
  405220:	3807      	subne	r0, #7
  405222:	f015 0f01 	tst.w	r5, #1
  405226:	d107      	bne.n	405238 <memchr+0x98>
  405228:	3001      	adds	r0, #1
  40522a:	f415 7f80 	tst.w	r5, #256	; 0x100
  40522e:	bf02      	ittt	eq
  405230:	3001      	addeq	r0, #1
  405232:	f415 3fc0 	tsteq.w	r5, #98304	; 0x18000
  405236:	3001      	addeq	r0, #1
  405238:	bcf0      	pop	{r4, r5, r6, r7}
  40523a:	3801      	subs	r0, #1
  40523c:	4770      	bx	lr
  40523e:	bf00      	nop

00405240 <memmove>:
  405240:	4288      	cmp	r0, r1
  405242:	b5f0      	push	{r4, r5, r6, r7, lr}
  405244:	d90d      	bls.n	405262 <memmove+0x22>
  405246:	188b      	adds	r3, r1, r2
  405248:	4298      	cmp	r0, r3
  40524a:	d20a      	bcs.n	405262 <memmove+0x22>
  40524c:	1884      	adds	r4, r0, r2
  40524e:	2a00      	cmp	r2, #0
  405250:	d051      	beq.n	4052f6 <memmove+0xb6>
  405252:	4622      	mov	r2, r4
  405254:	f813 4d01 	ldrb.w	r4, [r3, #-1]!
  405258:	f802 4d01 	strb.w	r4, [r2, #-1]!
  40525c:	4299      	cmp	r1, r3
  40525e:	d1f9      	bne.n	405254 <memmove+0x14>
  405260:	bdf0      	pop	{r4, r5, r6, r7, pc}
  405262:	2a0f      	cmp	r2, #15
  405264:	d948      	bls.n	4052f8 <memmove+0xb8>
  405266:	ea41 0300 	orr.w	r3, r1, r0
  40526a:	079b      	lsls	r3, r3, #30
  40526c:	d146      	bne.n	4052fc <memmove+0xbc>
  40526e:	f100 0410 	add.w	r4, r0, #16
  405272:	f101 0310 	add.w	r3, r1, #16
  405276:	4615      	mov	r5, r2
  405278:	f853 6c10 	ldr.w	r6, [r3, #-16]
  40527c:	f844 6c10 	str.w	r6, [r4, #-16]
  405280:	f853 6c0c 	ldr.w	r6, [r3, #-12]
  405284:	f844 6c0c 	str.w	r6, [r4, #-12]
  405288:	f853 6c08 	ldr.w	r6, [r3, #-8]
  40528c:	f844 6c08 	str.w	r6, [r4, #-8]
  405290:	3d10      	subs	r5, #16
  405292:	f853 6c04 	ldr.w	r6, [r3, #-4]
  405296:	f844 6c04 	str.w	r6, [r4, #-4]
  40529a:	2d0f      	cmp	r5, #15
  40529c:	f103 0310 	add.w	r3, r3, #16
  4052a0:	f104 0410 	add.w	r4, r4, #16
  4052a4:	d8e8      	bhi.n	405278 <memmove+0x38>
  4052a6:	f1a2 0310 	sub.w	r3, r2, #16
  4052aa:	f023 030f 	bic.w	r3, r3, #15
  4052ae:	f002 0e0f 	and.w	lr, r2, #15
  4052b2:	3310      	adds	r3, #16
  4052b4:	f1be 0f03 	cmp.w	lr, #3
  4052b8:	4419      	add	r1, r3
  4052ba:	4403      	add	r3, r0
  4052bc:	d921      	bls.n	405302 <memmove+0xc2>
  4052be:	1f1e      	subs	r6, r3, #4
  4052c0:	460d      	mov	r5, r1
  4052c2:	4674      	mov	r4, lr
  4052c4:	3c04      	subs	r4, #4
  4052c6:	f855 7b04 	ldr.w	r7, [r5], #4
  4052ca:	f846 7f04 	str.w	r7, [r6, #4]!
  4052ce:	2c03      	cmp	r4, #3
  4052d0:	d8f8      	bhi.n	4052c4 <memmove+0x84>
  4052d2:	f1ae 0404 	sub.w	r4, lr, #4
  4052d6:	f024 0403 	bic.w	r4, r4, #3
  4052da:	3404      	adds	r4, #4
  4052dc:	4421      	add	r1, r4
  4052de:	4423      	add	r3, r4
  4052e0:	f002 0203 	and.w	r2, r2, #3
  4052e4:	b162      	cbz	r2, 405300 <memmove+0xc0>
  4052e6:	3b01      	subs	r3, #1
  4052e8:	440a      	add	r2, r1
  4052ea:	f811 4b01 	ldrb.w	r4, [r1], #1
  4052ee:	f803 4f01 	strb.w	r4, [r3, #1]!
  4052f2:	428a      	cmp	r2, r1
  4052f4:	d1f9      	bne.n	4052ea <memmove+0xaa>
  4052f6:	bdf0      	pop	{r4, r5, r6, r7, pc}
  4052f8:	4603      	mov	r3, r0
  4052fa:	e7f3      	b.n	4052e4 <memmove+0xa4>
  4052fc:	4603      	mov	r3, r0
  4052fe:	e7f2      	b.n	4052e6 <memmove+0xa6>
  405300:	bdf0      	pop	{r4, r5, r6, r7, pc}
  405302:	4672      	mov	r2, lr
  405304:	e7ee      	b.n	4052e4 <memmove+0xa4>
  405306:	bf00      	nop

00405308 <__malloc_lock>:
  405308:	4801      	ldr	r0, [pc, #4]	; (405310 <__malloc_lock+0x8>)
  40530a:	f7ff bbfd 	b.w	404b08 <__retarget_lock_acquire_recursive>
  40530e:	bf00      	nop
  405310:	20408314 	.word	0x20408314

00405314 <__malloc_unlock>:
  405314:	4801      	ldr	r0, [pc, #4]	; (40531c <__malloc_unlock+0x8>)
  405316:	f7ff bbf9 	b.w	404b0c <__retarget_lock_release_recursive>
  40531a:	bf00      	nop
  40531c:	20408314 	.word	0x20408314

00405320 <_realloc_r>:
  405320:	2900      	cmp	r1, #0
  405322:	f000 8095 	beq.w	405450 <_realloc_r+0x130>
  405326:	e92d 4ff0 	stmdb	sp!, {r4, r5, r6, r7, r8, r9, sl, fp, lr}
  40532a:	460d      	mov	r5, r1
  40532c:	4616      	mov	r6, r2
  40532e:	b083      	sub	sp, #12
  405330:	4680      	mov	r8, r0
  405332:	f106 070b 	add.w	r7, r6, #11
  405336:	f7ff ffe7 	bl	405308 <__malloc_lock>
  40533a:	f855 ec04 	ldr.w	lr, [r5, #-4]
  40533e:	2f16      	cmp	r7, #22
  405340:	f02e 0403 	bic.w	r4, lr, #3
  405344:	f1a5 0908 	sub.w	r9, r5, #8
  405348:	d83c      	bhi.n	4053c4 <_realloc_r+0xa4>
  40534a:	2210      	movs	r2, #16
  40534c:	4617      	mov	r7, r2
  40534e:	42be      	cmp	r6, r7
  405350:	d83d      	bhi.n	4053ce <_realloc_r+0xae>
  405352:	4294      	cmp	r4, r2
  405354:	da43      	bge.n	4053de <_realloc_r+0xbe>
  405356:	4bc4      	ldr	r3, [pc, #784]	; (405668 <_realloc_r+0x348>)
  405358:	6899      	ldr	r1, [r3, #8]
  40535a:	eb09 0004 	add.w	r0, r9, r4
  40535e:	4288      	cmp	r0, r1
  405360:	f000 80b4 	beq.w	4054cc <_realloc_r+0x1ac>
  405364:	6843      	ldr	r3, [r0, #4]
  405366:	f023 0101 	bic.w	r1, r3, #1
  40536a:	4401      	add	r1, r0
  40536c:	6849      	ldr	r1, [r1, #4]
  40536e:	07c9      	lsls	r1, r1, #31
  405370:	d54c      	bpl.n	40540c <_realloc_r+0xec>
  405372:	f01e 0f01 	tst.w	lr, #1
  405376:	f000 809b 	beq.w	4054b0 <_realloc_r+0x190>
  40537a:	4631      	mov	r1, r6
  40537c:	4640      	mov	r0, r8
  40537e:	f7ff fc47 	bl	404c10 <_malloc_r>
  405382:	4606      	mov	r6, r0
  405384:	2800      	cmp	r0, #0
  405386:	d03a      	beq.n	4053fe <_realloc_r+0xde>
  405388:	f855 3c04 	ldr.w	r3, [r5, #-4]
  40538c:	f023 0301 	bic.w	r3, r3, #1
  405390:	444b      	add	r3, r9
  405392:	f1a0 0208 	sub.w	r2, r0, #8
  405396:	429a      	cmp	r2, r3
  405398:	f000 8121 	beq.w	4055de <_realloc_r+0x2be>
  40539c:	1f22      	subs	r2, r4, #4
  40539e:	2a24      	cmp	r2, #36	; 0x24
  4053a0:	f200 8107 	bhi.w	4055b2 <_realloc_r+0x292>
  4053a4:	2a13      	cmp	r2, #19
  4053a6:	f200 80db 	bhi.w	405560 <_realloc_r+0x240>
  4053aa:	4603      	mov	r3, r0
  4053ac:	462a      	mov	r2, r5
  4053ae:	6811      	ldr	r1, [r2, #0]
  4053b0:	6019      	str	r1, [r3, #0]
  4053b2:	6851      	ldr	r1, [r2, #4]
  4053b4:	6059      	str	r1, [r3, #4]
  4053b6:	6892      	ldr	r2, [r2, #8]
  4053b8:	609a      	str	r2, [r3, #8]
  4053ba:	4629      	mov	r1, r5
  4053bc:	4640      	mov	r0, r8
  4053be:	f7ff f909 	bl	4045d4 <_free_r>
  4053c2:	e01c      	b.n	4053fe <_realloc_r+0xde>
  4053c4:	f027 0707 	bic.w	r7, r7, #7
  4053c8:	2f00      	cmp	r7, #0
  4053ca:	463a      	mov	r2, r7
  4053cc:	dabf      	bge.n	40534e <_realloc_r+0x2e>
  4053ce:	2600      	movs	r6, #0
  4053d0:	230c      	movs	r3, #12
  4053d2:	4630      	mov	r0, r6
  4053d4:	f8c8 3000 	str.w	r3, [r8]
  4053d8:	b003      	add	sp, #12
  4053da:	e8bd 8ff0 	ldmia.w	sp!, {r4, r5, r6, r7, r8, r9, sl, fp, pc}
  4053de:	462e      	mov	r6, r5
  4053e0:	1be3      	subs	r3, r4, r7
  4053e2:	2b0f      	cmp	r3, #15
  4053e4:	d81e      	bhi.n	405424 <_realloc_r+0x104>
  4053e6:	f8d9 3004 	ldr.w	r3, [r9, #4]
  4053ea:	f003 0301 	and.w	r3, r3, #1
  4053ee:	4323      	orrs	r3, r4
  4053f0:	444c      	add	r4, r9
  4053f2:	f8c9 3004 	str.w	r3, [r9, #4]
  4053f6:	6863      	ldr	r3, [r4, #4]
  4053f8:	f043 0301 	orr.w	r3, r3, #1
  4053fc:	6063      	str	r3, [r4, #4]
  4053fe:	4640      	mov	r0, r8
  405400:	f7ff ff88 	bl	405314 <__malloc_unlock>
  405404:	4630      	mov	r0, r6
  405406:	b003      	add	sp, #12
  405408:	e8bd 8ff0 	ldmia.w	sp!, {r4, r5, r6, r7, r8, r9, sl, fp, pc}
  40540c:	f023 0303 	bic.w	r3, r3, #3
  405410:	18e1      	adds	r1, r4, r3
  405412:	4291      	cmp	r1, r2
  405414:	db1f      	blt.n	405456 <_realloc_r+0x136>
  405416:	68c3      	ldr	r3, [r0, #12]
  405418:	6882      	ldr	r2, [r0, #8]
  40541a:	462e      	mov	r6, r5
  40541c:	60d3      	str	r3, [r2, #12]
  40541e:	460c      	mov	r4, r1
  405420:	609a      	str	r2, [r3, #8]
  405422:	e7dd      	b.n	4053e0 <_realloc_r+0xc0>
  405424:	f8d9 2004 	ldr.w	r2, [r9, #4]
  405428:	eb09 0107 	add.w	r1, r9, r7
  40542c:	f002 0201 	and.w	r2, r2, #1
  405430:	444c      	add	r4, r9
  405432:	f043 0301 	orr.w	r3, r3, #1
  405436:	4317      	orrs	r7, r2
  405438:	f8c9 7004 	str.w	r7, [r9, #4]
  40543c:	604b      	str	r3, [r1, #4]
  40543e:	6863      	ldr	r3, [r4, #4]
  405440:	f043 0301 	orr.w	r3, r3, #1
  405444:	3108      	adds	r1, #8
  405446:	6063      	str	r3, [r4, #4]
  405448:	4640      	mov	r0, r8
  40544a:	f7ff f8c3 	bl	4045d4 <_free_r>
  40544e:	e7d6      	b.n	4053fe <_realloc_r+0xde>
  405450:	4611      	mov	r1, r2
  405452:	f7ff bbdd 	b.w	404c10 <_malloc_r>
  405456:	f01e 0f01 	tst.w	lr, #1
  40545a:	d18e      	bne.n	40537a <_realloc_r+0x5a>
  40545c:	f855 1c08 	ldr.w	r1, [r5, #-8]
  405460:	eba9 0a01 	sub.w	sl, r9, r1
  405464:	f8da 1004 	ldr.w	r1, [sl, #4]
  405468:	f021 0103 	bic.w	r1, r1, #3
  40546c:	440b      	add	r3, r1
  40546e:	4423      	add	r3, r4
  405470:	4293      	cmp	r3, r2
  405472:	db25      	blt.n	4054c0 <_realloc_r+0x1a0>
  405474:	68c2      	ldr	r2, [r0, #12]
  405476:	6881      	ldr	r1, [r0, #8]
  405478:	4656      	mov	r6, sl
  40547a:	60ca      	str	r2, [r1, #12]
  40547c:	6091      	str	r1, [r2, #8]
  40547e:	f8da 100c 	ldr.w	r1, [sl, #12]
  405482:	f856 0f08 	ldr.w	r0, [r6, #8]!
  405486:	1f22      	subs	r2, r4, #4
  405488:	2a24      	cmp	r2, #36	; 0x24
  40548a:	60c1      	str	r1, [r0, #12]
  40548c:	6088      	str	r0, [r1, #8]
  40548e:	f200 8094 	bhi.w	4055ba <_realloc_r+0x29a>
  405492:	2a13      	cmp	r2, #19
  405494:	d96f      	bls.n	405576 <_realloc_r+0x256>
  405496:	6829      	ldr	r1, [r5, #0]
  405498:	f8ca 1008 	str.w	r1, [sl, #8]
  40549c:	6869      	ldr	r1, [r5, #4]
  40549e:	f8ca 100c 	str.w	r1, [sl, #12]
  4054a2:	2a1b      	cmp	r2, #27
  4054a4:	f200 80a2 	bhi.w	4055ec <_realloc_r+0x2cc>
  4054a8:	3508      	adds	r5, #8
  4054aa:	f10a 0210 	add.w	r2, sl, #16
  4054ae:	e063      	b.n	405578 <_realloc_r+0x258>
  4054b0:	f855 3c08 	ldr.w	r3, [r5, #-8]
  4054b4:	eba9 0a03 	sub.w	sl, r9, r3
  4054b8:	f8da 1004 	ldr.w	r1, [sl, #4]
  4054bc:	f021 0103 	bic.w	r1, r1, #3
  4054c0:	1863      	adds	r3, r4, r1
  4054c2:	4293      	cmp	r3, r2
  4054c4:	f6ff af59 	blt.w	40537a <_realloc_r+0x5a>
  4054c8:	4656      	mov	r6, sl
  4054ca:	e7d8      	b.n	40547e <_realloc_r+0x15e>
  4054cc:	6841      	ldr	r1, [r0, #4]
  4054ce:	f021 0b03 	bic.w	fp, r1, #3
  4054d2:	44a3      	add	fp, r4
  4054d4:	f107 0010 	add.w	r0, r7, #16
  4054d8:	4583      	cmp	fp, r0
  4054da:	da56      	bge.n	40558a <_realloc_r+0x26a>
  4054dc:	f01e 0f01 	tst.w	lr, #1
  4054e0:	f47f af4b 	bne.w	40537a <_realloc_r+0x5a>
  4054e4:	f855 1c08 	ldr.w	r1, [r5, #-8]
  4054e8:	eba9 0a01 	sub.w	sl, r9, r1
  4054ec:	f8da 1004 	ldr.w	r1, [sl, #4]
  4054f0:	f021 0103 	bic.w	r1, r1, #3
  4054f4:	448b      	add	fp, r1
  4054f6:	4558      	cmp	r0, fp
  4054f8:	dce2      	bgt.n	4054c0 <_realloc_r+0x1a0>
  4054fa:	4656      	mov	r6, sl
  4054fc:	f8da 100c 	ldr.w	r1, [sl, #12]
  405500:	f856 0f08 	ldr.w	r0, [r6, #8]!
  405504:	1f22      	subs	r2, r4, #4
  405506:	2a24      	cmp	r2, #36	; 0x24
  405508:	60c1      	str	r1, [r0, #12]
  40550a:	6088      	str	r0, [r1, #8]
  40550c:	f200 808f 	bhi.w	40562e <_realloc_r+0x30e>
  405510:	2a13      	cmp	r2, #19
  405512:	f240 808a 	bls.w	40562a <_realloc_r+0x30a>
  405516:	6829      	ldr	r1, [r5, #0]
  405518:	f8ca 1008 	str.w	r1, [sl, #8]
  40551c:	6869      	ldr	r1, [r5, #4]
  40551e:	f8ca 100c 	str.w	r1, [sl, #12]
  405522:	2a1b      	cmp	r2, #27
  405524:	f200 808a 	bhi.w	40563c <_realloc_r+0x31c>
  405528:	3508      	adds	r5, #8
  40552a:	f10a 0210 	add.w	r2, sl, #16
  40552e:	6829      	ldr	r1, [r5, #0]
  405530:	6011      	str	r1, [r2, #0]
  405532:	6869      	ldr	r1, [r5, #4]
  405534:	6051      	str	r1, [r2, #4]
  405536:	68a9      	ldr	r1, [r5, #8]
  405538:	6091      	str	r1, [r2, #8]
  40553a:	eb0a 0107 	add.w	r1, sl, r7
  40553e:	ebab 0207 	sub.w	r2, fp, r7
  405542:	f042 0201 	orr.w	r2, r2, #1
  405546:	6099      	str	r1, [r3, #8]
  405548:	604a      	str	r2, [r1, #4]
  40554a:	f8da 3004 	ldr.w	r3, [sl, #4]
  40554e:	f003 0301 	and.w	r3, r3, #1
  405552:	431f      	orrs	r7, r3
  405554:	4640      	mov	r0, r8
  405556:	f8ca 7004 	str.w	r7, [sl, #4]
  40555a:	f7ff fedb 	bl	405314 <__malloc_unlock>
  40555e:	e751      	b.n	405404 <_realloc_r+0xe4>
  405560:	682b      	ldr	r3, [r5, #0]
  405562:	6003      	str	r3, [r0, #0]
  405564:	686b      	ldr	r3, [r5, #4]
  405566:	6043      	str	r3, [r0, #4]
  405568:	2a1b      	cmp	r2, #27
  40556a:	d82d      	bhi.n	4055c8 <_realloc_r+0x2a8>
  40556c:	f100 0308 	add.w	r3, r0, #8
  405570:	f105 0208 	add.w	r2, r5, #8
  405574:	e71b      	b.n	4053ae <_realloc_r+0x8e>
  405576:	4632      	mov	r2, r6
  405578:	6829      	ldr	r1, [r5, #0]
  40557a:	6011      	str	r1, [r2, #0]
  40557c:	6869      	ldr	r1, [r5, #4]
  40557e:	6051      	str	r1, [r2, #4]
  405580:	68a9      	ldr	r1, [r5, #8]
  405582:	6091      	str	r1, [r2, #8]
  405584:	461c      	mov	r4, r3
  405586:	46d1      	mov	r9, sl
  405588:	e72a      	b.n	4053e0 <_realloc_r+0xc0>
  40558a:	eb09 0107 	add.w	r1, r9, r7
  40558e:	ebab 0b07 	sub.w	fp, fp, r7
  405592:	f04b 0201 	orr.w	r2, fp, #1
  405596:	6099      	str	r1, [r3, #8]
  405598:	604a      	str	r2, [r1, #4]
  40559a:	f855 3c04 	ldr.w	r3, [r5, #-4]
  40559e:	f003 0301 	and.w	r3, r3, #1
  4055a2:	431f      	orrs	r7, r3
  4055a4:	4640      	mov	r0, r8
  4055a6:	f845 7c04 	str.w	r7, [r5, #-4]
  4055aa:	f7ff feb3 	bl	405314 <__malloc_unlock>
  4055ae:	462e      	mov	r6, r5
  4055b0:	e728      	b.n	405404 <_realloc_r+0xe4>
  4055b2:	4629      	mov	r1, r5
  4055b4:	f7ff fe44 	bl	405240 <memmove>
  4055b8:	e6ff      	b.n	4053ba <_realloc_r+0x9a>
  4055ba:	4629      	mov	r1, r5
  4055bc:	4630      	mov	r0, r6
  4055be:	461c      	mov	r4, r3
  4055c0:	46d1      	mov	r9, sl
  4055c2:	f7ff fe3d 	bl	405240 <memmove>
  4055c6:	e70b      	b.n	4053e0 <_realloc_r+0xc0>
  4055c8:	68ab      	ldr	r3, [r5, #8]
  4055ca:	6083      	str	r3, [r0, #8]
  4055cc:	68eb      	ldr	r3, [r5, #12]
  4055ce:	60c3      	str	r3, [r0, #12]
  4055d0:	2a24      	cmp	r2, #36	; 0x24
  4055d2:	d017      	beq.n	405604 <_realloc_r+0x2e4>
  4055d4:	f100 0310 	add.w	r3, r0, #16
  4055d8:	f105 0210 	add.w	r2, r5, #16
  4055dc:	e6e7      	b.n	4053ae <_realloc_r+0x8e>
  4055de:	f850 3c04 	ldr.w	r3, [r0, #-4]
  4055e2:	f023 0303 	bic.w	r3, r3, #3
  4055e6:	441c      	add	r4, r3
  4055e8:	462e      	mov	r6, r5
  4055ea:	e6f9      	b.n	4053e0 <_realloc_r+0xc0>
  4055ec:	68a9      	ldr	r1, [r5, #8]
  4055ee:	f8ca 1010 	str.w	r1, [sl, #16]
  4055f2:	68e9      	ldr	r1, [r5, #12]
  4055f4:	f8ca 1014 	str.w	r1, [sl, #20]
  4055f8:	2a24      	cmp	r2, #36	; 0x24
  4055fa:	d00c      	beq.n	405616 <_realloc_r+0x2f6>
  4055fc:	3510      	adds	r5, #16
  4055fe:	f10a 0218 	add.w	r2, sl, #24
  405602:	e7b9      	b.n	405578 <_realloc_r+0x258>
  405604:	692b      	ldr	r3, [r5, #16]
  405606:	6103      	str	r3, [r0, #16]
  405608:	696b      	ldr	r3, [r5, #20]
  40560a:	6143      	str	r3, [r0, #20]
  40560c:	f105 0218 	add.w	r2, r5, #24
  405610:	f100 0318 	add.w	r3, r0, #24
  405614:	e6cb      	b.n	4053ae <_realloc_r+0x8e>
  405616:	692a      	ldr	r2, [r5, #16]
  405618:	f8ca 2018 	str.w	r2, [sl, #24]
  40561c:	696a      	ldr	r2, [r5, #20]
  40561e:	f8ca 201c 	str.w	r2, [sl, #28]
  405622:	3518      	adds	r5, #24
  405624:	f10a 0220 	add.w	r2, sl, #32
  405628:	e7a6      	b.n	405578 <_realloc_r+0x258>
  40562a:	4632      	mov	r2, r6
  40562c:	e77f      	b.n	40552e <_realloc_r+0x20e>
  40562e:	4629      	mov	r1, r5
  405630:	4630      	mov	r0, r6
  405632:	9301      	str	r3, [sp, #4]
  405634:	f7ff fe04 	bl	405240 <memmove>
  405638:	9b01      	ldr	r3, [sp, #4]
  40563a:	e77e      	b.n	40553a <_realloc_r+0x21a>
  40563c:	68a9      	ldr	r1, [r5, #8]
  40563e:	f8ca 1010 	str.w	r1, [sl, #16]
  405642:	68e9      	ldr	r1, [r5, #12]
  405644:	f8ca 1014 	str.w	r1, [sl, #20]
  405648:	2a24      	cmp	r2, #36	; 0x24
  40564a:	d003      	beq.n	405654 <_realloc_r+0x334>
  40564c:	3510      	adds	r5, #16
  40564e:	f10a 0218 	add.w	r2, sl, #24
  405652:	e76c      	b.n	40552e <_realloc_r+0x20e>
  405654:	692a      	ldr	r2, [r5, #16]
  405656:	f8ca 2018 	str.w	r2, [sl, #24]
  40565a:	696a      	ldr	r2, [r5, #20]
  40565c:	f8ca 201c 	str.w	r2, [sl, #28]
  405660:	3518      	adds	r5, #24
  405662:	f10a 0220 	add.w	r2, sl, #32
  405666:	e762      	b.n	40552e <_realloc_r+0x20e>
  405668:	204005c8 	.word	0x204005c8

0040566c <_sbrk_r>:
  40566c:	b538      	push	{r3, r4, r5, lr}
  40566e:	4c07      	ldr	r4, [pc, #28]	; (40568c <_sbrk_r+0x20>)
  405670:	2300      	movs	r3, #0
  405672:	4605      	mov	r5, r0
  405674:	4608      	mov	r0, r1
  405676:	6023      	str	r3, [r4, #0]
  405678:	f7fc ff34 	bl	4024e4 <_sbrk>
  40567c:	1c43      	adds	r3, r0, #1
  40567e:	d000      	beq.n	405682 <_sbrk_r+0x16>
  405680:	bd38      	pop	{r3, r4, r5, pc}
  405682:	6823      	ldr	r3, [r4, #0]
  405684:	2b00      	cmp	r3, #0
  405686:	d0fb      	beq.n	405680 <_sbrk_r+0x14>
  405688:	602b      	str	r3, [r5, #0]
  40568a:	bd38      	pop	{r3, r4, r5, pc}
  40568c:	20408328 	.word	0x20408328

00405690 <__sread>:
  405690:	b510      	push	{r4, lr}
  405692:	460c      	mov	r4, r1
  405694:	f9b1 100e 	ldrsh.w	r1, [r1, #14]
  405698:	f000 f9f6 	bl	405a88 <_read_r>
  40569c:	2800      	cmp	r0, #0
  40569e:	db03      	blt.n	4056a8 <__sread+0x18>
  4056a0:	6d23      	ldr	r3, [r4, #80]	; 0x50
  4056a2:	4403      	add	r3, r0
  4056a4:	6523      	str	r3, [r4, #80]	; 0x50
  4056a6:	bd10      	pop	{r4, pc}
  4056a8:	89a3      	ldrh	r3, [r4, #12]
  4056aa:	f423 5380 	bic.w	r3, r3, #4096	; 0x1000
  4056ae:	81a3      	strh	r3, [r4, #12]
  4056b0:	bd10      	pop	{r4, pc}
  4056b2:	bf00      	nop

004056b4 <__swrite>:
  4056b4:	e92d 41f0 	stmdb	sp!, {r4, r5, r6, r7, r8, lr}
  4056b8:	4616      	mov	r6, r2
  4056ba:	f9b1 200c 	ldrsh.w	r2, [r1, #12]
  4056be:	461f      	mov	r7, r3
  4056c0:	05d3      	lsls	r3, r2, #23
  4056c2:	460c      	mov	r4, r1
  4056c4:	4605      	mov	r5, r0
  4056c6:	d507      	bpl.n	4056d8 <__swrite+0x24>
  4056c8:	2200      	movs	r2, #0
  4056ca:	2302      	movs	r3, #2
  4056cc:	f9b1 100e 	ldrsh.w	r1, [r1, #14]
  4056d0:	f000 f9c4 	bl	405a5c <_lseek_r>
  4056d4:	f9b4 200c 	ldrsh.w	r2, [r4, #12]
  4056d8:	f9b4 100e 	ldrsh.w	r1, [r4, #14]
  4056dc:	f422 5280 	bic.w	r2, r2, #4096	; 0x1000
  4056e0:	81a2      	strh	r2, [r4, #12]
  4056e2:	463b      	mov	r3, r7
  4056e4:	4632      	mov	r2, r6
  4056e6:	4628      	mov	r0, r5
  4056e8:	e8bd 41f0 	ldmia.w	sp!, {r4, r5, r6, r7, r8, lr}
  4056ec:	f000 b8a4 	b.w	405838 <_write_r>

004056f0 <__sseek>:
  4056f0:	b510      	push	{r4, lr}
  4056f2:	460c      	mov	r4, r1
  4056f4:	f9b1 100e 	ldrsh.w	r1, [r1, #14]
  4056f8:	f000 f9b0 	bl	405a5c <_lseek_r>
  4056fc:	89a3      	ldrh	r3, [r4, #12]
  4056fe:	1c42      	adds	r2, r0, #1
  405700:	bf0e      	itee	eq
  405702:	f423 5380 	biceq.w	r3, r3, #4096	; 0x1000
  405706:	f443 5380 	orrne.w	r3, r3, #4096	; 0x1000
  40570a:	6520      	strne	r0, [r4, #80]	; 0x50
  40570c:	81a3      	strh	r3, [r4, #12]
  40570e:	bd10      	pop	{r4, pc}

00405710 <__sclose>:
  405710:	f9b1 100e 	ldrsh.w	r1, [r1, #14]
  405714:	f000 b908 	b.w	405928 <_close_r>

00405718 <__swbuf_r>:
  405718:	b5f8      	push	{r3, r4, r5, r6, r7, lr}
  40571a:	460d      	mov	r5, r1
  40571c:	4614      	mov	r4, r2
  40571e:	4606      	mov	r6, r0
  405720:	b110      	cbz	r0, 405728 <__swbuf_r+0x10>
  405722:	6b83      	ldr	r3, [r0, #56]	; 0x38
  405724:	2b00      	cmp	r3, #0
  405726:	d04b      	beq.n	4057c0 <__swbuf_r+0xa8>
  405728:	f9b4 200c 	ldrsh.w	r2, [r4, #12]
  40572c:	69a3      	ldr	r3, [r4, #24]
  40572e:	60a3      	str	r3, [r4, #8]
  405730:	b291      	uxth	r1, r2
  405732:	0708      	lsls	r0, r1, #28
  405734:	d539      	bpl.n	4057aa <__swbuf_r+0x92>
  405736:	6923      	ldr	r3, [r4, #16]
  405738:	2b00      	cmp	r3, #0
  40573a:	d036      	beq.n	4057aa <__swbuf_r+0x92>
  40573c:	b2ed      	uxtb	r5, r5
  40573e:	0489      	lsls	r1, r1, #18
  405740:	462f      	mov	r7, r5
  405742:	d515      	bpl.n	405770 <__swbuf_r+0x58>
  405744:	6822      	ldr	r2, [r4, #0]
  405746:	6961      	ldr	r1, [r4, #20]
  405748:	1ad3      	subs	r3, r2, r3
  40574a:	428b      	cmp	r3, r1
  40574c:	da1c      	bge.n	405788 <__swbuf_r+0x70>
  40574e:	3301      	adds	r3, #1
  405750:	68a1      	ldr	r1, [r4, #8]
  405752:	1c50      	adds	r0, r2, #1
  405754:	3901      	subs	r1, #1
  405756:	60a1      	str	r1, [r4, #8]
  405758:	6020      	str	r0, [r4, #0]
  40575a:	7015      	strb	r5, [r2, #0]
  40575c:	6962      	ldr	r2, [r4, #20]
  40575e:	429a      	cmp	r2, r3
  405760:	d01a      	beq.n	405798 <__swbuf_r+0x80>
  405762:	89a3      	ldrh	r3, [r4, #12]
  405764:	07db      	lsls	r3, r3, #31
  405766:	d501      	bpl.n	40576c <__swbuf_r+0x54>
  405768:	2d0a      	cmp	r5, #10
  40576a:	d015      	beq.n	405798 <__swbuf_r+0x80>
  40576c:	4638      	mov	r0, r7
  40576e:	bdf8      	pop	{r3, r4, r5, r6, r7, pc}
  405770:	6e61      	ldr	r1, [r4, #100]	; 0x64
  405772:	f442 5200 	orr.w	r2, r2, #8192	; 0x2000
  405776:	f421 5100 	bic.w	r1, r1, #8192	; 0x2000
  40577a:	81a2      	strh	r2, [r4, #12]
  40577c:	6822      	ldr	r2, [r4, #0]
  40577e:	6661      	str	r1, [r4, #100]	; 0x64
  405780:	6961      	ldr	r1, [r4, #20]
  405782:	1ad3      	subs	r3, r2, r3
  405784:	428b      	cmp	r3, r1
  405786:	dbe2      	blt.n	40574e <__swbuf_r+0x36>
  405788:	4621      	mov	r1, r4
  40578a:	4630      	mov	r0, r6
  40578c:	f7fe fda4 	bl	4042d8 <_fflush_r>
  405790:	b940      	cbnz	r0, 4057a4 <__swbuf_r+0x8c>
  405792:	6822      	ldr	r2, [r4, #0]
  405794:	2301      	movs	r3, #1
  405796:	e7db      	b.n	405750 <__swbuf_r+0x38>
  405798:	4621      	mov	r1, r4
  40579a:	4630      	mov	r0, r6
  40579c:	f7fe fd9c 	bl	4042d8 <_fflush_r>
  4057a0:	2800      	cmp	r0, #0
  4057a2:	d0e3      	beq.n	40576c <__swbuf_r+0x54>
  4057a4:	f04f 37ff 	mov.w	r7, #4294967295
  4057a8:	e7e0      	b.n	40576c <__swbuf_r+0x54>
  4057aa:	4621      	mov	r1, r4
  4057ac:	4630      	mov	r0, r6
  4057ae:	f7fe fc7f 	bl	4040b0 <__swsetup_r>
  4057b2:	2800      	cmp	r0, #0
  4057b4:	d1f6      	bne.n	4057a4 <__swbuf_r+0x8c>
  4057b6:	f9b4 200c 	ldrsh.w	r2, [r4, #12]
  4057ba:	6923      	ldr	r3, [r4, #16]
  4057bc:	b291      	uxth	r1, r2
  4057be:	e7bd      	b.n	40573c <__swbuf_r+0x24>
  4057c0:	f7fe fde2 	bl	404388 <__sinit>
  4057c4:	e7b0      	b.n	405728 <__swbuf_r+0x10>
  4057c6:	bf00      	nop

004057c8 <_wcrtomb_r>:
  4057c8:	b5f0      	push	{r4, r5, r6, r7, lr}
  4057ca:	4606      	mov	r6, r0
  4057cc:	b085      	sub	sp, #20
  4057ce:	461f      	mov	r7, r3
  4057d0:	b189      	cbz	r1, 4057f6 <_wcrtomb_r+0x2e>
  4057d2:	4c10      	ldr	r4, [pc, #64]	; (405814 <_wcrtomb_r+0x4c>)
  4057d4:	4d10      	ldr	r5, [pc, #64]	; (405818 <_wcrtomb_r+0x50>)
  4057d6:	6824      	ldr	r4, [r4, #0]
  4057d8:	6b64      	ldr	r4, [r4, #52]	; 0x34
  4057da:	2c00      	cmp	r4, #0
  4057dc:	bf08      	it	eq
  4057de:	462c      	moveq	r4, r5
  4057e0:	f8d4 40e0 	ldr.w	r4, [r4, #224]	; 0xe0
  4057e4:	47a0      	blx	r4
  4057e6:	1c43      	adds	r3, r0, #1
  4057e8:	d103      	bne.n	4057f2 <_wcrtomb_r+0x2a>
  4057ea:	2200      	movs	r2, #0
  4057ec:	238a      	movs	r3, #138	; 0x8a
  4057ee:	603a      	str	r2, [r7, #0]
  4057f0:	6033      	str	r3, [r6, #0]
  4057f2:	b005      	add	sp, #20
  4057f4:	bdf0      	pop	{r4, r5, r6, r7, pc}
  4057f6:	460c      	mov	r4, r1
  4057f8:	4906      	ldr	r1, [pc, #24]	; (405814 <_wcrtomb_r+0x4c>)
  4057fa:	4a07      	ldr	r2, [pc, #28]	; (405818 <_wcrtomb_r+0x50>)
  4057fc:	6809      	ldr	r1, [r1, #0]
  4057fe:	6b49      	ldr	r1, [r1, #52]	; 0x34
  405800:	2900      	cmp	r1, #0
  405802:	bf08      	it	eq
  405804:	4611      	moveq	r1, r2
  405806:	4622      	mov	r2, r4
  405808:	f8d1 40e0 	ldr.w	r4, [r1, #224]	; 0xe0
  40580c:	a901      	add	r1, sp, #4
  40580e:	47a0      	blx	r4
  405810:	e7e9      	b.n	4057e6 <_wcrtomb_r+0x1e>
  405812:	bf00      	nop
  405814:	2040002c 	.word	0x2040002c
  405818:	2040045c 	.word	0x2040045c

0040581c <__ascii_wctomb>:
  40581c:	b121      	cbz	r1, 405828 <__ascii_wctomb+0xc>
  40581e:	2aff      	cmp	r2, #255	; 0xff
  405820:	d804      	bhi.n	40582c <__ascii_wctomb+0x10>
  405822:	700a      	strb	r2, [r1, #0]
  405824:	2001      	movs	r0, #1
  405826:	4770      	bx	lr
  405828:	4608      	mov	r0, r1
  40582a:	4770      	bx	lr
  40582c:	238a      	movs	r3, #138	; 0x8a
  40582e:	6003      	str	r3, [r0, #0]
  405830:	f04f 30ff 	mov.w	r0, #4294967295
  405834:	4770      	bx	lr
  405836:	bf00      	nop

00405838 <_write_r>:
  405838:	b570      	push	{r4, r5, r6, lr}
  40583a:	460d      	mov	r5, r1
  40583c:	4c08      	ldr	r4, [pc, #32]	; (405860 <_write_r+0x28>)
  40583e:	4611      	mov	r1, r2
  405840:	4606      	mov	r6, r0
  405842:	461a      	mov	r2, r3
  405844:	4628      	mov	r0, r5
  405846:	2300      	movs	r3, #0
  405848:	6023      	str	r3, [r4, #0]
  40584a:	f7fb fef7 	bl	40163c <_write>
  40584e:	1c43      	adds	r3, r0, #1
  405850:	d000      	beq.n	405854 <_write_r+0x1c>
  405852:	bd70      	pop	{r4, r5, r6, pc}
  405854:	6823      	ldr	r3, [r4, #0]
  405856:	2b00      	cmp	r3, #0
  405858:	d0fb      	beq.n	405852 <_write_r+0x1a>
  40585a:	6033      	str	r3, [r6, #0]
  40585c:	bd70      	pop	{r4, r5, r6, pc}
  40585e:	bf00      	nop
  405860:	20408328 	.word	0x20408328

00405864 <__register_exitproc>:
  405864:	e92d 43f8 	stmdb	sp!, {r3, r4, r5, r6, r7, r8, r9, lr}
  405868:	4d2c      	ldr	r5, [pc, #176]	; (40591c <__register_exitproc+0xb8>)
  40586a:	4606      	mov	r6, r0
  40586c:	6828      	ldr	r0, [r5, #0]
  40586e:	4698      	mov	r8, r3
  405870:	460f      	mov	r7, r1
  405872:	4691      	mov	r9, r2
  405874:	f7ff f948 	bl	404b08 <__retarget_lock_acquire_recursive>
  405878:	4b29      	ldr	r3, [pc, #164]	; (405920 <__register_exitproc+0xbc>)
  40587a:	681c      	ldr	r4, [r3, #0]
  40587c:	f8d4 3148 	ldr.w	r3, [r4, #328]	; 0x148
  405880:	2b00      	cmp	r3, #0
  405882:	d03e      	beq.n	405902 <__register_exitproc+0x9e>
  405884:	685a      	ldr	r2, [r3, #4]
  405886:	2a1f      	cmp	r2, #31
  405888:	dc1c      	bgt.n	4058c4 <__register_exitproc+0x60>
  40588a:	f102 0e01 	add.w	lr, r2, #1
  40588e:	b176      	cbz	r6, 4058ae <__register_exitproc+0x4a>
  405890:	eb03 0182 	add.w	r1, r3, r2, lsl #2
  405894:	2401      	movs	r4, #1
  405896:	f8c1 9088 	str.w	r9, [r1, #136]	; 0x88
  40589a:	f8d3 0188 	ldr.w	r0, [r3, #392]	; 0x188
  40589e:	4094      	lsls	r4, r2
  4058a0:	4320      	orrs	r0, r4
  4058a2:	2e02      	cmp	r6, #2
  4058a4:	f8c3 0188 	str.w	r0, [r3, #392]	; 0x188
  4058a8:	f8c1 8108 	str.w	r8, [r1, #264]	; 0x108
  4058ac:	d023      	beq.n	4058f6 <__register_exitproc+0x92>
  4058ae:	3202      	adds	r2, #2
  4058b0:	f8c3 e004 	str.w	lr, [r3, #4]
  4058b4:	6828      	ldr	r0, [r5, #0]
  4058b6:	f843 7022 	str.w	r7, [r3, r2, lsl #2]
  4058ba:	f7ff f927 	bl	404b0c <__retarget_lock_release_recursive>
  4058be:	2000      	movs	r0, #0
  4058c0:	e8bd 83f8 	ldmia.w	sp!, {r3, r4, r5, r6, r7, r8, r9, pc}
  4058c4:	4b17      	ldr	r3, [pc, #92]	; (405924 <__register_exitproc+0xc0>)
  4058c6:	b30b      	cbz	r3, 40590c <__register_exitproc+0xa8>
  4058c8:	f44f 70c8 	mov.w	r0, #400	; 0x190
  4058cc:	f7ff f998 	bl	404c00 <malloc>
  4058d0:	4603      	mov	r3, r0
  4058d2:	b1d8      	cbz	r0, 40590c <__register_exitproc+0xa8>
  4058d4:	f8d4 2148 	ldr.w	r2, [r4, #328]	; 0x148
  4058d8:	6002      	str	r2, [r0, #0]
  4058da:	2100      	movs	r1, #0
  4058dc:	6041      	str	r1, [r0, #4]
  4058de:	460a      	mov	r2, r1
  4058e0:	f8c4 0148 	str.w	r0, [r4, #328]	; 0x148
  4058e4:	f04f 0e01 	mov.w	lr, #1
  4058e8:	f8c0 1188 	str.w	r1, [r0, #392]	; 0x188
  4058ec:	f8c0 118c 	str.w	r1, [r0, #396]	; 0x18c
  4058f0:	2e00      	cmp	r6, #0
  4058f2:	d0dc      	beq.n	4058ae <__register_exitproc+0x4a>
  4058f4:	e7cc      	b.n	405890 <__register_exitproc+0x2c>
  4058f6:	f8d3 118c 	ldr.w	r1, [r3, #396]	; 0x18c
  4058fa:	430c      	orrs	r4, r1
  4058fc:	f8c3 418c 	str.w	r4, [r3, #396]	; 0x18c
  405900:	e7d5      	b.n	4058ae <__register_exitproc+0x4a>
  405902:	f504 73a6 	add.w	r3, r4, #332	; 0x14c
  405906:	f8c4 3148 	str.w	r3, [r4, #328]	; 0x148
  40590a:	e7bb      	b.n	405884 <__register_exitproc+0x20>
  40590c:	6828      	ldr	r0, [r5, #0]
  40590e:	f7ff f8fd 	bl	404b0c <__retarget_lock_release_recursive>
  405912:	f04f 30ff 	mov.w	r0, #4294967295
  405916:	e8bd 83f8 	ldmia.w	sp!, {r3, r4, r5, r6, r7, r8, r9, pc}
  40591a:	bf00      	nop
  40591c:	20400458 	.word	0x20400458
  405920:	00405ee4 	.word	0x00405ee4
  405924:	00404c01 	.word	0x00404c01

00405928 <_close_r>:
  405928:	b538      	push	{r3, r4, r5, lr}
  40592a:	4c07      	ldr	r4, [pc, #28]	; (405948 <_close_r+0x20>)
  40592c:	2300      	movs	r3, #0
  40592e:	4605      	mov	r5, r0
  405930:	4608      	mov	r0, r1
  405932:	6023      	str	r3, [r4, #0]
  405934:	f7fc fdf2 	bl	40251c <_close>
  405938:	1c43      	adds	r3, r0, #1
  40593a:	d000      	beq.n	40593e <_close_r+0x16>
  40593c:	bd38      	pop	{r3, r4, r5, pc}
  40593e:	6823      	ldr	r3, [r4, #0]
  405940:	2b00      	cmp	r3, #0
  405942:	d0fb      	beq.n	40593c <_close_r+0x14>
  405944:	602b      	str	r3, [r5, #0]
  405946:	bd38      	pop	{r3, r4, r5, pc}
  405948:	20408328 	.word	0x20408328

0040594c <_fclose_r>:
  40594c:	b570      	push	{r4, r5, r6, lr}
  40594e:	b159      	cbz	r1, 405968 <_fclose_r+0x1c>
  405950:	4605      	mov	r5, r0
  405952:	460c      	mov	r4, r1
  405954:	b110      	cbz	r0, 40595c <_fclose_r+0x10>
  405956:	6b83      	ldr	r3, [r0, #56]	; 0x38
  405958:	2b00      	cmp	r3, #0
  40595a:	d03c      	beq.n	4059d6 <_fclose_r+0x8a>
  40595c:	6e63      	ldr	r3, [r4, #100]	; 0x64
  40595e:	07d8      	lsls	r0, r3, #31
  405960:	d505      	bpl.n	40596e <_fclose_r+0x22>
  405962:	f9b4 300c 	ldrsh.w	r3, [r4, #12]
  405966:	b92b      	cbnz	r3, 405974 <_fclose_r+0x28>
  405968:	2600      	movs	r6, #0
  40596a:	4630      	mov	r0, r6
  40596c:	bd70      	pop	{r4, r5, r6, pc}
  40596e:	89a3      	ldrh	r3, [r4, #12]
  405970:	0599      	lsls	r1, r3, #22
  405972:	d53c      	bpl.n	4059ee <_fclose_r+0xa2>
  405974:	4621      	mov	r1, r4
  405976:	4628      	mov	r0, r5
  405978:	f7fe fc0e 	bl	404198 <__sflush_r>
  40597c:	6ae3      	ldr	r3, [r4, #44]	; 0x2c
  40597e:	4606      	mov	r6, r0
  405980:	b133      	cbz	r3, 405990 <_fclose_r+0x44>
  405982:	69e1      	ldr	r1, [r4, #28]
  405984:	4628      	mov	r0, r5
  405986:	4798      	blx	r3
  405988:	2800      	cmp	r0, #0
  40598a:	bfb8      	it	lt
  40598c:	f04f 36ff 	movlt.w	r6, #4294967295
  405990:	89a3      	ldrh	r3, [r4, #12]
  405992:	061a      	lsls	r2, r3, #24
  405994:	d422      	bmi.n	4059dc <_fclose_r+0x90>
  405996:	6b21      	ldr	r1, [r4, #48]	; 0x30
  405998:	b141      	cbz	r1, 4059ac <_fclose_r+0x60>
  40599a:	f104 0340 	add.w	r3, r4, #64	; 0x40
  40599e:	4299      	cmp	r1, r3
  4059a0:	d002      	beq.n	4059a8 <_fclose_r+0x5c>
  4059a2:	4628      	mov	r0, r5
  4059a4:	f7fe fe16 	bl	4045d4 <_free_r>
  4059a8:	2300      	movs	r3, #0
  4059aa:	6323      	str	r3, [r4, #48]	; 0x30
  4059ac:	6c61      	ldr	r1, [r4, #68]	; 0x44
  4059ae:	b121      	cbz	r1, 4059ba <_fclose_r+0x6e>
  4059b0:	4628      	mov	r0, r5
  4059b2:	f7fe fe0f 	bl	4045d4 <_free_r>
  4059b6:	2300      	movs	r3, #0
  4059b8:	6463      	str	r3, [r4, #68]	; 0x44
  4059ba:	f7fe fd11 	bl	4043e0 <__sfp_lock_acquire>
  4059be:	6e63      	ldr	r3, [r4, #100]	; 0x64
  4059c0:	2200      	movs	r2, #0
  4059c2:	07db      	lsls	r3, r3, #31
  4059c4:	81a2      	strh	r2, [r4, #12]
  4059c6:	d50e      	bpl.n	4059e6 <_fclose_r+0x9a>
  4059c8:	6da0      	ldr	r0, [r4, #88]	; 0x58
  4059ca:	f7ff f89b 	bl	404b04 <__retarget_lock_close_recursive>
  4059ce:	f7fe fd0d 	bl	4043ec <__sfp_lock_release>
  4059d2:	4630      	mov	r0, r6
  4059d4:	bd70      	pop	{r4, r5, r6, pc}
  4059d6:	f7fe fcd7 	bl	404388 <__sinit>
  4059da:	e7bf      	b.n	40595c <_fclose_r+0x10>
  4059dc:	6921      	ldr	r1, [r4, #16]
  4059de:	4628      	mov	r0, r5
  4059e0:	f7fe fdf8 	bl	4045d4 <_free_r>
  4059e4:	e7d7      	b.n	405996 <_fclose_r+0x4a>
  4059e6:	6da0      	ldr	r0, [r4, #88]	; 0x58
  4059e8:	f7ff f890 	bl	404b0c <__retarget_lock_release_recursive>
  4059ec:	e7ec      	b.n	4059c8 <_fclose_r+0x7c>
  4059ee:	6da0      	ldr	r0, [r4, #88]	; 0x58
  4059f0:	f7ff f88a 	bl	404b08 <__retarget_lock_acquire_recursive>
  4059f4:	f9b4 300c 	ldrsh.w	r3, [r4, #12]
  4059f8:	2b00      	cmp	r3, #0
  4059fa:	d1bb      	bne.n	405974 <_fclose_r+0x28>
  4059fc:	6e66      	ldr	r6, [r4, #100]	; 0x64
  4059fe:	f016 0601 	ands.w	r6, r6, #1
  405a02:	d1b1      	bne.n	405968 <_fclose_r+0x1c>
  405a04:	6da0      	ldr	r0, [r4, #88]	; 0x58
  405a06:	f7ff f881 	bl	404b0c <__retarget_lock_release_recursive>
  405a0a:	4630      	mov	r0, r6
  405a0c:	bd70      	pop	{r4, r5, r6, pc}
  405a0e:	bf00      	nop

00405a10 <_fstat_r>:
  405a10:	b538      	push	{r3, r4, r5, lr}
  405a12:	460b      	mov	r3, r1
  405a14:	4c07      	ldr	r4, [pc, #28]	; (405a34 <_fstat_r+0x24>)
  405a16:	4605      	mov	r5, r0
  405a18:	4611      	mov	r1, r2
  405a1a:	4618      	mov	r0, r3
  405a1c:	2300      	movs	r3, #0
  405a1e:	6023      	str	r3, [r4, #0]
  405a20:	f7fc fd7f 	bl	402522 <_fstat>
  405a24:	1c43      	adds	r3, r0, #1
  405a26:	d000      	beq.n	405a2a <_fstat_r+0x1a>
  405a28:	bd38      	pop	{r3, r4, r5, pc}
  405a2a:	6823      	ldr	r3, [r4, #0]
  405a2c:	2b00      	cmp	r3, #0
  405a2e:	d0fb      	beq.n	405a28 <_fstat_r+0x18>
  405a30:	602b      	str	r3, [r5, #0]
  405a32:	bd38      	pop	{r3, r4, r5, pc}
  405a34:	20408328 	.word	0x20408328

00405a38 <_isatty_r>:
  405a38:	b538      	push	{r3, r4, r5, lr}
  405a3a:	4c07      	ldr	r4, [pc, #28]	; (405a58 <_isatty_r+0x20>)
  405a3c:	2300      	movs	r3, #0
  405a3e:	4605      	mov	r5, r0
  405a40:	4608      	mov	r0, r1
  405a42:	6023      	str	r3, [r4, #0]
  405a44:	f7fc fd72 	bl	40252c <_isatty>
  405a48:	1c43      	adds	r3, r0, #1
  405a4a:	d000      	beq.n	405a4e <_isatty_r+0x16>
  405a4c:	bd38      	pop	{r3, r4, r5, pc}
  405a4e:	6823      	ldr	r3, [r4, #0]
  405a50:	2b00      	cmp	r3, #0
  405a52:	d0fb      	beq.n	405a4c <_isatty_r+0x14>
  405a54:	602b      	str	r3, [r5, #0]
  405a56:	bd38      	pop	{r3, r4, r5, pc}
  405a58:	20408328 	.word	0x20408328

00405a5c <_lseek_r>:
  405a5c:	b570      	push	{r4, r5, r6, lr}
  405a5e:	460d      	mov	r5, r1
  405a60:	4c08      	ldr	r4, [pc, #32]	; (405a84 <_lseek_r+0x28>)
  405a62:	4611      	mov	r1, r2
  405a64:	4606      	mov	r6, r0
  405a66:	461a      	mov	r2, r3
  405a68:	4628      	mov	r0, r5
  405a6a:	2300      	movs	r3, #0
  405a6c:	6023      	str	r3, [r4, #0]
  405a6e:	f7fc fd5f 	bl	402530 <_lseek>
  405a72:	1c43      	adds	r3, r0, #1
  405a74:	d000      	beq.n	405a78 <_lseek_r+0x1c>
  405a76:	bd70      	pop	{r4, r5, r6, pc}
  405a78:	6823      	ldr	r3, [r4, #0]
  405a7a:	2b00      	cmp	r3, #0
  405a7c:	d0fb      	beq.n	405a76 <_lseek_r+0x1a>
  405a7e:	6033      	str	r3, [r6, #0]
  405a80:	bd70      	pop	{r4, r5, r6, pc}
  405a82:	bf00      	nop
  405a84:	20408328 	.word	0x20408328

00405a88 <_read_r>:
  405a88:	b570      	push	{r4, r5, r6, lr}
  405a8a:	460d      	mov	r5, r1
  405a8c:	4c08      	ldr	r4, [pc, #32]	; (405ab0 <_read_r+0x28>)
  405a8e:	4611      	mov	r1, r2
  405a90:	4606      	mov	r6, r0
  405a92:	461a      	mov	r2, r3
  405a94:	4628      	mov	r0, r5
  405a96:	2300      	movs	r3, #0
  405a98:	6023      	str	r3, [r4, #0]
  405a9a:	f7fa fb9b 	bl	4001d4 <_read>
  405a9e:	1c43      	adds	r3, r0, #1
  405aa0:	d000      	beq.n	405aa4 <_read_r+0x1c>
  405aa2:	bd70      	pop	{r4, r5, r6, pc}
  405aa4:	6823      	ldr	r3, [r4, #0]
  405aa6:	2b00      	cmp	r3, #0
  405aa8:	d0fb      	beq.n	405aa2 <_read_r+0x1a>
  405aaa:	6033      	str	r3, [r6, #0]
  405aac:	bd70      	pop	{r4, r5, r6, pc}
  405aae:	bf00      	nop
  405ab0:	20408328 	.word	0x20408328
  405ab4:	00000053 	.word	0x00000053
  405ab8:	7274734d 	.word	0x7274734d
  405abc:	00005854 	.word	0x00005854
  405ac0:	7473614d 	.word	0x7473614d
  405ac4:	6f6e7265 	.word	0x6f6e7265
  405ac8:	66206564 	.word	0x66206564
  405acc:	6920726f 	.word	0x6920726f
  405ad0:	7265746e 	.word	0x7265746e
  405ad4:	69746361 	.word	0x69746361
  405ad8:	74206576 	.word	0x74206576
  405adc:	74616568 	.word	0x74616568
  405ae0:	73207265 	.word	0x73207265
  405ae4:	65747379 	.word	0x65747379
  405ae8:	0000006d 	.word	0x0000006d
  405aec:	50747241 	.word	0x50747241
  405af0:	206c6c6f 	.word	0x206c6c6f
  405af4:	6c706572 	.word	0x6c706572
  405af8:	0d646569 	.word	0x0d646569
  405afc:	00000000 	.word	0x00000000
  405b00:	6d696e55 	.word	0x6d696e55
  405b04:	6d656c70 	.word	0x6d656c70
  405b08:	65746e65 	.word	0x65746e65
  405b0c:	704f2064 	.word	0x704f2064
  405b10:	65646f43 	.word	0x65646f43
  405b14:	00000000 	.word	0x00000000
  405b18:	203d3d3d 	.word	0x203d3d3d
  405b1c:	61666544 	.word	0x61666544
  405b20:	20746c75 	.word	0x20746c75
  405b24:	6b705f77 	.word	0x6b705f77
  405b28:	6f665f74 	.word	0x6f665f74
  405b2c:	74616d72 	.word	0x74616d72
  405b30:	7830203d 	.word	0x7830203d
  405b34:	3d3d5825 	.word	0x3d3d5825
  405b38:	000d0a3d 	.word	0x000d0a3d
  405b3c:	20594850 	.word	0x20594850
  405b40:	74696e49 	.word	0x74696e49
  405b44:	696c6169 	.word	0x696c6169
  405b48:	4520657a 	.word	0x4520657a
  405b4c:	524f5252 	.word	0x524f5252
  405b50:	00000d21 	.word	0x00000d21
  405b54:	6f747541 	.word	0x6f747541
  405b58:	67654e20 	.word	0x67654e20
  405b5c:	6169746f 	.word	0x6169746f
  405b60:	45206574 	.word	0x45206574
  405b64:	524f5252 	.word	0x524f5252
  405b68:	00000d21 	.word	0x00000d21
  405b6c:	20746553 	.word	0x20746553
  405b70:	6b6e696c 	.word	0x6b6e696c
  405b74:	52524520 	.word	0x52524520
  405b78:	0d21524f 	.word	0x0d21524f
  405b7c:	00000000 	.word	0x00000000
  405b80:	00007350 	.word	0x00007350
  405b84:	20495053 	.word	0x20495053
  405b88:	65657053 	.word	0x65657053
  405b8c:	3d200964 	.word	0x3d200964
  405b90:	646c2520 	.word	0x646c2520
  405b94:	7a484d20 	.word	0x7a484d20
  405b98:	00000a0d 	.word	0x00000a0d
  405b9c:	54415453 	.word	0x54415453
  405ba0:	09095355 	.word	0x09095355
  405ba4:	30203d20 	.word	0x30203d20
  405ba8:	32302578 	.word	0x32302578
  405bac:	58522078 	.word	0x58522078
  405bb0:	3d52445f 	.word	0x3d52445f
  405bb4:	54207825 	.word	0x54207825
  405bb8:	53445f58 	.word	0x53445f58
  405bbc:	2078253d 	.word	0x2078253d
  405bc0:	5f58414d 	.word	0x5f58414d
  405bc4:	253d5452 	.word	0x253d5452
  405bc8:	58522078 	.word	0x58522078
  405bcc:	4e5f505f 	.word	0x4e5f505f
  405bd0:	78253d4f 	.word	0x78253d4f
  405bd4:	5f585420 	.word	0x5f585420
  405bd8:	4c4c5546 	.word	0x4c4c5546
  405bdc:	0d78253d 	.word	0x0d78253d
  405be0:	0000000a 	.word	0x0000000a
  405be4:	415f5852 	.word	0x415f5852
  405be8:	5f524444 	.word	0x5f524444
  405bec:	312d3050 	.word	0x312d3050
  405bf0:	00000000 	.word	0x00000000
  405bf4:	415f5852 	.word	0x415f5852
  405bf8:	5f524444 	.word	0x5f524444
  405bfc:	352d3250 	.word	0x352d3250
  405c00:	00000000 	.word	0x00000000
  405c04:	415f5854 	.word	0x415f5854
  405c08:	09524444 	.word	0x09524444
  405c0c:	00000000 	.word	0x00000000
  405c10:	505f5852 	.word	0x505f5852
  405c14:	30505f57 	.word	0x30505f57
  405c18:	0000352d 	.word	0x0000352d
  405c1c:	55544553 	.word	0x55544553
  405c20:	57415f50 	.word	0x57415f50
  405c24:	00000000 	.word	0x00000000
  405c28:	415f4e45 	.word	0x415f4e45
  405c2c:	00000941 	.word	0x00000941
  405c30:	525f4e45 	.word	0x525f4e45
  405c34:	44444158 	.word	0x44444158
  405c38:	00000052 	.word	0x00000052
  405c3c:	435f4652 	.word	0x435f4652
  405c40:	00000948 	.word	0x00000948
  405c44:	535f4652 	.word	0x535f4652
  405c48:	50555445 	.word	0x50555445
  405c4c:	00000000 	.word	0x00000000
  405c50:	464e4f43 	.word	0x464e4f43
  405c54:	00094749 	.word	0x00094749
  405c58:	504e5944 	.word	0x504e5944
  405c5c:	45462f44 	.word	0x45462f44
  405c60:	52555441 	.word	0x52555441
  405c64:	00000045 	.word	0x00000045
  405c68:	61746144 	.word	0x61746144
  405c6c:	74615220 	.word	0x74615220
  405c70:	3d200965 	.word	0x3d200965
  405c74:	0d732520 	.word	0x0d732520
  405c78:	0000000a 	.word	0x0000000a
  405c7c:	65646f4d 	.word	0x65646f4d
  405c80:	2009096c 	.word	0x2009096c
  405c84:	7325203d 	.word	0x7325203d
  405c88:	00000a0d 	.word	0x00000a0d
  405c8c:	20435243 	.word	0x20435243
  405c90:	676e654c 	.word	0x676e654c
  405c94:	20096874 	.word	0x20096874
  405c98:	7325203d 	.word	0x7325203d
  405c9c:	00000a0d 	.word	0x00000a0d
  405ca0:	50204150 	.word	0x50204150
  405ca4:	7265776f 	.word	0x7265776f
  405ca8:	203d2009 	.word	0x203d2009
  405cac:	0a0d7325 	.word	0x0a0d7325
  405cb0:	00000000 	.word	0x00000000
  405cb4:	00097325 	.word	0x00097325
  405cb8:	00783020 	.word	0x00783020
  405cbc:	78323025 	.word	0x78323025
  405cc0:	00000000 	.word	0x00000000
  405cc4:	25783020 	.word	0x25783020
  405cc8:	00783230 	.word	0x00783230

00405ccc <rf24_crclength_e_str_0>:
  405ccc:	61736944 64656c62 00000000              Disabled....

00405cd8 <rf24_crclength_e_str_1>:
  405cd8:	69622038 00007374                       8 bits..

00405ce0 <rf24_crclength_e_str_2>:
  405ce0:	62203631 00737469                       16 bits.

00405ce8 <rf24_crclength_e_str_P>:
  405ce8:	00405ccc 00405cd8 00405ce0              .\@..\@..\@.

00405cf4 <rf24_datarate_e_str_0>:
  405cf4:	50424d31 00000053                       1MBPS...

00405cfc <rf24_datarate_e_str_1>:
  405cfc:	50424d32 00000053                       2MBPS...

00405d04 <rf24_datarate_e_str_2>:
  405d04:	4b303532 00535042                       250KBPS.

00405d0c <rf24_datarate_e_str_P>:
  405d0c:	00405cf4 00405cfc 00405d04              .\@..\@..]@.

00405d18 <rf24_model_e_str_1>:
  405d18:	3246526e 31304c34 0000002b              nRF24L01+...

00405d24 <rf24_pa_dbm_e_str_0>:
  405d24:	4d5f4150 00004e49                       PA_MIN..

00405d2c <rf24_pa_dbm_e_str_1>:
  405d2c:	4c5f4150 0000574f                       PA_LOW..

00405d34 <rf24_pa_dbm_e_str_2>:
  405d34:	485f4150 00484749                       PA_HIGH.

00405d3c <rf24_pa_dbm_e_str_3>:
  405d3c:	4d5f4150 00005841                       PA_MAX..

00405d44 <rf24_pa_dbm_e_str_P>:
  405d44:	00405d24 00405d2c 00405d34 00405d3c     $]@.,]@.4]@.<]@.
  405d54:	74746553 20676e69 20495053 636f6c63     Setting SPI cloc
  405d64:	2523206b 2e20756c 0a202e2e 0000000d     k #%lu ... .....
  405d74:	202d492d 74696e49 696c6169 5320657a     -I- Initialize S
  405d84:	61204950 616d2073 72657473 0000000d     PI as master....

00405d94 <listeningPipes>:
  405d94:	3a3a3aa1 3a3a3ab1 3a3a3ac1 3a3a3ad1     .:::.:::.:::.:::
  405da4:	3a3a3ae1 3a3a3a0a 4d202d2d 65747361     .:::.:::-- Maste
  405db4:	646f4e72 65525f65 312d3076 0d2d2d20     rNode_Rev0-1 --.
  405dc4:	202d2d0a 454d4153 582d3037 20444c50     .-- SAME70-XPLD 
  405dd4:	0a0d2d2d 43202d2d 69706d6f 3a64656c     --..-- Compiled:
  405de4:	63654420 20313220 30323032 3a353120      Dec 21 2020 15:
  405df4:	343a3335 2d2d2030 0000000d 4d202d2d     53:40 --....-- M
  405e04:	25204341 78253a78 3a78253a 253a7825     AC %x:%x:%x:%x:%
  405e14:	78253a78 00000d0a 49202d2d 25202050     x:%x....-- IP  %
  405e24:	64252e64 2e64252e 0d0a6425 00000000     d.%d.%d.%d......
  405e34:	6b6e696c 74656420 65746365 00000d64     link detected...
  405e44:	65646f4e 20642520 64616572 6e776f20     Node %d read own
  405e54:	6e657320 0d726f73 0000000a 646e6553      sensor.....Send
  405e64:	74616420 72662061 6e206d6f 2065646f      data from node 
  405e74:	74206425 746f206f 20726568 65646f6e     %d to other node
  405e84:	00000a0d 646e6553 74616420 72662061     ....Send data fr
  405e94:	6e206d6f 2065646f 74206425 694d206f     om node %d to Mi
  405ea4:	6e206964 0d65646f 0000000a 6e6e6f63     di node.....conn
  405eb4:	20746365 6b736564 206f7420 65646f6e     ect desk to node
  405ec4:	20642520 20726f66 0a0d6425 00000000      %d for %d......
  405ed4:	65736552 6f6e2074 25206564 000a0d64     Reset node %d...

00405ee4 <_global_impure_ptr>:
  405ee4:	20400030 33323130 37363534 42413938     0.@ 0123456789AB
  405ef4:	46454443 00000000 33323130 37363534     CDEF....01234567
  405f04:	62613938 66656463 00000000 6c756e28     89abcdef....(nul
  405f14:	0000296c                                l)..

00405f18 <blanks.7217>:
  405f18:	20202020 20202020 20202020 20202020                     

00405f28 <zeroes.7218>:
  405f28:	30303030 30303030 30303030 30303030     0000000000000000
  405f38:	00000043 49534f50 00000058 0000002e     C...POSIX.......

00405f48 <_ctype_>:
  405f48:	20202000 20202020 28282020 20282828     .         ((((( 
  405f58:	20202020 20202020 20202020 20202020                     
  405f68:	10108820 10101010 10101010 10101010      ...............
  405f78:	04040410 04040404 10040404 10101010     ................
  405f88:	41411010 41414141 01010101 01010101     ..AAAAAA........
  405f98:	01010101 01010101 01010101 10101010     ................
  405fa8:	42421010 42424242 02020202 02020202     ..BBBBBB........
  405fb8:	02020202 02020202 02020202 10101010     ................
  405fc8:	00000020 00000000 00000000 00000000      ...............
	...

0040604c <_init>:
  40604c:	b5f8      	push	{r3, r4, r5, r6, r7, lr}
  40604e:	bf00      	nop
  406050:	bcf8      	pop	{r3, r4, r5, r6, r7}
  406052:	bc08      	pop	{r3}
  406054:	469e      	mov	lr, r3
  406056:	4770      	bx	lr

00406058 <__init_array_start>:
  406058:	00404179 	.word	0x00404179

0040605c <__frame_dummy_init_array_entry>:
  40605c:	0040018d                                ..@.

00406060 <_fini>:
  406060:	b5f8      	push	{r3, r4, r5, r6, r7, lr}
  406062:	bf00      	nop
  406064:	bcf8      	pop	{r3, r4, r5, r6, r7}
  406066:	bc08      	pop	{r3}
  406068:	469e      	mov	lr, r3
  40606a:	4770      	bx	lr

0040606c <__fini_array_start>:
  40606c:	00400169 	.word	0x00400169

Disassembly of section .relocate:

20400000 <portable_delay_cycles>:
20400000:	f3bf 8f5f 	dmb	sy
20400004:	3801      	subs	r0, #1
20400006:	d1fb      	bne.n	20400000 <portable_delay_cycles>
20400008:	4770      	bx	lr
	...

2040000c <artnet_id>:
2040000c:	7241 2d74 654e 0074                         Art-Net.

20400014 <gs_uc_ip_address>:
20400014:	1c02 02a0                                   ....

20400018 <gs_uc_mac_address>:
20400018:	0400 1c25 02a0                              ..%...

2040001e <payload_size>:
2040001e:	0020                                         .

20400020 <gs_ul_spi_clock>:
20400020:	4b40 004c                                   @KL.

20400024 <g_interrupt_enabled>:
20400024:	0001 0000                                   ....

20400028 <SystemCoreClock>:
20400028:	0900 003d                                   ..=.

2040002c <_impure_ptr>:
2040002c:	0030 2040                                   0.@ 

20400030 <impure_data>:
20400030:	0000 0000 031c 2040 0384 2040 03ec 2040     ......@ ..@ ..@ 
	...
204000d8:	0001 0000 0000 0000 330e abcd 1234 e66d     .........3..4.m.
204000e8:	deec 0005 000b 0000 0000 0000 0000 0000     ................
	...

20400458 <__atexit_recursive_mutex>:
20400458:	8304 2040                                   ..@ 

2040045c <__global_locale>:
2040045c:	0043 0000 0000 0000 0000 0000 0000 0000     C...............
	...
2040047c:	0043 0000 0000 0000 0000 0000 0000 0000     C...............
	...
2040049c:	0043 0000 0000 0000 0000 0000 0000 0000     C...............
	...
204004bc:	0043 0000 0000 0000 0000 0000 0000 0000     C...............
	...
204004dc:	0043 0000 0000 0000 0000 0000 0000 0000     C...............
	...
204004fc:	0043 0000 0000 0000 0000 0000 0000 0000     C...............
	...
2040051c:	0043 0000 0000 0000 0000 0000 0000 0000     C...............
	...
2040053c:	581d 0040 5171 0040 0000 0000 5f48 0040     .X@.qQ@.....H_@.
2040054c:	5f44 0040 5c0c 0040 5c0c 0040 5c0c 0040     D_@..\@..\@..\@.
2040055c:	5c0c 0040 5c0c 0040 5c0c 0040 5c0c 0040     .\@..\@..\@..\@.
2040056c:	5c0c 0040 5c0c 0040 ffff ffff ffff ffff     .\@..\@.........
2040057c:	ffff ffff ffff 0000 0001 5341 4943 0049     ..........ASCII.
	...
204005a4:	0000 5341 4943 0049 0000 0000 0000 0000     ..ASCII.........
	...

204005c8 <__malloc_av_>:
	...
204005d0:	05c8 2040 05c8 2040 05d0 2040 05d0 2040     ..@ ..@ ..@ ..@ 
204005e0:	05d8 2040 05d8 2040 05e0 2040 05e0 2040     ..@ ..@ ..@ ..@ 
204005f0:	05e8 2040 05e8 2040 05f0 2040 05f0 2040     ..@ ..@ ..@ ..@ 
20400600:	05f8 2040 05f8 2040 0600 2040 0600 2040     ..@ ..@ ..@ ..@ 
20400610:	0608 2040 0608 2040 0610 2040 0610 2040     ..@ ..@ ..@ ..@ 
20400620:	0618 2040 0618 2040 0620 2040 0620 2040     ..@ ..@  .@  .@ 
20400630:	0628 2040 0628 2040 0630 2040 0630 2040     (.@ (.@ 0.@ 0.@ 
20400640:	0638 2040 0638 2040 0640 2040 0640 2040     8.@ 8.@ @.@ @.@ 
20400650:	0648 2040 0648 2040 0650 2040 0650 2040     H.@ H.@ P.@ P.@ 
20400660:	0658 2040 0658 2040 0660 2040 0660 2040     X.@ X.@ `.@ `.@ 
20400670:	0668 2040 0668 2040 0670 2040 0670 2040     h.@ h.@ p.@ p.@ 
20400680:	0678 2040 0678 2040 0680 2040 0680 2040     x.@ x.@ ..@ ..@ 
20400690:	0688 2040 0688 2040 0690 2040 0690 2040     ..@ ..@ ..@ ..@ 
204006a0:	0698 2040 0698 2040 06a0 2040 06a0 2040     ..@ ..@ ..@ ..@ 
204006b0:	06a8 2040 06a8 2040 06b0 2040 06b0 2040     ..@ ..@ ..@ ..@ 
204006c0:	06b8 2040 06b8 2040 06c0 2040 06c0 2040     ..@ ..@ ..@ ..@ 
204006d0:	06c8 2040 06c8 2040 06d0 2040 06d0 2040     ..@ ..@ ..@ ..@ 
204006e0:	06d8 2040 06d8 2040 06e0 2040 06e0 2040     ..@ ..@ ..@ ..@ 
204006f0:	06e8 2040 06e8 2040 06f0 2040 06f0 2040     ..@ ..@ ..@ ..@ 
20400700:	06f8 2040 06f8 2040 0700 2040 0700 2040     ..@ ..@ ..@ ..@ 
20400710:	0708 2040 0708 2040 0710 2040 0710 2040     ..@ ..@ ..@ ..@ 
20400720:	0718 2040 0718 2040 0720 2040 0720 2040     ..@ ..@  .@  .@ 
20400730:	0728 2040 0728 2040 0730 2040 0730 2040     (.@ (.@ 0.@ 0.@ 
20400740:	0738 2040 0738 2040 0740 2040 0740 2040     8.@ 8.@ @.@ @.@ 
20400750:	0748 2040 0748 2040 0750 2040 0750 2040     H.@ H.@ P.@ P.@ 
20400760:	0758 2040 0758 2040 0760 2040 0760 2040     X.@ X.@ `.@ `.@ 
20400770:	0768 2040 0768 2040 0770 2040 0770 2040     h.@ h.@ p.@ p.@ 
20400780:	0778 2040 0778 2040 0780 2040 0780 2040     x.@ x.@ ..@ ..@ 
20400790:	0788 2040 0788 2040 0790 2040 0790 2040     ..@ ..@ ..@ ..@ 
204007a0:	0798 2040 0798 2040 07a0 2040 07a0 2040     ..@ ..@ ..@ ..@ 
204007b0:	07a8 2040 07a8 2040 07b0 2040 07b0 2040     ..@ ..@ ..@ ..@ 
204007c0:	07b8 2040 07b8 2040 07c0 2040 07c0 2040     ..@ ..@ ..@ ..@ 
204007d0:	07c8 2040 07c8 2040 07d0 2040 07d0 2040     ..@ ..@ ..@ ..@ 
204007e0:	07d8 2040 07d8 2040 07e0 2040 07e0 2040     ..@ ..@ ..@ ..@ 
204007f0:	07e8 2040 07e8 2040 07f0 2040 07f0 2040     ..@ ..@ ..@ ..@ 
20400800:	07f8 2040 07f8 2040 0800 2040 0800 2040     ..@ ..@ ..@ ..@ 
20400810:	0808 2040 0808 2040 0810 2040 0810 2040     ..@ ..@ ..@ ..@ 
20400820:	0818 2040 0818 2040 0820 2040 0820 2040     ..@ ..@  .@  .@ 
20400830:	0828 2040 0828 2040 0830 2040 0830 2040     (.@ (.@ 0.@ 0.@ 
20400840:	0838 2040 0838 2040 0840 2040 0840 2040     8.@ 8.@ @.@ @.@ 
20400850:	0848 2040 0848 2040 0850 2040 0850 2040     H.@ H.@ P.@ P.@ 
20400860:	0858 2040 0858 2040 0860 2040 0860 2040     X.@ X.@ `.@ `.@ 
20400870:	0868 2040 0868 2040 0870 2040 0870 2040     h.@ h.@ p.@ p.@ 
20400880:	0878 2040 0878 2040 0880 2040 0880 2040     x.@ x.@ ..@ ..@ 
20400890:	0888 2040 0888 2040 0890 2040 0890 2040     ..@ ..@ ..@ ..@ 
204008a0:	0898 2040 0898 2040 08a0 2040 08a0 2040     ..@ ..@ ..@ ..@ 
204008b0:	08a8 2040 08a8 2040 08b0 2040 08b0 2040     ..@ ..@ ..@ ..@ 
204008c0:	08b8 2040 08b8 2040 08c0 2040 08c0 2040     ..@ ..@ ..@ ..@ 
204008d0:	08c8 2040 08c8 2040 08d0 2040 08d0 2040     ..@ ..@ ..@ ..@ 
204008e0:	08d8 2040 08d8 2040 08e0 2040 08e0 2040     ..@ ..@ ..@ ..@ 
204008f0:	08e8 2040 08e8 2040 08f0 2040 08f0 2040     ..@ ..@ ..@ ..@ 
20400900:	08f8 2040 08f8 2040 0900 2040 0900 2040     ..@ ..@ ..@ ..@ 
20400910:	0908 2040 0908 2040 0910 2040 0910 2040     ..@ ..@ ..@ ..@ 
20400920:	0918 2040 0918 2040 0920 2040 0920 2040     ..@ ..@  .@  .@ 
20400930:	0928 2040 0928 2040 0930 2040 0930 2040     (.@ (.@ 0.@ 0.@ 
20400940:	0938 2040 0938 2040 0940 2040 0940 2040     8.@ 8.@ @.@ @.@ 
20400950:	0948 2040 0948 2040 0950 2040 0950 2040     H.@ H.@ P.@ P.@ 
20400960:	0958 2040 0958 2040 0960 2040 0960 2040     X.@ X.@ `.@ `.@ 
20400970:	0968 2040 0968 2040 0970 2040 0970 2040     h.@ h.@ p.@ p.@ 
20400980:	0978 2040 0978 2040 0980 2040 0980 2040     x.@ x.@ ..@ ..@ 
20400990:	0988 2040 0988 2040 0990 2040 0990 2040     ..@ ..@ ..@ ..@ 
204009a0:	0998 2040 0998 2040 09a0 2040 09a0 2040     ..@ ..@ ..@ ..@ 
204009b0:	09a8 2040 09a8 2040 09b0 2040 09b0 2040     ..@ ..@ ..@ ..@ 
204009c0:	09b8 2040 09b8 2040 09c0 2040 09c0 2040     ..@ ..@ ..@ ..@ 

204009d0 <__malloc_sbrk_base>:
204009d0:	ffff ffff                                   ....

204009d4 <__malloc_trim_threshold>:
204009d4:	0000 0002                                   ....
